ARM GAS  C:\Users\master\AppData\Local\Temp\ccQ0Gq4w.s 			page 1


   1              		.syntax unified
   2              		.cpu cortex-m4
   3              		.eabi_attribute 27, 1
   4              		.eabi_attribute 28, 1
   5              		.fpu fpv4-sp-d16
   6              		.eabi_attribute 20, 1
   7              		.eabi_attribute 21, 1
   8              		.eabi_attribute 23, 3
   9              		.eabi_attribute 24, 1
  10              		.eabi_attribute 25, 1
  11              		.eabi_attribute 26, 1
  12              		.eabi_attribute 30, 1
  13              		.eabi_attribute 34, 1
  14              		.eabi_attribute 18, 4
  15              		.thumb
  16              		.syntax unified
  17              		.file	"main.c"
  18              		.text
  19              	.Ltext0:
  20              		.cfi_sections	.debug_frame
  21              		.section	.text.MX_GPIO_Init,"ax",%progbits
  22              		.align	2
  23              		.thumb
  24              		.thumb_func
  26              	MX_GPIO_Init:
  27              	.LFB139:
  28              		.file 1 "Core/Src/main.c"
   1:Core/Src/main.c **** /* USER CODE BEGIN Header */
   2:Core/Src/main.c **** /**
   3:Core/Src/main.c ****   ******************************************************************************
   4:Core/Src/main.c ****   * @file           : main.c
   5:Core/Src/main.c ****   * @brief          : Main program body
   6:Core/Src/main.c ****   ******************************************************************************
   7:Core/Src/main.c ****   * @attention
   8:Core/Src/main.c ****   *
   9:Core/Src/main.c ****   * <h2><center>&copy; Copyright (c) 2021 STMicroelectronics.
  10:Core/Src/main.c ****   * All rights reserved.</center></h2>
  11:Core/Src/main.c ****   *
  12:Core/Src/main.c ****   * This software component is licensed by ST under BSD 3-Clause license,
  13:Core/Src/main.c ****   * the "License"; You may not use this file except in compliance with the
  14:Core/Src/main.c ****   * License. You may obtain a copy of the License at:
  15:Core/Src/main.c ****   *                        opensource.org/licenses/BSD-3-Clause
  16:Core/Src/main.c ****   *
  17:Core/Src/main.c ****   ******************************************************************************
  18:Core/Src/main.c ****   */
  19:Core/Src/main.c **** /* USER CODE END Header */
  20:Core/Src/main.c **** /* Includes ------------------------------------------------------------------*/
  21:Core/Src/main.c **** #include "main.h"
  22:Core/Src/main.c **** #include "cmsis_os.h"
  23:Core/Src/main.c **** 
  24:Core/Src/main.c **** /* Private includes ----------------------------------------------------------*/
  25:Core/Src/main.c **** /* USER CODE BEGIN Includes */
  26:Core/Src/main.c **** #include "mysetp.h"
  27:Core/Src/main.c **** /* USER CODE END Includes */
  28:Core/Src/main.c **** 
  29:Core/Src/main.c **** /* Private typedef -----------------------------------------------------------*/
  30:Core/Src/main.c **** /* USER CODE BEGIN PTD */
ARM GAS  C:\Users\master\AppData\Local\Temp\ccQ0Gq4w.s 			page 2


  31:Core/Src/main.c **** 
  32:Core/Src/main.c **** /* USER CODE END PTD */
  33:Core/Src/main.c **** 
  34:Core/Src/main.c **** /* Private define ------------------------------------------------------------*/
  35:Core/Src/main.c **** /* USER CODE BEGIN PD */
  36:Core/Src/main.c **** /* USER CODE END PD */
  37:Core/Src/main.c **** 
  38:Core/Src/main.c **** /* Private macro -------------------------------------------------------------*/
  39:Core/Src/main.c **** /* USER CODE BEGIN PM */
  40:Core/Src/main.c **** 
  41:Core/Src/main.c **** /* USER CODE END PM */
  42:Core/Src/main.c **** 
  43:Core/Src/main.c **** /* Private variables ---------------------------------------------------------*/
  44:Core/Src/main.c **** SPI_HandleTypeDef hspi1;
  45:Core/Src/main.c **** DMA_HandleTypeDef hdma_spi1_tx;
  46:Core/Src/main.c **** 
  47:Core/Src/main.c **** osThreadId MainTaskHandle;
  48:Core/Src/main.c **** osMutexId myMutex01Handle;
  49:Core/Src/main.c **** /* USER CODE BEGIN PV */
  50:Core/Src/main.c **** 
  51:Core/Src/main.c **** /* USER CODE END PV */
  52:Core/Src/main.c **** 
  53:Core/Src/main.c **** /* Private function prototypes -----------------------------------------------*/
  54:Core/Src/main.c **** void SystemClock_Config(void);
  55:Core/Src/main.c **** static void MX_GPIO_Init(void);
  56:Core/Src/main.c **** static void MX_SPI1_Init(void);
  57:Core/Src/main.c **** static void MX_DMA_Init(void);
  58:Core/Src/main.c **** void StartMainTask(void const * argument);
  59:Core/Src/main.c **** 
  60:Core/Src/main.c **** /* USER CODE BEGIN PFP */
  61:Core/Src/main.c **** 
  62:Core/Src/main.c **** /* USER CODE END PFP */
  63:Core/Src/main.c **** 
  64:Core/Src/main.c **** /* Private user code ---------------------------------------------------------*/
  65:Core/Src/main.c **** /* USER CODE BEGIN 0 */
  66:Core/Src/main.c **** 
  67:Core/Src/main.c **** /* USER CODE END 0 */
  68:Core/Src/main.c **** 
  69:Core/Src/main.c **** /**
  70:Core/Src/main.c ****   * @brief  The application entry point.
  71:Core/Src/main.c ****   * @retval int
  72:Core/Src/main.c ****   */
  73:Core/Src/main.c **** int main(void)
  74:Core/Src/main.c **** {
  75:Core/Src/main.c ****   /* USER CODE BEGIN 1 */
  76:Core/Src/main.c **** 
  77:Core/Src/main.c ****   /* USER CODE END 1 */
  78:Core/Src/main.c **** 
  79:Core/Src/main.c ****   /* MCU Configuration--------------------------------------------------------*/
  80:Core/Src/main.c **** 
  81:Core/Src/main.c ****   /* Reset of all peripherals, Initializes the Flash interface and the Systick. */
  82:Core/Src/main.c ****   HAL_Init();
  83:Core/Src/main.c **** 
  84:Core/Src/main.c ****   /* USER CODE BEGIN Init */
  85:Core/Src/main.c **** 
  86:Core/Src/main.c ****   /* USER CODE END Init */
  87:Core/Src/main.c **** 
ARM GAS  C:\Users\master\AppData\Local\Temp\ccQ0Gq4w.s 			page 3


  88:Core/Src/main.c ****   /* Configure the system clock */
  89:Core/Src/main.c ****   SystemClock_Config();
  90:Core/Src/main.c **** 
  91:Core/Src/main.c ****   /* USER CODE BEGIN SysInit */
  92:Core/Src/main.c **** 
  93:Core/Src/main.c ****   /* USER CODE END SysInit */
  94:Core/Src/main.c **** 
  95:Core/Src/main.c ****   /* Initialize all configured peripherals */
  96:Core/Src/main.c ****   MX_GPIO_Init();
  97:Core/Src/main.c ****   MX_SPI1_Init();
  98:Core/Src/main.c ****   MX_DMA_Init();
  99:Core/Src/main.c ****   /* USER CODE BEGIN 2 */
 100:Core/Src/main.c **** 
 101:Core/Src/main.c ****   /* USER CODE END 2 */
 102:Core/Src/main.c **** 
 103:Core/Src/main.c ****   /* Create the mutex(es) */
 104:Core/Src/main.c ****   /* definition and creation of myMutex01 */
 105:Core/Src/main.c ****   osMutexDef(myMutex01);
 106:Core/Src/main.c ****   myMutex01Handle = osMutexCreate(osMutex(myMutex01));
 107:Core/Src/main.c **** 
 108:Core/Src/main.c ****   /* USER CODE BEGIN RTOS_MUTEX */
 109:Core/Src/main.c ****   /* add mutexes, ... */
 110:Core/Src/main.c ****   /* USER CODE END RTOS_MUTEX */
 111:Core/Src/main.c **** 
 112:Core/Src/main.c ****   /* USER CODE BEGIN RTOS_SEMAPHORES */
 113:Core/Src/main.c ****   /* add semaphores, ... */
 114:Core/Src/main.c ****   /* USER CODE END RTOS_SEMAPHORES */
 115:Core/Src/main.c **** 
 116:Core/Src/main.c ****   /* USER CODE BEGIN RTOS_TIMERS */
 117:Core/Src/main.c ****   /* start timers, add new ones, ... */
 118:Core/Src/main.c ****   /* USER CODE END RTOS_TIMERS */
 119:Core/Src/main.c **** 
 120:Core/Src/main.c ****   /* USER CODE BEGIN RTOS_QUEUES */
 121:Core/Src/main.c ****   /* add queues, ... */
 122:Core/Src/main.c ****   /* USER CODE END RTOS_QUEUES */
 123:Core/Src/main.c **** 
 124:Core/Src/main.c ****   /* Create the thread(s) */
 125:Core/Src/main.c ****   /* definition and creation of MainTask */
 126:Core/Src/main.c ****   osThreadDef(MainTask, StartMainTask, osPriorityNormal, 0, 128);
 127:Core/Src/main.c ****   MainTaskHandle = osThreadCreate(osThread(MainTask), NULL);
 128:Core/Src/main.c **** 
 129:Core/Src/main.c ****   /* USER CODE BEGIN RTOS_THREADS */
 130:Core/Src/main.c ****   /* add threads, ... */
 131:Core/Src/main.c ****   /* USER CODE END RTOS_THREADS */
 132:Core/Src/main.c **** 
 133:Core/Src/main.c ****   /* Start scheduler */
 134:Core/Src/main.c ****   osKernelStart();
 135:Core/Src/main.c **** 
 136:Core/Src/main.c ****   /* We should never get here as control is now taken by the scheduler */
 137:Core/Src/main.c ****   /* Infinite loop */
 138:Core/Src/main.c ****   /* USER CODE BEGIN WHILE */
 139:Core/Src/main.c ****   while (1)
 140:Core/Src/main.c ****   {
 141:Core/Src/main.c ****     /* USER CODE END WHILE */
 142:Core/Src/main.c **** 
 143:Core/Src/main.c ****     /* USER CODE BEGIN 3 */
 144:Core/Src/main.c **** 
ARM GAS  C:\Users\master\AppData\Local\Temp\ccQ0Gq4w.s 			page 4


 145:Core/Src/main.c ****     
 146:Core/Src/main.c ****   }
 147:Core/Src/main.c ****   /* USER CODE END 3 */
 148:Core/Src/main.c **** }
 149:Core/Src/main.c **** 
 150:Core/Src/main.c **** /**
 151:Core/Src/main.c ****   * @brief System Clock Configuration
 152:Core/Src/main.c ****   * @retval None
 153:Core/Src/main.c ****   */
 154:Core/Src/main.c **** void SystemClock_Config(void)
 155:Core/Src/main.c **** {
 156:Core/Src/main.c ****   RCC_OscInitTypeDef RCC_OscInitStruct = {0};
 157:Core/Src/main.c ****   RCC_ClkInitTypeDef RCC_ClkInitStruct = {0};
 158:Core/Src/main.c **** 
 159:Core/Src/main.c ****   /** Configure the main internal regulator output voltage
 160:Core/Src/main.c ****   */
 161:Core/Src/main.c ****   __HAL_RCC_PWR_CLK_ENABLE();
 162:Core/Src/main.c ****   __HAL_PWR_VOLTAGESCALING_CONFIG(PWR_REGULATOR_VOLTAGE_SCALE2);
 163:Core/Src/main.c ****   /** Initializes the RCC Oscillators according to the specified parameters
 164:Core/Src/main.c ****   * in the RCC_OscInitTypeDef structure.
 165:Core/Src/main.c ****   */
 166:Core/Src/main.c ****   RCC_OscInitStruct.OscillatorType = RCC_OSCILLATORTYPE_HSE;
 167:Core/Src/main.c ****   RCC_OscInitStruct.HSEState = RCC_HSE_ON;
 168:Core/Src/main.c ****   RCC_OscInitStruct.PLL.PLLState = RCC_PLL_ON;
 169:Core/Src/main.c ****   RCC_OscInitStruct.PLL.PLLSource = RCC_PLLSOURCE_HSE;
 170:Core/Src/main.c ****   RCC_OscInitStruct.PLL.PLLM = 25;
 171:Core/Src/main.c ****   RCC_OscInitStruct.PLL.PLLN = 168;
 172:Core/Src/main.c ****   RCC_OscInitStruct.PLL.PLLP = RCC_PLLP_DIV2;
 173:Core/Src/main.c ****   RCC_OscInitStruct.PLL.PLLQ = 4;
 174:Core/Src/main.c ****   if (HAL_RCC_OscConfig(&RCC_OscInitStruct) != HAL_OK)
 175:Core/Src/main.c ****   {
 176:Core/Src/main.c ****     Error_Handler();
 177:Core/Src/main.c ****   }
 178:Core/Src/main.c ****   /** Initializes the CPU, AHB and APB buses clocks
 179:Core/Src/main.c ****   */
 180:Core/Src/main.c ****   RCC_ClkInitStruct.ClockType = RCC_CLOCKTYPE_HCLK|RCC_CLOCKTYPE_SYSCLK
 181:Core/Src/main.c ****                               |RCC_CLOCKTYPE_PCLK1|RCC_CLOCKTYPE_PCLK2;
 182:Core/Src/main.c ****   RCC_ClkInitStruct.SYSCLKSource = RCC_SYSCLKSOURCE_PLLCLK;
 183:Core/Src/main.c ****   RCC_ClkInitStruct.AHBCLKDivider = RCC_SYSCLK_DIV1;
 184:Core/Src/main.c ****   RCC_ClkInitStruct.APB1CLKDivider = RCC_HCLK_DIV2;
 185:Core/Src/main.c ****   RCC_ClkInitStruct.APB2CLKDivider = RCC_HCLK_DIV1;
 186:Core/Src/main.c **** 
 187:Core/Src/main.c ****   if (HAL_RCC_ClockConfig(&RCC_ClkInitStruct, FLASH_LATENCY_2) != HAL_OK)
 188:Core/Src/main.c ****   {
 189:Core/Src/main.c ****     Error_Handler();
 190:Core/Src/main.c ****   }
 191:Core/Src/main.c **** }
 192:Core/Src/main.c **** 
 193:Core/Src/main.c **** /**
 194:Core/Src/main.c ****   * @brief SPI1 Initialization Function
 195:Core/Src/main.c ****   * @param None
 196:Core/Src/main.c ****   * @retval None
 197:Core/Src/main.c ****   */
 198:Core/Src/main.c **** static void MX_SPI1_Init(void)
 199:Core/Src/main.c **** {
 200:Core/Src/main.c **** 
 201:Core/Src/main.c ****   /* USER CODE BEGIN SPI1_Init 0 */
ARM GAS  C:\Users\master\AppData\Local\Temp\ccQ0Gq4w.s 			page 5


 202:Core/Src/main.c **** 
 203:Core/Src/main.c ****   /* USER CODE END SPI1_Init 0 */
 204:Core/Src/main.c **** 
 205:Core/Src/main.c ****   /* USER CODE BEGIN SPI1_Init 1 */
 206:Core/Src/main.c **** 
 207:Core/Src/main.c ****   /* USER CODE END SPI1_Init 1 */
 208:Core/Src/main.c ****   /* SPI1 parameter configuration*/
 209:Core/Src/main.c ****   hspi1.Instance = SPI1;
 210:Core/Src/main.c ****   hspi1.Init.Mode = SPI_MODE_MASTER;
 211:Core/Src/main.c ****   hspi1.Init.Direction = SPI_DIRECTION_2LINES;
 212:Core/Src/main.c ****   hspi1.Init.DataSize = SPI_DATASIZE_8BIT;
 213:Core/Src/main.c ****   hspi1.Init.CLKPolarity = SPI_POLARITY_LOW;
 214:Core/Src/main.c ****   hspi1.Init.CLKPhase = SPI_PHASE_1EDGE;
 215:Core/Src/main.c ****   hspi1.Init.NSS = SPI_NSS_SOFT;
 216:Core/Src/main.c ****   hspi1.Init.BaudRatePrescaler = SPI_BAUDRATEPRESCALER_2;
 217:Core/Src/main.c ****   hspi1.Init.FirstBit = SPI_FIRSTBIT_MSB;
 218:Core/Src/main.c ****   hspi1.Init.TIMode = SPI_TIMODE_DISABLE;
 219:Core/Src/main.c ****   hspi1.Init.CRCCalculation = SPI_CRCCALCULATION_DISABLE;
 220:Core/Src/main.c ****   hspi1.Init.CRCPolynomial = 10;
 221:Core/Src/main.c ****   if (HAL_SPI_Init(&hspi1) != HAL_OK)
 222:Core/Src/main.c ****   {
 223:Core/Src/main.c ****     Error_Handler();
 224:Core/Src/main.c ****   }
 225:Core/Src/main.c ****   /* USER CODE BEGIN SPI1_Init 2 */
 226:Core/Src/main.c **** 
 227:Core/Src/main.c ****   /* USER CODE END SPI1_Init 2 */
 228:Core/Src/main.c **** 
 229:Core/Src/main.c **** }
 230:Core/Src/main.c **** 
 231:Core/Src/main.c **** /**
 232:Core/Src/main.c ****   * Enable DMA controller clock
 233:Core/Src/main.c ****   */
 234:Core/Src/main.c **** static void MX_DMA_Init(void)
 235:Core/Src/main.c **** {
 236:Core/Src/main.c **** 
 237:Core/Src/main.c ****   /* DMA controller clock enable */
 238:Core/Src/main.c ****   __HAL_RCC_DMA2_CLK_ENABLE();
 239:Core/Src/main.c **** 
 240:Core/Src/main.c ****   /* DMA interrupt init */
 241:Core/Src/main.c ****   /* DMA2_Stream3_IRQn interrupt configuration */
 242:Core/Src/main.c ****   HAL_NVIC_SetPriority(DMA2_Stream3_IRQn, 5, 0);
 243:Core/Src/main.c ****   HAL_NVIC_EnableIRQ(DMA2_Stream3_IRQn);
 244:Core/Src/main.c **** 
 245:Core/Src/main.c **** }
 246:Core/Src/main.c **** 
 247:Core/Src/main.c **** /**
 248:Core/Src/main.c ****   * @brief GPIO Initialization Function
 249:Core/Src/main.c ****   * @param None
 250:Core/Src/main.c ****   * @retval None
 251:Core/Src/main.c ****   */
 252:Core/Src/main.c **** static void MX_GPIO_Init(void)
 253:Core/Src/main.c **** {
  29              		.loc 1 253 0
  30              		.cfi_startproc
  31              		@ args = 0, pretend = 0, frame = 40
  32              		@ frame_needed = 0, uses_anonymous_args = 0
  33 0000 2DE9F041 		push	{r4, r5, r6, r7, r8, lr}
ARM GAS  C:\Users\master\AppData\Local\Temp\ccQ0Gq4w.s 			page 6


  34              	.LCFI0:
  35              		.cfi_def_cfa_offset 24
  36              		.cfi_offset 4, -24
  37              		.cfi_offset 5, -20
  38              		.cfi_offset 6, -16
  39              		.cfi_offset 7, -12
  40              		.cfi_offset 8, -8
  41              		.cfi_offset 14, -4
  42 0004 8AB0     		sub	sp, sp, #40
  43              	.LCFI1:
  44              		.cfi_def_cfa_offset 64
 254:Core/Src/main.c ****   GPIO_InitTypeDef GPIO_InitStruct = {0};
  45              		.loc 1 254 0
  46 0006 0024     		movs	r4, #0
  47 0008 0594     		str	r4, [sp, #20]
  48 000a 0694     		str	r4, [sp, #24]
  49 000c 0794     		str	r4, [sp, #28]
  50 000e 0894     		str	r4, [sp, #32]
  51 0010 0994     		str	r4, [sp, #36]
  52              	.LBB4:
 255:Core/Src/main.c **** 
 256:Core/Src/main.c ****   /* GPIO Ports Clock Enable */
 257:Core/Src/main.c ****   __HAL_RCC_GPIOC_CLK_ENABLE();
  53              		.loc 1 257 0
  54 0012 0194     		str	r4, [sp, #4]
  55 0014 304B     		ldr	r3, .L3
  56 0016 1A6B     		ldr	r2, [r3, #48]
  57 0018 42F00402 		orr	r2, r2, #4
  58 001c 1A63     		str	r2, [r3, #48]
  59 001e 1A6B     		ldr	r2, [r3, #48]
  60 0020 02F00402 		and	r2, r2, #4
  61 0024 0192     		str	r2, [sp, #4]
  62 0026 019A     		ldr	r2, [sp, #4]
  63              	.LBE4:
  64              	.LBB5:
 258:Core/Src/main.c ****   __HAL_RCC_GPIOH_CLK_ENABLE();
  65              		.loc 1 258 0
  66 0028 0294     		str	r4, [sp, #8]
  67 002a 1A6B     		ldr	r2, [r3, #48]
  68 002c 42F08002 		orr	r2, r2, #128
  69 0030 1A63     		str	r2, [r3, #48]
  70 0032 1A6B     		ldr	r2, [r3, #48]
  71 0034 02F08002 		and	r2, r2, #128
  72 0038 0292     		str	r2, [sp, #8]
  73 003a 029A     		ldr	r2, [sp, #8]
  74              	.LBE5:
  75              	.LBB6:
 259:Core/Src/main.c ****   __HAL_RCC_GPIOA_CLK_ENABLE();
  76              		.loc 1 259 0
  77 003c 0394     		str	r4, [sp, #12]
  78 003e 1A6B     		ldr	r2, [r3, #48]
  79 0040 42F00102 		orr	r2, r2, #1
  80 0044 1A63     		str	r2, [r3, #48]
  81 0046 1A6B     		ldr	r2, [r3, #48]
  82 0048 02F00102 		and	r2, r2, #1
  83 004c 0392     		str	r2, [sp, #12]
  84 004e 039A     		ldr	r2, [sp, #12]
ARM GAS  C:\Users\master\AppData\Local\Temp\ccQ0Gq4w.s 			page 7


  85              	.LBE6:
  86              	.LBB7:
 260:Core/Src/main.c ****   __HAL_RCC_GPIOB_CLK_ENABLE();
  87              		.loc 1 260 0
  88 0050 0494     		str	r4, [sp, #16]
  89 0052 1A6B     		ldr	r2, [r3, #48]
  90 0054 42F00202 		orr	r2, r2, #2
  91 0058 1A63     		str	r2, [r3, #48]
  92 005a 1B6B     		ldr	r3, [r3, #48]
  93 005c 03F00203 		and	r3, r3, #2
  94 0060 0493     		str	r3, [sp, #16]
  95 0062 049B     		ldr	r3, [sp, #16]
  96              	.LBE7:
 261:Core/Src/main.c **** 
 262:Core/Src/main.c ****   /*Configure GPIO pin Output Level */
 263:Core/Src/main.c ****   HAL_GPIO_WritePin(GPIOC, GPIO_PIN_13, GPIO_PIN_RESET);
  97              		.loc 1 263 0
  98 0064 1D4E     		ldr	r6, .L3+4
  99 0066 2246     		mov	r2, r4
 100 0068 4FF40051 		mov	r1, #8192
 101 006c 3046     		mov	r0, r6
 102 006e FFF7FEFF 		bl	HAL_GPIO_WritePin
 103              	.LVL0:
 264:Core/Src/main.c **** 
 265:Core/Src/main.c ****   /*Configure GPIO pin Output Level */
 266:Core/Src/main.c ****   HAL_GPIO_WritePin(OLED_DC_GPIO_Port, OLED_DC_Pin, GPIO_PIN_RESET);
 104              		.loc 1 266 0
 105 0072 DFF87080 		ldr	r8, .L3+12
 106 0076 2246     		mov	r2, r4
 107 0078 4021     		movs	r1, #64
 108 007a 4046     		mov	r0, r8
 109 007c FFF7FEFF 		bl	HAL_GPIO_WritePin
 110              	.LVL1:
 267:Core/Src/main.c **** 
 268:Core/Src/main.c ****   /*Configure GPIO pin Output Level */
 269:Core/Src/main.c ****   HAL_GPIO_WritePin(OLED_RST_GPIO_Port, OLED_RST_Pin, GPIO_PIN_SET);
 111              		.loc 1 269 0
 112 0080 174D     		ldr	r5, .L3+8
 113 0082 0122     		movs	r2, #1
 114 0084 1146     		mov	r1, r2
 115 0086 2846     		mov	r0, r5
 116 0088 FFF7FEFF 		bl	HAL_GPIO_WritePin
 117              	.LVL2:
 270:Core/Src/main.c **** 
 271:Core/Src/main.c ****   /*Configure GPIO pin Output Level */
 272:Core/Src/main.c ****   HAL_GPIO_WritePin(OLED_CS_GPIO_Port, OLED_CS_Pin, GPIO_PIN_RESET);
 118              		.loc 1 272 0
 119 008c 2246     		mov	r2, r4
 120 008e 0221     		movs	r1, #2
 121 0090 2846     		mov	r0, r5
 122 0092 FFF7FEFF 		bl	HAL_GPIO_WritePin
 123              	.LVL3:
 273:Core/Src/main.c **** 
 274:Core/Src/main.c ****   /*Configure GPIO pin : PC13 */
 275:Core/Src/main.c ****   GPIO_InitStruct.Pin = GPIO_PIN_13;
 124              		.loc 1 275 0
 125 0096 4FF40053 		mov	r3, #8192
ARM GAS  C:\Users\master\AppData\Local\Temp\ccQ0Gq4w.s 			page 8


 126 009a 0593     		str	r3, [sp, #20]
 276:Core/Src/main.c ****   GPIO_InitStruct.Mode = GPIO_MODE_OUTPUT_PP;
 127              		.loc 1 276 0
 128 009c 0127     		movs	r7, #1
 129 009e 0697     		str	r7, [sp, #24]
 277:Core/Src/main.c ****   GPIO_InitStruct.Pull = GPIO_NOPULL;
 130              		.loc 1 277 0
 131 00a0 0794     		str	r4, [sp, #28]
 278:Core/Src/main.c ****   GPIO_InitStruct.Speed = GPIO_SPEED_FREQ_LOW;
 132              		.loc 1 278 0
 133 00a2 0894     		str	r4, [sp, #32]
 279:Core/Src/main.c ****   HAL_GPIO_Init(GPIOC, &GPIO_InitStruct);
 134              		.loc 1 279 0
 135 00a4 05A9     		add	r1, sp, #20
 136 00a6 3046     		mov	r0, r6
 137 00a8 FFF7FEFF 		bl	HAL_GPIO_Init
 138              	.LVL4:
 280:Core/Src/main.c **** 
 281:Core/Src/main.c ****   /*Configure GPIO pin : OLED_DC_Pin */
 282:Core/Src/main.c ****   GPIO_InitStruct.Pin = OLED_DC_Pin;
 139              		.loc 1 282 0
 140 00ac 4023     		movs	r3, #64
 141 00ae 0593     		str	r3, [sp, #20]
 283:Core/Src/main.c ****   GPIO_InitStruct.Mode = GPIO_MODE_OUTPUT_PP;
 142              		.loc 1 283 0
 143 00b0 0697     		str	r7, [sp, #24]
 284:Core/Src/main.c ****   GPIO_InitStruct.Pull = GPIO_NOPULL;
 144              		.loc 1 284 0
 145 00b2 0794     		str	r4, [sp, #28]
 285:Core/Src/main.c ****   GPIO_InitStruct.Speed = GPIO_SPEED_FREQ_VERY_HIGH;
 146              		.loc 1 285 0
 147 00b4 0326     		movs	r6, #3
 148 00b6 0896     		str	r6, [sp, #32]
 286:Core/Src/main.c ****   HAL_GPIO_Init(OLED_DC_GPIO_Port, &GPIO_InitStruct);
 149              		.loc 1 286 0
 150 00b8 05A9     		add	r1, sp, #20
 151 00ba 4046     		mov	r0, r8
 152 00bc FFF7FEFF 		bl	HAL_GPIO_Init
 153              	.LVL5:
 287:Core/Src/main.c **** 
 288:Core/Src/main.c ****   /*Configure GPIO pins : OLED_RST_Pin OLED_CS_Pin */
 289:Core/Src/main.c ****   GPIO_InitStruct.Pin = OLED_RST_Pin|OLED_CS_Pin;
 154              		.loc 1 289 0
 155 00c0 0596     		str	r6, [sp, #20]
 290:Core/Src/main.c ****   GPIO_InitStruct.Mode = GPIO_MODE_OUTPUT_PP;
 156              		.loc 1 290 0
 157 00c2 0697     		str	r7, [sp, #24]
 291:Core/Src/main.c ****   GPIO_InitStruct.Pull = GPIO_NOPULL;
 158              		.loc 1 291 0
 159 00c4 0794     		str	r4, [sp, #28]
 292:Core/Src/main.c ****   GPIO_InitStruct.Speed = GPIO_SPEED_FREQ_VERY_HIGH;
 160              		.loc 1 292 0
 161 00c6 0896     		str	r6, [sp, #32]
 293:Core/Src/main.c ****   HAL_GPIO_Init(GPIOB, &GPIO_InitStruct);
 162              		.loc 1 293 0
 163 00c8 05A9     		add	r1, sp, #20
 164 00ca 2846     		mov	r0, r5
ARM GAS  C:\Users\master\AppData\Local\Temp\ccQ0Gq4w.s 			page 9


 165 00cc FFF7FEFF 		bl	HAL_GPIO_Init
 166              	.LVL6:
 294:Core/Src/main.c **** 
 295:Core/Src/main.c **** }
 167              		.loc 1 295 0
 168 00d0 0AB0     		add	sp, sp, #40
 169              	.LCFI2:
 170              		.cfi_def_cfa_offset 24
 171              		@ sp needed
 172 00d2 BDE8F081 		pop	{r4, r5, r6, r7, r8, pc}
 173              	.L4:
 174 00d6 00BF     		.align	2
 175              	.L3:
 176 00d8 00380240 		.word	1073887232
 177 00dc 00080240 		.word	1073874944
 178 00e0 00040240 		.word	1073873920
 179 00e4 00000240 		.word	1073872896
 180              		.cfi_endproc
 181              	.LFE139:
 183              		.section	.text.MX_DMA_Init,"ax",%progbits
 184              		.align	2
 185              		.thumb
 186              		.thumb_func
 188              	MX_DMA_Init:
 189              	.LFB138:
 235:Core/Src/main.c **** 
 190              		.loc 1 235 0
 191              		.cfi_startproc
 192              		@ args = 0, pretend = 0, frame = 8
 193              		@ frame_needed = 0, uses_anonymous_args = 0
 194 0000 00B5     		push	{lr}
 195              	.LCFI3:
 196              		.cfi_def_cfa_offset 4
 197              		.cfi_offset 14, -4
 198 0002 83B0     		sub	sp, sp, #12
 199              	.LCFI4:
 200              		.cfi_def_cfa_offset 16
 201              	.LBB8:
 238:Core/Src/main.c **** 
 202              		.loc 1 238 0
 203 0004 0022     		movs	r2, #0
 204 0006 0192     		str	r2, [sp, #4]
 205 0008 094B     		ldr	r3, .L7
 206 000a 196B     		ldr	r1, [r3, #48]
 207 000c 41F48001 		orr	r1, r1, #4194304
 208 0010 1963     		str	r1, [r3, #48]
 209 0012 1B6B     		ldr	r3, [r3, #48]
 210 0014 03F48003 		and	r3, r3, #4194304
 211 0018 0193     		str	r3, [sp, #4]
 212 001a 019B     		ldr	r3, [sp, #4]
 213              	.LBE8:
 242:Core/Src/main.c ****   HAL_NVIC_EnableIRQ(DMA2_Stream3_IRQn);
 214              		.loc 1 242 0
 215 001c 0521     		movs	r1, #5
 216 001e 3B20     		movs	r0, #59
 217 0020 FFF7FEFF 		bl	HAL_NVIC_SetPriority
 218              	.LVL7:
ARM GAS  C:\Users\master\AppData\Local\Temp\ccQ0Gq4w.s 			page 10


 243:Core/Src/main.c **** 
 219              		.loc 1 243 0
 220 0024 3B20     		movs	r0, #59
 221 0026 FFF7FEFF 		bl	HAL_NVIC_EnableIRQ
 222              	.LVL8:
 245:Core/Src/main.c **** 
 223              		.loc 1 245 0
 224 002a 03B0     		add	sp, sp, #12
 225              	.LCFI5:
 226              		.cfi_def_cfa_offset 4
 227              		@ sp needed
 228 002c 5DF804FB 		ldr	pc, [sp], #4
 229              	.L8:
 230              		.align	2
 231              	.L7:
 232 0030 00380240 		.word	1073887232
 233              		.cfi_endproc
 234              	.LFE138:
 236              		.section	.text.StartMainTask,"ax",%progbits
 237              		.align	2
 238              		.global	StartMainTask
 239              		.thumb
 240              		.thumb_func
 242              	StartMainTask:
 243              	.LFB140:
 296:Core/Src/main.c **** 
 297:Core/Src/main.c **** /* USER CODE BEGIN 4 */
 298:Core/Src/main.c **** 
 299:Core/Src/main.c **** /* USER CODE END 4 */
 300:Core/Src/main.c **** 
 301:Core/Src/main.c **** /* USER CODE BEGIN Header_StartMainTask */
 302:Core/Src/main.c **** /**
 303:Core/Src/main.c ****   * @brief  Function implementing the MainTask thread.
 304:Core/Src/main.c ****   * @param  argument: Not used
 305:Core/Src/main.c ****   * @retval None
 306:Core/Src/main.c ****   */
 307:Core/Src/main.c **** /* USER CODE END Header_StartMainTask */
 308:Core/Src/main.c **** void StartMainTask(void const * argument)
 309:Core/Src/main.c **** {
 244              		.loc 1 309 0
 245              		.cfi_startproc
 246              		@ Volatile: function does not return.
 247              		@ args = 0, pretend = 0, frame = 0
 248              		@ frame_needed = 0, uses_anonymous_args = 0
 249              	.LVL9:
 250 0000 08B5     		push	{r3, lr}
 251              	.LCFI6:
 252              		.cfi_def_cfa_offset 8
 253              		.cfi_offset 3, -8
 254              		.cfi_offset 14, -4
 255              	.LVL10:
 256              	.L10:
 310:Core/Src/main.c ****   /* USER CODE BEGIN 5 */
 311:Core/Src/main.c ****   /* Infinite loop */
 312:Core/Src/main.c ****   for(;;)
 313:Core/Src/main.c ****   {
 314:Core/Src/main.c ****       
ARM GAS  C:\Users\master\AppData\Local\Temp\ccQ0Gq4w.s 			page 11


 315:Core/Src/main.c ****     osDelay(1);
 257              		.loc 1 315 0 discriminator 1
 258 0002 0120     		movs	r0, #1
 259 0004 FFF7FEFF 		bl	osDelay
 260              	.LVL11:
 316:Core/Src/main.c ****     setp();
 261              		.loc 1 316 0 discriminator 1
 262 0008 FFF7FEFF 		bl	setp
 263              	.LVL12:
 264 000c F9E7     		b	.L10
 265              		.cfi_endproc
 266              	.LFE140:
 268 000e 00BF     		.section	.text.HAL_TIM_PeriodElapsedCallback,"ax",%progbits
 269              		.align	2
 270              		.global	HAL_TIM_PeriodElapsedCallback
 271              		.thumb
 272              		.thumb_func
 274              	HAL_TIM_PeriodElapsedCallback:
 275              	.LFB141:
 317:Core/Src/main.c ****   }
 318:Core/Src/main.c ****   /* USER CODE END 5 */
 319:Core/Src/main.c **** }
 320:Core/Src/main.c **** 
 321:Core/Src/main.c **** /**
 322:Core/Src/main.c ****   * @brief  Period elapsed callback in non blocking mode
 323:Core/Src/main.c ****   * @note   This function is called  when TIM1 interrupt took place, inside
 324:Core/Src/main.c ****   * HAL_TIM_IRQHandler(). It makes a direct call to HAL_IncTick() to increment
 325:Core/Src/main.c ****   * a global variable "uwTick" used as application time base.
 326:Core/Src/main.c ****   * @param  htim : TIM handle
 327:Core/Src/main.c ****   * @retval None
 328:Core/Src/main.c ****   */
 329:Core/Src/main.c **** void HAL_TIM_PeriodElapsedCallback(TIM_HandleTypeDef *htim)
 330:Core/Src/main.c **** {
 276              		.loc 1 330 0
 277              		.cfi_startproc
 278              		@ args = 0, pretend = 0, frame = 0
 279              		@ frame_needed = 0, uses_anonymous_args = 0
 280              	.LVL13:
 281 0000 08B5     		push	{r3, lr}
 282              	.LCFI7:
 283              		.cfi_def_cfa_offset 8
 284              		.cfi_offset 3, -8
 285              		.cfi_offset 14, -4
 331:Core/Src/main.c ****   /* USER CODE BEGIN Callback 0 */
 332:Core/Src/main.c **** 
 333:Core/Src/main.c ****   /* USER CODE END Callback 0 */
 334:Core/Src/main.c ****   if (htim->Instance == TIM1) {
 286              		.loc 1 334 0
 287 0002 0268     		ldr	r2, [r0]
 288 0004 024B     		ldr	r3, .L15
 289 0006 9A42     		cmp	r2, r3
 290 0008 01D1     		bne	.L12
 335:Core/Src/main.c ****     HAL_IncTick();
 291              		.loc 1 335 0
 292 000a FFF7FEFF 		bl	HAL_IncTick
 293              	.LVL14:
 294              	.L12:
ARM GAS  C:\Users\master\AppData\Local\Temp\ccQ0Gq4w.s 			page 12


 295 000e 08BD     		pop	{r3, pc}
 296              	.L16:
 297              		.align	2
 298              	.L15:
 299 0010 00000140 		.word	1073807360
 300              		.cfi_endproc
 301              	.LFE141:
 303              		.section	.text.Error_Handler,"ax",%progbits
 304              		.align	2
 305              		.global	Error_Handler
 306              		.thumb
 307              		.thumb_func
 309              	Error_Handler:
 310              	.LFB142:
 336:Core/Src/main.c ****   }
 337:Core/Src/main.c ****   /* USER CODE BEGIN Callback 1 */
 338:Core/Src/main.c **** 
 339:Core/Src/main.c ****   /* USER CODE END Callback 1 */
 340:Core/Src/main.c **** }
 341:Core/Src/main.c **** 
 342:Core/Src/main.c **** /**
 343:Core/Src/main.c ****   * @brief  This function is executed in case of error occurrence.
 344:Core/Src/main.c ****   * @retval None
 345:Core/Src/main.c ****   */
 346:Core/Src/main.c **** void Error_Handler(void)
 347:Core/Src/main.c **** {
 311              		.loc 1 347 0
 312              		.cfi_startproc
 313              		@ Volatile: function does not return.
 314              		@ args = 0, pretend = 0, frame = 0
 315              		@ frame_needed = 0, uses_anonymous_args = 0
 316              		@ link register save eliminated.
 317              	.LBB9:
 318              	.LBB10:
 319              		.file 2 "Drivers/CMSIS/Include/cmsis_gcc.h"
   1:Drivers/CMSIS/Include/cmsis_gcc.h **** /**************************************************************************//**
   2:Drivers/CMSIS/Include/cmsis_gcc.h ****  * @file     cmsis_gcc.h
   3:Drivers/CMSIS/Include/cmsis_gcc.h ****  * @brief    CMSIS compiler GCC header file
   4:Drivers/CMSIS/Include/cmsis_gcc.h ****  * @version  V5.0.4
   5:Drivers/CMSIS/Include/cmsis_gcc.h ****  * @date     09. April 2018
   6:Drivers/CMSIS/Include/cmsis_gcc.h ****  ******************************************************************************/
   7:Drivers/CMSIS/Include/cmsis_gcc.h **** /*
   8:Drivers/CMSIS/Include/cmsis_gcc.h ****  * Copyright (c) 2009-2018 Arm Limited. All rights reserved.
   9:Drivers/CMSIS/Include/cmsis_gcc.h ****  *
  10:Drivers/CMSIS/Include/cmsis_gcc.h ****  * SPDX-License-Identifier: Apache-2.0
  11:Drivers/CMSIS/Include/cmsis_gcc.h ****  *
  12:Drivers/CMSIS/Include/cmsis_gcc.h ****  * Licensed under the Apache License, Version 2.0 (the License); you may
  13:Drivers/CMSIS/Include/cmsis_gcc.h ****  * not use this file except in compliance with the License.
  14:Drivers/CMSIS/Include/cmsis_gcc.h ****  * You may obtain a copy of the License at
  15:Drivers/CMSIS/Include/cmsis_gcc.h ****  *
  16:Drivers/CMSIS/Include/cmsis_gcc.h ****  * www.apache.org/licenses/LICENSE-2.0
  17:Drivers/CMSIS/Include/cmsis_gcc.h ****  *
  18:Drivers/CMSIS/Include/cmsis_gcc.h ****  * Unless required by applicable law or agreed to in writing, software
  19:Drivers/CMSIS/Include/cmsis_gcc.h ****  * distributed under the License is distributed on an AS IS BASIS, WITHOUT
  20:Drivers/CMSIS/Include/cmsis_gcc.h ****  * WARRANTIES OR CONDITIONS OF ANY KIND, either express or implied.
  21:Drivers/CMSIS/Include/cmsis_gcc.h ****  * See the License for the specific language governing permissions and
  22:Drivers/CMSIS/Include/cmsis_gcc.h ****  * limitations under the License.
ARM GAS  C:\Users\master\AppData\Local\Temp\ccQ0Gq4w.s 			page 13


  23:Drivers/CMSIS/Include/cmsis_gcc.h ****  */
  24:Drivers/CMSIS/Include/cmsis_gcc.h **** 
  25:Drivers/CMSIS/Include/cmsis_gcc.h **** #ifndef __CMSIS_GCC_H
  26:Drivers/CMSIS/Include/cmsis_gcc.h **** #define __CMSIS_GCC_H
  27:Drivers/CMSIS/Include/cmsis_gcc.h **** 
  28:Drivers/CMSIS/Include/cmsis_gcc.h **** /* ignore some GCC warnings */
  29:Drivers/CMSIS/Include/cmsis_gcc.h **** #pragma GCC diagnostic push
  30:Drivers/CMSIS/Include/cmsis_gcc.h **** #pragma GCC diagnostic ignored "-Wsign-conversion"
  31:Drivers/CMSIS/Include/cmsis_gcc.h **** #pragma GCC diagnostic ignored "-Wconversion"
  32:Drivers/CMSIS/Include/cmsis_gcc.h **** #pragma GCC diagnostic ignored "-Wunused-parameter"
  33:Drivers/CMSIS/Include/cmsis_gcc.h **** 
  34:Drivers/CMSIS/Include/cmsis_gcc.h **** /* Fallback for __has_builtin */
  35:Drivers/CMSIS/Include/cmsis_gcc.h **** #ifndef __has_builtin
  36:Drivers/CMSIS/Include/cmsis_gcc.h ****   #define __has_builtin(x) (0)
  37:Drivers/CMSIS/Include/cmsis_gcc.h **** #endif
  38:Drivers/CMSIS/Include/cmsis_gcc.h **** 
  39:Drivers/CMSIS/Include/cmsis_gcc.h **** /* CMSIS compiler specific defines */
  40:Drivers/CMSIS/Include/cmsis_gcc.h **** #ifndef   __ASM
  41:Drivers/CMSIS/Include/cmsis_gcc.h ****   #define __ASM                                  __asm
  42:Drivers/CMSIS/Include/cmsis_gcc.h **** #endif
  43:Drivers/CMSIS/Include/cmsis_gcc.h **** #ifndef   __INLINE
  44:Drivers/CMSIS/Include/cmsis_gcc.h ****   #define __INLINE                               inline
  45:Drivers/CMSIS/Include/cmsis_gcc.h **** #endif
  46:Drivers/CMSIS/Include/cmsis_gcc.h **** #ifndef   __STATIC_INLINE
  47:Drivers/CMSIS/Include/cmsis_gcc.h ****   #define __STATIC_INLINE                        static inline
  48:Drivers/CMSIS/Include/cmsis_gcc.h **** #endif
  49:Drivers/CMSIS/Include/cmsis_gcc.h **** #ifndef   __STATIC_FORCEINLINE                 
  50:Drivers/CMSIS/Include/cmsis_gcc.h ****   #define __STATIC_FORCEINLINE                   __attribute__((always_inline)) static inline
  51:Drivers/CMSIS/Include/cmsis_gcc.h **** #endif                                           
  52:Drivers/CMSIS/Include/cmsis_gcc.h **** #ifndef   __NO_RETURN
  53:Drivers/CMSIS/Include/cmsis_gcc.h ****   #define __NO_RETURN                            __attribute__((__noreturn__))
  54:Drivers/CMSIS/Include/cmsis_gcc.h **** #endif
  55:Drivers/CMSIS/Include/cmsis_gcc.h **** #ifndef   __USED
  56:Drivers/CMSIS/Include/cmsis_gcc.h ****   #define __USED                                 __attribute__((used))
  57:Drivers/CMSIS/Include/cmsis_gcc.h **** #endif
  58:Drivers/CMSIS/Include/cmsis_gcc.h **** #ifndef   __WEAK
  59:Drivers/CMSIS/Include/cmsis_gcc.h ****   #define __WEAK                                 __attribute__((weak))
  60:Drivers/CMSIS/Include/cmsis_gcc.h **** #endif
  61:Drivers/CMSIS/Include/cmsis_gcc.h **** #ifndef   __PACKED
  62:Drivers/CMSIS/Include/cmsis_gcc.h ****   #define __PACKED                               __attribute__((packed, aligned(1)))
  63:Drivers/CMSIS/Include/cmsis_gcc.h **** #endif
  64:Drivers/CMSIS/Include/cmsis_gcc.h **** #ifndef   __PACKED_STRUCT
  65:Drivers/CMSIS/Include/cmsis_gcc.h ****   #define __PACKED_STRUCT                        struct __attribute__((packed, aligned(1)))
  66:Drivers/CMSIS/Include/cmsis_gcc.h **** #endif
  67:Drivers/CMSIS/Include/cmsis_gcc.h **** #ifndef   __PACKED_UNION
  68:Drivers/CMSIS/Include/cmsis_gcc.h ****   #define __PACKED_UNION                         union __attribute__((packed, aligned(1)))
  69:Drivers/CMSIS/Include/cmsis_gcc.h **** #endif
  70:Drivers/CMSIS/Include/cmsis_gcc.h **** #ifndef   __UNALIGNED_UINT32        /* deprecated */
  71:Drivers/CMSIS/Include/cmsis_gcc.h ****   #pragma GCC diagnostic push
  72:Drivers/CMSIS/Include/cmsis_gcc.h ****   #pragma GCC diagnostic ignored "-Wpacked"
  73:Drivers/CMSIS/Include/cmsis_gcc.h ****   #pragma GCC diagnostic ignored "-Wattributes"
  74:Drivers/CMSIS/Include/cmsis_gcc.h ****   struct __attribute__((packed)) T_UINT32 { uint32_t v; };
  75:Drivers/CMSIS/Include/cmsis_gcc.h ****   #pragma GCC diagnostic pop
  76:Drivers/CMSIS/Include/cmsis_gcc.h ****   #define __UNALIGNED_UINT32(x)                  (((struct T_UINT32 *)(x))->v)
  77:Drivers/CMSIS/Include/cmsis_gcc.h **** #endif
  78:Drivers/CMSIS/Include/cmsis_gcc.h **** #ifndef   __UNALIGNED_UINT16_WRITE
  79:Drivers/CMSIS/Include/cmsis_gcc.h ****   #pragma GCC diagnostic push
ARM GAS  C:\Users\master\AppData\Local\Temp\ccQ0Gq4w.s 			page 14


  80:Drivers/CMSIS/Include/cmsis_gcc.h ****   #pragma GCC diagnostic ignored "-Wpacked"
  81:Drivers/CMSIS/Include/cmsis_gcc.h ****   #pragma GCC diagnostic ignored "-Wattributes"
  82:Drivers/CMSIS/Include/cmsis_gcc.h ****   __PACKED_STRUCT T_UINT16_WRITE { uint16_t v; };
  83:Drivers/CMSIS/Include/cmsis_gcc.h ****   #pragma GCC diagnostic pop
  84:Drivers/CMSIS/Include/cmsis_gcc.h ****   #define __UNALIGNED_UINT16_WRITE(addr, val)    (void)((((struct T_UINT16_WRITE *)(void *)(addr))-
  85:Drivers/CMSIS/Include/cmsis_gcc.h **** #endif
  86:Drivers/CMSIS/Include/cmsis_gcc.h **** #ifndef   __UNALIGNED_UINT16_READ
  87:Drivers/CMSIS/Include/cmsis_gcc.h ****   #pragma GCC diagnostic push
  88:Drivers/CMSIS/Include/cmsis_gcc.h ****   #pragma GCC diagnostic ignored "-Wpacked"
  89:Drivers/CMSIS/Include/cmsis_gcc.h ****   #pragma GCC diagnostic ignored "-Wattributes"
  90:Drivers/CMSIS/Include/cmsis_gcc.h ****   __PACKED_STRUCT T_UINT16_READ { uint16_t v; };
  91:Drivers/CMSIS/Include/cmsis_gcc.h ****   #pragma GCC diagnostic pop
  92:Drivers/CMSIS/Include/cmsis_gcc.h ****   #define __UNALIGNED_UINT16_READ(addr)          (((const struct T_UINT16_READ *)(const void *)(add
  93:Drivers/CMSIS/Include/cmsis_gcc.h **** #endif
  94:Drivers/CMSIS/Include/cmsis_gcc.h **** #ifndef   __UNALIGNED_UINT32_WRITE
  95:Drivers/CMSIS/Include/cmsis_gcc.h ****   #pragma GCC diagnostic push
  96:Drivers/CMSIS/Include/cmsis_gcc.h ****   #pragma GCC diagnostic ignored "-Wpacked"
  97:Drivers/CMSIS/Include/cmsis_gcc.h ****   #pragma GCC diagnostic ignored "-Wattributes"
  98:Drivers/CMSIS/Include/cmsis_gcc.h ****   __PACKED_STRUCT T_UINT32_WRITE { uint32_t v; };
  99:Drivers/CMSIS/Include/cmsis_gcc.h ****   #pragma GCC diagnostic pop
 100:Drivers/CMSIS/Include/cmsis_gcc.h ****   #define __UNALIGNED_UINT32_WRITE(addr, val)    (void)((((struct T_UINT32_WRITE *)(void *)(addr))-
 101:Drivers/CMSIS/Include/cmsis_gcc.h **** #endif
 102:Drivers/CMSIS/Include/cmsis_gcc.h **** #ifndef   __UNALIGNED_UINT32_READ
 103:Drivers/CMSIS/Include/cmsis_gcc.h ****   #pragma GCC diagnostic push
 104:Drivers/CMSIS/Include/cmsis_gcc.h ****   #pragma GCC diagnostic ignored "-Wpacked"
 105:Drivers/CMSIS/Include/cmsis_gcc.h ****   #pragma GCC diagnostic ignored "-Wattributes"
 106:Drivers/CMSIS/Include/cmsis_gcc.h ****   __PACKED_STRUCT T_UINT32_READ { uint32_t v; };
 107:Drivers/CMSIS/Include/cmsis_gcc.h ****   #pragma GCC diagnostic pop
 108:Drivers/CMSIS/Include/cmsis_gcc.h ****   #define __UNALIGNED_UINT32_READ(addr)          (((const struct T_UINT32_READ *)(const void *)(add
 109:Drivers/CMSIS/Include/cmsis_gcc.h **** #endif
 110:Drivers/CMSIS/Include/cmsis_gcc.h **** #ifndef   __ALIGNED
 111:Drivers/CMSIS/Include/cmsis_gcc.h ****   #define __ALIGNED(x)                           __attribute__((aligned(x)))
 112:Drivers/CMSIS/Include/cmsis_gcc.h **** #endif
 113:Drivers/CMSIS/Include/cmsis_gcc.h **** #ifndef   __RESTRICT
 114:Drivers/CMSIS/Include/cmsis_gcc.h ****   #define __RESTRICT                             __restrict
 115:Drivers/CMSIS/Include/cmsis_gcc.h **** #endif
 116:Drivers/CMSIS/Include/cmsis_gcc.h **** 
 117:Drivers/CMSIS/Include/cmsis_gcc.h **** 
 118:Drivers/CMSIS/Include/cmsis_gcc.h **** /* ###########################  Core Function Access  ########################### */
 119:Drivers/CMSIS/Include/cmsis_gcc.h **** /** \ingroup  CMSIS_Core_FunctionInterface
 120:Drivers/CMSIS/Include/cmsis_gcc.h ****     \defgroup CMSIS_Core_RegAccFunctions CMSIS Core Register Access Functions
 121:Drivers/CMSIS/Include/cmsis_gcc.h ****   @{
 122:Drivers/CMSIS/Include/cmsis_gcc.h ****  */
 123:Drivers/CMSIS/Include/cmsis_gcc.h **** 
 124:Drivers/CMSIS/Include/cmsis_gcc.h **** /**
 125:Drivers/CMSIS/Include/cmsis_gcc.h ****   \brief   Enable IRQ Interrupts
 126:Drivers/CMSIS/Include/cmsis_gcc.h ****   \details Enables IRQ interrupts by clearing the I-bit in the CPSR.
 127:Drivers/CMSIS/Include/cmsis_gcc.h ****            Can only be executed in Privileged modes.
 128:Drivers/CMSIS/Include/cmsis_gcc.h ****  */
 129:Drivers/CMSIS/Include/cmsis_gcc.h **** __STATIC_FORCEINLINE void __enable_irq(void)
 130:Drivers/CMSIS/Include/cmsis_gcc.h **** {
 131:Drivers/CMSIS/Include/cmsis_gcc.h ****   __ASM volatile ("cpsie i" : : : "memory");
 132:Drivers/CMSIS/Include/cmsis_gcc.h **** }
 133:Drivers/CMSIS/Include/cmsis_gcc.h **** 
 134:Drivers/CMSIS/Include/cmsis_gcc.h **** 
 135:Drivers/CMSIS/Include/cmsis_gcc.h **** /**
 136:Drivers/CMSIS/Include/cmsis_gcc.h ****   \brief   Disable IRQ Interrupts
ARM GAS  C:\Users\master\AppData\Local\Temp\ccQ0Gq4w.s 			page 15


 137:Drivers/CMSIS/Include/cmsis_gcc.h ****   \details Disables IRQ interrupts by setting the I-bit in the CPSR.
 138:Drivers/CMSIS/Include/cmsis_gcc.h ****            Can only be executed in Privileged modes.
 139:Drivers/CMSIS/Include/cmsis_gcc.h ****  */
 140:Drivers/CMSIS/Include/cmsis_gcc.h **** __STATIC_FORCEINLINE void __disable_irq(void)
 141:Drivers/CMSIS/Include/cmsis_gcc.h **** {
 142:Drivers/CMSIS/Include/cmsis_gcc.h ****   __ASM volatile ("cpsid i" : : : "memory");
 320              		.loc 2 142 0
 321              		.syntax unified
 322              	@ 142 "Drivers/CMSIS/Include/cmsis_gcc.h" 1
 323 0000 72B6     		cpsid i
 324              	@ 0 "" 2
 325              		.thumb
 326              		.syntax unified
 327              	.L18:
 328 0002 FEE7     		b	.L18
 329              	.LBE10:
 330              	.LBE9:
 331              		.cfi_endproc
 332              	.LFE142:
 334              		.section	.text.MX_SPI1_Init,"ax",%progbits
 335              		.align	2
 336              		.thumb
 337              		.thumb_func
 339              	MX_SPI1_Init:
 340              	.LFB137:
 199:Core/Src/main.c **** 
 341              		.loc 1 199 0
 342              		.cfi_startproc
 343              		@ args = 0, pretend = 0, frame = 0
 344              		@ frame_needed = 0, uses_anonymous_args = 0
 345 0000 08B5     		push	{r3, lr}
 346              	.LCFI8:
 347              		.cfi_def_cfa_offset 8
 348              		.cfi_offset 3, -8
 349              		.cfi_offset 14, -4
 209:Core/Src/main.c ****   hspi1.Init.Mode = SPI_MODE_MASTER;
 350              		.loc 1 209 0
 351 0002 0D48     		ldr	r0, .L22
 352 0004 0D4B     		ldr	r3, .L22+4
 353 0006 0360     		str	r3, [r0]
 210:Core/Src/main.c ****   hspi1.Init.Direction = SPI_DIRECTION_2LINES;
 354              		.loc 1 210 0
 355 0008 4FF48273 		mov	r3, #260
 356 000c 4360     		str	r3, [r0, #4]
 211:Core/Src/main.c ****   hspi1.Init.DataSize = SPI_DATASIZE_8BIT;
 357              		.loc 1 211 0
 358 000e 0023     		movs	r3, #0
 359 0010 8360     		str	r3, [r0, #8]
 212:Core/Src/main.c ****   hspi1.Init.CLKPolarity = SPI_POLARITY_LOW;
 360              		.loc 1 212 0
 361 0012 C360     		str	r3, [r0, #12]
 213:Core/Src/main.c ****   hspi1.Init.CLKPhase = SPI_PHASE_1EDGE;
 362              		.loc 1 213 0
 363 0014 0361     		str	r3, [r0, #16]
 214:Core/Src/main.c ****   hspi1.Init.NSS = SPI_NSS_SOFT;
 364              		.loc 1 214 0
 365 0016 4361     		str	r3, [r0, #20]
ARM GAS  C:\Users\master\AppData\Local\Temp\ccQ0Gq4w.s 			page 16


 215:Core/Src/main.c ****   hspi1.Init.BaudRatePrescaler = SPI_BAUDRATEPRESCALER_2;
 366              		.loc 1 215 0
 367 0018 4FF40072 		mov	r2, #512
 368 001c 8261     		str	r2, [r0, #24]
 216:Core/Src/main.c ****   hspi1.Init.FirstBit = SPI_FIRSTBIT_MSB;
 369              		.loc 1 216 0
 370 001e C361     		str	r3, [r0, #28]
 217:Core/Src/main.c ****   hspi1.Init.TIMode = SPI_TIMODE_DISABLE;
 371              		.loc 1 217 0
 372 0020 0362     		str	r3, [r0, #32]
 218:Core/Src/main.c ****   hspi1.Init.CRCCalculation = SPI_CRCCALCULATION_DISABLE;
 373              		.loc 1 218 0
 374 0022 4362     		str	r3, [r0, #36]
 219:Core/Src/main.c ****   hspi1.Init.CRCPolynomial = 10;
 375              		.loc 1 219 0
 376 0024 8362     		str	r3, [r0, #40]
 220:Core/Src/main.c ****   if (HAL_SPI_Init(&hspi1) != HAL_OK)
 377              		.loc 1 220 0
 378 0026 0A23     		movs	r3, #10
 379 0028 C362     		str	r3, [r0, #44]
 221:Core/Src/main.c ****   {
 380              		.loc 1 221 0
 381 002a FFF7FEFF 		bl	HAL_SPI_Init
 382              	.LVL15:
 383 002e 08B1     		cbz	r0, .L19
 223:Core/Src/main.c ****   }
 384              		.loc 1 223 0
 385 0030 FFF7FEFF 		bl	Error_Handler
 386              	.LVL16:
 387              	.L19:
 388 0034 08BD     		pop	{r3, pc}
 389              	.L23:
 390 0036 00BF     		.align	2
 391              	.L22:
 392 0038 00000000 		.word	hspi1
 393 003c 00300140 		.word	1073819648
 394              		.cfi_endproc
 395              	.LFE137:
 397              		.section	.text.SystemClock_Config,"ax",%progbits
 398              		.align	2
 399              		.global	SystemClock_Config
 400              		.thumb
 401              		.thumb_func
 403              	SystemClock_Config:
 404              	.LFB136:
 155:Core/Src/main.c ****   RCC_OscInitTypeDef RCC_OscInitStruct = {0};
 405              		.loc 1 155 0
 406              		.cfi_startproc
 407              		@ args = 0, pretend = 0, frame = 80
 408              		@ frame_needed = 0, uses_anonymous_args = 0
 409 0000 00B5     		push	{lr}
 410              	.LCFI9:
 411              		.cfi_def_cfa_offset 4
 412              		.cfi_offset 14, -4
 413 0002 95B0     		sub	sp, sp, #84
 414              	.LCFI10:
 415              		.cfi_def_cfa_offset 88
ARM GAS  C:\Users\master\AppData\Local\Temp\ccQ0Gq4w.s 			page 17


 156:Core/Src/main.c ****   RCC_ClkInitTypeDef RCC_ClkInitStruct = {0};
 416              		.loc 1 156 0
 417 0004 3022     		movs	r2, #48
 418 0006 0021     		movs	r1, #0
 419 0008 08A8     		add	r0, sp, #32
 420 000a FFF7FEFF 		bl	memset
 421              	.LVL17:
 157:Core/Src/main.c **** 
 422              		.loc 1 157 0
 423 000e 0023     		movs	r3, #0
 424 0010 0393     		str	r3, [sp, #12]
 425 0012 0493     		str	r3, [sp, #16]
 426 0014 0593     		str	r3, [sp, #20]
 427 0016 0693     		str	r3, [sp, #24]
 428 0018 0793     		str	r3, [sp, #28]
 429              	.LBB11:
 161:Core/Src/main.c ****   __HAL_PWR_VOLTAGESCALING_CONFIG(PWR_REGULATOR_VOLTAGE_SCALE2);
 430              		.loc 1 161 0
 431 001a 0193     		str	r3, [sp, #4]
 432 001c 204A     		ldr	r2, .L28
 433 001e 116C     		ldr	r1, [r2, #64]
 434 0020 41F08051 		orr	r1, r1, #268435456
 435 0024 1164     		str	r1, [r2, #64]
 436 0026 126C     		ldr	r2, [r2, #64]
 437 0028 02F08052 		and	r2, r2, #268435456
 438 002c 0192     		str	r2, [sp, #4]
 439 002e 019A     		ldr	r2, [sp, #4]
 440              	.LBE11:
 441              	.LBB12:
 162:Core/Src/main.c ****   /** Initializes the RCC Oscillators according to the specified parameters
 442              		.loc 1 162 0
 443 0030 0293     		str	r3, [sp, #8]
 444 0032 1C4A     		ldr	r2, .L28+4
 445 0034 1368     		ldr	r3, [r2]
 446 0036 23F44043 		bic	r3, r3, #49152
 447 003a 43F40043 		orr	r3, r3, #32768
 448 003e 1360     		str	r3, [r2]
 449 0040 1368     		ldr	r3, [r2]
 450 0042 03F44043 		and	r3, r3, #49152
 451 0046 0293     		str	r3, [sp, #8]
 452 0048 029B     		ldr	r3, [sp, #8]
 453              	.LBE12:
 166:Core/Src/main.c ****   RCC_OscInitStruct.HSEState = RCC_HSE_ON;
 454              		.loc 1 166 0
 455 004a 0123     		movs	r3, #1
 456 004c 0893     		str	r3, [sp, #32]
 167:Core/Src/main.c ****   RCC_OscInitStruct.PLL.PLLState = RCC_PLL_ON;
 457              		.loc 1 167 0
 458 004e 4FF48033 		mov	r3, #65536
 459 0052 0993     		str	r3, [sp, #36]
 168:Core/Src/main.c ****   RCC_OscInitStruct.PLL.PLLSource = RCC_PLLSOURCE_HSE;
 460              		.loc 1 168 0
 461 0054 0223     		movs	r3, #2
 462 0056 0E93     		str	r3, [sp, #56]
 169:Core/Src/main.c ****   RCC_OscInitStruct.PLL.PLLM = 25;
 463              		.loc 1 169 0
 464 0058 4FF48002 		mov	r2, #4194304
ARM GAS  C:\Users\master\AppData\Local\Temp\ccQ0Gq4w.s 			page 18


 465 005c 0F92     		str	r2, [sp, #60]
 170:Core/Src/main.c ****   RCC_OscInitStruct.PLL.PLLN = 168;
 466              		.loc 1 170 0
 467 005e 1922     		movs	r2, #25
 468 0060 1092     		str	r2, [sp, #64]
 171:Core/Src/main.c ****   RCC_OscInitStruct.PLL.PLLP = RCC_PLLP_DIV2;
 469              		.loc 1 171 0
 470 0062 A822     		movs	r2, #168
 471 0064 1192     		str	r2, [sp, #68]
 172:Core/Src/main.c ****   RCC_OscInitStruct.PLL.PLLQ = 4;
 472              		.loc 1 172 0
 473 0066 1293     		str	r3, [sp, #72]
 173:Core/Src/main.c ****   if (HAL_RCC_OscConfig(&RCC_OscInitStruct) != HAL_OK)
 474              		.loc 1 173 0
 475 0068 0423     		movs	r3, #4
 476 006a 1393     		str	r3, [sp, #76]
 174:Core/Src/main.c ****   {
 477              		.loc 1 174 0
 478 006c 08A8     		add	r0, sp, #32
 479 006e FFF7FEFF 		bl	HAL_RCC_OscConfig
 480              	.LVL18:
 481 0072 08B1     		cbz	r0, .L25
 176:Core/Src/main.c ****   }
 482              		.loc 1 176 0
 483 0074 FFF7FEFF 		bl	Error_Handler
 484              	.LVL19:
 485              	.L25:
 180:Core/Src/main.c ****                               |RCC_CLOCKTYPE_PCLK1|RCC_CLOCKTYPE_PCLK2;
 486              		.loc 1 180 0
 487 0078 0F23     		movs	r3, #15
 488 007a 0393     		str	r3, [sp, #12]
 182:Core/Src/main.c ****   RCC_ClkInitStruct.AHBCLKDivider = RCC_SYSCLK_DIV1;
 489              		.loc 1 182 0
 490 007c 0221     		movs	r1, #2
 491 007e 0491     		str	r1, [sp, #16]
 183:Core/Src/main.c ****   RCC_ClkInitStruct.APB1CLKDivider = RCC_HCLK_DIV2;
 492              		.loc 1 183 0
 493 0080 0023     		movs	r3, #0
 494 0082 0593     		str	r3, [sp, #20]
 184:Core/Src/main.c ****   RCC_ClkInitStruct.APB2CLKDivider = RCC_HCLK_DIV1;
 495              		.loc 1 184 0
 496 0084 4FF48052 		mov	r2, #4096
 497 0088 0692     		str	r2, [sp, #24]
 185:Core/Src/main.c **** 
 498              		.loc 1 185 0
 499 008a 0793     		str	r3, [sp, #28]
 187:Core/Src/main.c ****   {
 500              		.loc 1 187 0
 501 008c 03A8     		add	r0, sp, #12
 502 008e FFF7FEFF 		bl	HAL_RCC_ClockConfig
 503              	.LVL20:
 504 0092 08B1     		cbz	r0, .L24
 189:Core/Src/main.c ****   }
 505              		.loc 1 189 0
 506 0094 FFF7FEFF 		bl	Error_Handler
 507              	.LVL21:
 508              	.L24:
ARM GAS  C:\Users\master\AppData\Local\Temp\ccQ0Gq4w.s 			page 19


 191:Core/Src/main.c **** 
 509              		.loc 1 191 0
 510 0098 15B0     		add	sp, sp, #84
 511              	.LCFI11:
 512              		.cfi_def_cfa_offset 4
 513              		@ sp needed
 514 009a 5DF804FB 		ldr	pc, [sp], #4
 515              	.L29:
 516 009e 00BF     		.align	2
 517              	.L28:
 518 00a0 00380240 		.word	1073887232
 519 00a4 00700040 		.word	1073770496
 520              		.cfi_endproc
 521              	.LFE136:
 523              		.section	.text.main,"ax",%progbits
 524              		.align	2
 525              		.global	main
 526              		.thumb
 527              		.thumb_func
 529              	main:
 530              	.LFB135:
  74:Core/Src/main.c ****   /* USER CODE BEGIN 1 */
 531              		.loc 1 74 0
 532              		.cfi_startproc
 533              		@ args = 0, pretend = 0, frame = 40
 534              		@ frame_needed = 0, uses_anonymous_args = 0
 535 0000 70B5     		push	{r4, r5, r6, lr}
 536              	.LCFI12:
 537              		.cfi_def_cfa_offset 16
 538              		.cfi_offset 4, -16
 539              		.cfi_offset 5, -12
 540              		.cfi_offset 6, -8
 541              		.cfi_offset 14, -4
 542 0002 8AB0     		sub	sp, sp, #40
 543              	.LCFI13:
 544              		.cfi_def_cfa_offset 56
  82:Core/Src/main.c **** 
 545              		.loc 1 82 0
 546 0004 FFF7FEFF 		bl	HAL_Init
 547              	.LVL22:
  89:Core/Src/main.c **** 
 548              		.loc 1 89 0
 549 0008 FFF7FEFF 		bl	SystemClock_Config
 550              	.LVL23:
  96:Core/Src/main.c ****   MX_SPI1_Init();
 551              		.loc 1 96 0
 552 000c FFF7FEFF 		bl	MX_GPIO_Init
 553              	.LVL24:
  97:Core/Src/main.c ****   MX_DMA_Init();
 554              		.loc 1 97 0
 555 0010 FFF7FEFF 		bl	MX_SPI1_Init
 556              	.LVL25:
  98:Core/Src/main.c ****   /* USER CODE BEGIN 2 */
 557              		.loc 1 98 0
 558 0014 FFF7FEFF 		bl	MX_DMA_Init
 559              	.LVL26:
 105:Core/Src/main.c ****   myMutex01Handle = osMutexCreate(osMutex(myMutex01));
ARM GAS  C:\Users\master\AppData\Local\Temp\ccQ0Gq4w.s 			page 20


 560              		.loc 1 105 0
 561 0018 0026     		movs	r6, #0
 562 001a 0896     		str	r6, [sp, #32]
 563 001c 0996     		str	r6, [sp, #36]
 106:Core/Src/main.c **** 
 564              		.loc 1 106 0
 565 001e 08A8     		add	r0, sp, #32
 566 0020 FFF7FEFF 		bl	osMutexCreate
 567              	.LVL27:
 568 0024 094B     		ldr	r3, .L33
 569 0026 1860     		str	r0, [r3]
 126:Core/Src/main.c ****   MainTaskHandle = osThreadCreate(osThread(MainTask), NULL);
 570              		.loc 1 126 0
 571 0028 01AC     		add	r4, sp, #4
 572 002a 094D     		ldr	r5, .L33+4
 573 002c 0FCD     		ldmia	r5!, {r0, r1, r2, r3}
 574 002e 0FC4     		stmia	r4!, {r0, r1, r2, r3}
 575 0030 95E80700 		ldmia	r5, {r0, r1, r2}
 576 0034 84E80700 		stmia	r4, {r0, r1, r2}
 127:Core/Src/main.c **** 
 577              		.loc 1 127 0
 578 0038 3146     		mov	r1, r6
 579 003a 01A8     		add	r0, sp, #4
 580 003c FFF7FEFF 		bl	osThreadCreate
 581              	.LVL28:
 582 0040 044B     		ldr	r3, .L33+8
 583 0042 1860     		str	r0, [r3]
 134:Core/Src/main.c **** 
 584              		.loc 1 134 0
 585 0044 FFF7FEFF 		bl	osKernelStart
 586              	.LVL29:
 587              	.L31:
 588 0048 FEE7     		b	.L31
 589              	.L34:
 590 004a 00BF     		.align	2
 591              	.L33:
 592 004c 00000000 		.word	myMutex01Handle
 593 0050 00000000 		.word	.LANCHOR0
 594 0054 00000000 		.word	MainTaskHandle
 595              		.cfi_endproc
 596              	.LFE135:
 598              		.comm	myMutex01Handle,4,4
 599              		.comm	MainTaskHandle,4,4
 600              		.comm	hdma_spi1_tx,96,4
 601              		.comm	hspi1,88,4
 602              		.section	.rodata
 603              		.align	2
 604              		.set	.LANCHOR0,. + 0
 605              	.LC2:
 606 0000 00000000 		.word	.LC0
 607 0004 00000000 		.word	StartMainTask
 608 0008 0000     		.short	0
 609 000a 0000     		.space	2
 610 000c 00000000 		.word	0
 611 0010 80000000 		.word	128
 612 0014 00000000 		.word	0
 613 0018 00000000 		.word	0
ARM GAS  C:\Users\master\AppData\Local\Temp\ccQ0Gq4w.s 			page 21


 614              		.section	.rodata.str1.4,"aMS",%progbits,1
 615              		.align	2
 616              	.LC0:
 617 0000 4D61696E 		.ascii	"MainTask\000"
 617      5461736B 
 617      00
 618              		.text
 619              	.Letext0:
 620              		.file 3 "c:\\program files (x86)\\gnu tools arm embedded\\5.4 2016q3\\arm-none-eabi\\include\\mach
 621              		.file 4 "c:\\program files (x86)\\gnu tools arm embedded\\5.4 2016q3\\arm-none-eabi\\include\\sys\
 622              		.file 5 "Drivers/CMSIS/Device/ST/STM32F4xx/Include/stm32f401xc.h"
 623              		.file 6 "Drivers/STM32F4xx_HAL_Driver/Inc/stm32f4xx_hal_def.h"
 624              		.file 7 "Drivers/STM32F4xx_HAL_Driver/Inc/stm32f4xx_hal_rcc_ex.h"
 625              		.file 8 "Drivers/STM32F4xx_HAL_Driver/Inc/stm32f4xx_hal_rcc.h"
 626              		.file 9 "Drivers/STM32F4xx_HAL_Driver/Inc/stm32f4xx_hal_gpio.h"
 627              		.file 10 "Drivers/STM32F4xx_HAL_Driver/Inc/stm32f4xx_hal_dma.h"
 628              		.file 11 "Drivers/STM32F4xx_HAL_Driver/Inc/stm32f4xx_hal_spi.h"
 629              		.file 12 "Drivers/STM32F4xx_HAL_Driver/Inc/stm32f4xx_hal_tim.h"
 630              		.file 13 "Middlewares/Third_Party/FreeRTOS/Source/portable/GCC/ARM_CM4F/portmacro.h"
 631              		.file 14 "Middlewares/Third_Party/FreeRTOS/Source/include/FreeRTOS.h"
 632              		.file 15 "Middlewares/Third_Party/FreeRTOS/Source/include/task.h"
 633              		.file 16 "Middlewares/Third_Party/FreeRTOS/Source/include/queue.h"
 634              		.file 17 "Middlewares/Third_Party/FreeRTOS/Source/include/semphr.h"
 635              		.file 18 "Middlewares/Third_Party/FreeRTOS/Source/CMSIS_RTOS/cmsis_os.h"
 636              		.file 19 "Drivers/CMSIS/Include/core_cm4.h"
 637              		.file 20 "Drivers/STM32F4xx_HAL_Driver/Inc/stm32f4xx_hal_cortex.h"
 638              		.file 21 "Core/Inc/mysetp.h"
 639              		.file 22 "Drivers/STM32F4xx_HAL_Driver/Inc/stm32f4xx_hal.h"
ARM GAS  C:\Users\master\AppData\Local\Temp\ccQ0Gq4w.s 			page 22

