ARM GAS  C:\Users\master\AppData\Local\Temp\ccBp5aG4.s 			page 1


   1              		.syntax unified
   2              		.cpu cortex-m4
   3              		.eabi_attribute 27, 1
   4              		.eabi_attribute 28, 1
   5              		.fpu fpv4-sp-d16
   6              		.eabi_attribute 20, 1
   7              		.eabi_attribute 21, 1
   8              		.eabi_attribute 23, 3
   9              		.eabi_attribute 24, 1
  10              		.eabi_attribute 25, 1
  11              		.eabi_attribute 26, 1
  12              		.eabi_attribute 30, 1
  13              		.eabi_attribute 34, 1
  14              		.eabi_attribute 18, 4
  15              		.thumb
  16              		.syntax unified
  17              		.file	"mysetp.c"
  18              		.text
  19              	.Ltext0:
  20              		.cfi_sections	.debug_frame
  21              		.section	.text.setp,"ax",%progbits
  22              		.align	2
  23              		.global	setp
  24              		.thumb
  25              		.thumb_func
  27              	setp:
  28              	.LFB130:
  29              		.file 1 "Core/Src/mysetp.c"
   1:Core/Src/mysetp.c **** #include "mysetp.h"
   2:Core/Src/mysetp.c **** u8g2_t u8g2;
   3:Core/Src/mysetp.c **** void setp(){
  30              		.loc 1 3 0
  31              		.cfi_startproc
  32              		@ Volatile: function does not return.
  33              		@ args = 0, pretend = 0, frame = 0
  34              		@ frame_needed = 0, uses_anonymous_args = 0
  35 0000 00B5     		push	{lr}
  36              	.LCFI0:
  37              		.cfi_def_cfa_offset 4
  38              		.cfi_offset 14, -4
  39 0002 83B0     		sub	sp, sp, #12
  40              	.LCFI1:
  41              		.cfi_def_cfa_offset 16
   4:Core/Src/mysetp.c ****     HAL_Delay(100);
  42              		.loc 1 4 0
  43 0004 6420     		movs	r0, #100
  44 0006 FFF7FEFF 		bl	HAL_Delay
  45              	.LVL0:
   5:Core/Src/mysetp.c ****     u8g2Init(&u8g2);
  46              		.loc 1 5 0
  47 000a 114C     		ldr	r4, .L4
  48 000c 2046     		mov	r0, r4
  49 000e FFF7FEFF 		bl	u8g2Init
  50              	.LVL1:
   6:Core/Src/mysetp.c ****     u8g2_SetFont(&u8g2, u8g2_font_6x13_tr);
  51              		.loc 1 6 0
  52 0012 1049     		ldr	r1, .L4+4
ARM GAS  C:\Users\master\AppData\Local\Temp\ccBp5aG4.s 			page 2


  53 0014 2046     		mov	r0, r4
  54 0016 FFF7FEFF 		bl	u8g2_SetFont
  55              	.LVL2:
  56              	.L2:
   7:Core/Src/mysetp.c ****     while (1)
   8:Core/Src/mysetp.c ****     {
   9:Core/Src/mysetp.c **** 
  10:Core/Src/mysetp.c ****         
  11:Core/Src/mysetp.c ****         u8g2_DrawStr(&u8g2,0,10,"Volt:10V");
  57              		.loc 1 11 0 discriminator 1
  58 001a 0D4C     		ldr	r4, .L4
  59 001c 0E4B     		ldr	r3, .L4+8
  60 001e 0A22     		movs	r2, #10
  61 0020 0021     		movs	r1, #0
  62 0022 2046     		mov	r0, r4
  63 0024 FFF7FEFF 		bl	u8g2_DrawStr
  64              	.LVL3:
  12:Core/Src/mysetp.c ****         u8g2_DrawLine(&u8g2,10,60,118,60);
  65              		.loc 1 12 0 discriminator 1
  66 0028 3C25     		movs	r5, #60
  67 002a 0095     		str	r5, [sp]
  68 002c 7623     		movs	r3, #118
  69 002e 2A46     		mov	r2, r5
  70 0030 0A21     		movs	r1, #10
  71 0032 2046     		mov	r0, r4
  72 0034 FFF7FEFF 		bl	u8g2_DrawLine
  73              	.LVL4:
  13:Core/Src/mysetp.c ****         u8g2_DrawLine(&u8g2,10,20,10,60);
  74              		.loc 1 13 0 discriminator 1
  75 0038 0095     		str	r5, [sp]
  76 003a 0A23     		movs	r3, #10
  77 003c 1422     		movs	r2, #20
  78 003e 1946     		mov	r1, r3
  79 0040 2046     		mov	r0, r4
  80 0042 FFF7FEFF 		bl	u8g2_DrawLine
  81              	.LVL5:
  14:Core/Src/mysetp.c ****         u8g2_SendBuffer(&u8g2);
  82              		.loc 1 14 0 discriminator 1
  83 0046 2046     		mov	r0, r4
  84 0048 FFF7FEFF 		bl	u8g2_SendBuffer
  85              	.LVL6:
  86 004c E5E7     		b	.L2
  87              	.L5:
  88 004e 00BF     		.align	2
  89              	.L4:
  90 0050 00000000 		.word	u8g2
  91 0054 00000000 		.word	u8g2_font_6x13_tr
  92 0058 00000000 		.word	.LC0
  93              		.cfi_endproc
  94              	.LFE130:
  96              		.comm	u8g2,148,4
  97              		.section	.rodata.str1.4,"aMS",%progbits,1
  98              		.align	2
  99              	.LC0:
 100 0000 566F6C74 		.ascii	"Volt:10V\000"
 100      3A313056 
 100      00
ARM GAS  C:\Users\master\AppData\Local\Temp\ccBp5aG4.s 			page 3


 101              		.text
 102              	.Letext0:
 103              		.file 2 "c:\\program files (x86)\\gnu tools arm embedded\\5.4 2016q3\\arm-none-eabi\\include\\mach
 104              		.file 3 "c:\\program files (x86)\\gnu tools arm embedded\\5.4 2016q3\\arm-none-eabi\\include\\sys\
 105              		.file 4 "u8g2_lib/u8x8.h"
 106              		.file 5 "u8g2_lib/u8g2.h"
 107              		.file 6 "Drivers/CMSIS/Include/core_cm4.h"
 108              		.file 7 "Drivers/STM32F4xx_HAL_Driver/Inc/stm32f4xx_hal.h"
 109              		.file 8 "u8g2_lib/u8g2_com_stm32_hw_i2c_hal.h"
ARM GAS  C:\Users\master\AppData\Local\Temp\ccBp5aG4.s 			page 4


DEFINED SYMBOLS
                            *ABS*:00000000 mysetp.c
C:\Users\master\AppData\Local\Temp\ccBp5aG4.s:22     .text.setp:00000000 $t
C:\Users\master\AppData\Local\Temp\ccBp5aG4.s:27     .text.setp:00000000 setp
C:\Users\master\AppData\Local\Temp\ccBp5aG4.s:90     .text.setp:00000050 $d
                            *COM*:00000094 u8g2
C:\Users\master\AppData\Local\Temp\ccBp5aG4.s:98     .rodata.str1.4:00000000 $d
                     .debug_frame:00000010 $d

UNDEFINED SYMBOLS
HAL_Delay
u8g2Init
u8g2_SetFont
u8g2_DrawStr
u8g2_DrawLine
u8g2_SendBuffer
u8g2_font_6x13_tr
