ARM GAS  C:\Users\master\AppData\Local\Temp\cc18t5vb.s 			page 1


   1              		.syntax unified
   2              		.cpu cortex-m4
   3              		.eabi_attribute 27, 1
   4              		.eabi_attribute 28, 1
   5              		.fpu fpv4-sp-d16
   6              		.eabi_attribute 20, 1
   7              		.eabi_attribute 21, 1
   8              		.eabi_attribute 23, 3
   9              		.eabi_attribute 24, 1
  10              		.eabi_attribute 25, 1
  11              		.eabi_attribute 26, 1
  12              		.eabi_attribute 30, 1
  13              		.eabi_attribute 34, 1
  14              		.eabi_attribute 18, 4
  15              		.thumb
  16              		.syntax unified
  17              		.file	"stm32f4xx_hal_msp.c"
  18              		.text
  19              	.Ltext0:
  20              		.cfi_sections	.debug_frame
  21              		.section	.text.HAL_MspInit,"ax",%progbits
  22              		.align	2
  23              		.global	HAL_MspInit
  24              		.thumb
  25              		.thumb_func
  27              	HAL_MspInit:
  28              	.LFB130:
  29              		.file 1 "Core/Src/stm32f4xx_hal_msp.c"
   1:Core/Src/stm32f4xx_hal_msp.c **** /* USER CODE BEGIN Header */
   2:Core/Src/stm32f4xx_hal_msp.c **** /**
   3:Core/Src/stm32f4xx_hal_msp.c ****   ******************************************************************************
   4:Core/Src/stm32f4xx_hal_msp.c ****   * @file         stm32f4xx_hal_msp.c
   5:Core/Src/stm32f4xx_hal_msp.c ****   * @brief        This file provides code for the MSP Initialization
   6:Core/Src/stm32f4xx_hal_msp.c ****   *               and de-Initialization codes.
   7:Core/Src/stm32f4xx_hal_msp.c ****   ******************************************************************************
   8:Core/Src/stm32f4xx_hal_msp.c ****   * @attention
   9:Core/Src/stm32f4xx_hal_msp.c ****   *
  10:Core/Src/stm32f4xx_hal_msp.c ****   * <h2><center>&copy; Copyright (c) 2021 STMicroelectronics.
  11:Core/Src/stm32f4xx_hal_msp.c ****   * All rights reserved.</center></h2>
  12:Core/Src/stm32f4xx_hal_msp.c ****   *
  13:Core/Src/stm32f4xx_hal_msp.c ****   * This software component is licensed by ST under BSD 3-Clause license,
  14:Core/Src/stm32f4xx_hal_msp.c ****   * the "License"; You may not use this file except in compliance with the
  15:Core/Src/stm32f4xx_hal_msp.c ****   * License. You may obtain a copy of the License at:
  16:Core/Src/stm32f4xx_hal_msp.c ****   *                        opensource.org/licenses/BSD-3-Clause
  17:Core/Src/stm32f4xx_hal_msp.c ****   *
  18:Core/Src/stm32f4xx_hal_msp.c ****   ******************************************************************************
  19:Core/Src/stm32f4xx_hal_msp.c ****   */
  20:Core/Src/stm32f4xx_hal_msp.c **** /* USER CODE END Header */
  21:Core/Src/stm32f4xx_hal_msp.c **** 
  22:Core/Src/stm32f4xx_hal_msp.c **** /* Includes ------------------------------------------------------------------*/
  23:Core/Src/stm32f4xx_hal_msp.c **** #include "main.h"
  24:Core/Src/stm32f4xx_hal_msp.c **** /* USER CODE BEGIN Includes */
  25:Core/Src/stm32f4xx_hal_msp.c **** 
  26:Core/Src/stm32f4xx_hal_msp.c **** /* USER CODE END Includes */
  27:Core/Src/stm32f4xx_hal_msp.c **** extern DMA_HandleTypeDef hdma_spi1_tx;
  28:Core/Src/stm32f4xx_hal_msp.c **** 
  29:Core/Src/stm32f4xx_hal_msp.c **** /* Private typedef -----------------------------------------------------------*/
ARM GAS  C:\Users\master\AppData\Local\Temp\cc18t5vb.s 			page 2


  30:Core/Src/stm32f4xx_hal_msp.c **** /* USER CODE BEGIN TD */
  31:Core/Src/stm32f4xx_hal_msp.c **** 
  32:Core/Src/stm32f4xx_hal_msp.c **** /* USER CODE END TD */
  33:Core/Src/stm32f4xx_hal_msp.c **** 
  34:Core/Src/stm32f4xx_hal_msp.c **** /* Private define ------------------------------------------------------------*/
  35:Core/Src/stm32f4xx_hal_msp.c **** /* USER CODE BEGIN Define */
  36:Core/Src/stm32f4xx_hal_msp.c **** 
  37:Core/Src/stm32f4xx_hal_msp.c **** /* USER CODE END Define */
  38:Core/Src/stm32f4xx_hal_msp.c **** 
  39:Core/Src/stm32f4xx_hal_msp.c **** /* Private macro -------------------------------------------------------------*/
  40:Core/Src/stm32f4xx_hal_msp.c **** /* USER CODE BEGIN Macro */
  41:Core/Src/stm32f4xx_hal_msp.c **** 
  42:Core/Src/stm32f4xx_hal_msp.c **** /* USER CODE END Macro */
  43:Core/Src/stm32f4xx_hal_msp.c **** 
  44:Core/Src/stm32f4xx_hal_msp.c **** /* Private variables ---------------------------------------------------------*/
  45:Core/Src/stm32f4xx_hal_msp.c **** /* USER CODE BEGIN PV */
  46:Core/Src/stm32f4xx_hal_msp.c **** 
  47:Core/Src/stm32f4xx_hal_msp.c **** /* USER CODE END PV */
  48:Core/Src/stm32f4xx_hal_msp.c **** 
  49:Core/Src/stm32f4xx_hal_msp.c **** /* Private function prototypes -----------------------------------------------*/
  50:Core/Src/stm32f4xx_hal_msp.c **** /* USER CODE BEGIN PFP */
  51:Core/Src/stm32f4xx_hal_msp.c **** 
  52:Core/Src/stm32f4xx_hal_msp.c **** /* USER CODE END PFP */
  53:Core/Src/stm32f4xx_hal_msp.c **** 
  54:Core/Src/stm32f4xx_hal_msp.c **** /* External functions --------------------------------------------------------*/
  55:Core/Src/stm32f4xx_hal_msp.c **** /* USER CODE BEGIN ExternalFunctions */
  56:Core/Src/stm32f4xx_hal_msp.c **** 
  57:Core/Src/stm32f4xx_hal_msp.c **** /* USER CODE END ExternalFunctions */
  58:Core/Src/stm32f4xx_hal_msp.c **** 
  59:Core/Src/stm32f4xx_hal_msp.c **** /* USER CODE BEGIN 0 */
  60:Core/Src/stm32f4xx_hal_msp.c **** 
  61:Core/Src/stm32f4xx_hal_msp.c **** /* USER CODE END 0 */
  62:Core/Src/stm32f4xx_hal_msp.c **** /**
  63:Core/Src/stm32f4xx_hal_msp.c ****   * Initializes the Global MSP.
  64:Core/Src/stm32f4xx_hal_msp.c ****   */
  65:Core/Src/stm32f4xx_hal_msp.c **** void HAL_MspInit(void)
  66:Core/Src/stm32f4xx_hal_msp.c **** {
  30              		.loc 1 66 0
  31              		.cfi_startproc
  32              		@ args = 0, pretend = 0, frame = 8
  33              		@ frame_needed = 0, uses_anonymous_args = 0
  34 0000 00B5     		push	{lr}
  35              	.LCFI0:
  36              		.cfi_def_cfa_offset 4
  37              		.cfi_offset 14, -4
  38 0002 83B0     		sub	sp, sp, #12
  39              	.LCFI1:
  40              		.cfi_def_cfa_offset 16
  41              	.LBB2:
  67:Core/Src/stm32f4xx_hal_msp.c ****   /* USER CODE BEGIN MspInit 0 */
  68:Core/Src/stm32f4xx_hal_msp.c **** 
  69:Core/Src/stm32f4xx_hal_msp.c ****   /* USER CODE END MspInit 0 */
  70:Core/Src/stm32f4xx_hal_msp.c **** 
  71:Core/Src/stm32f4xx_hal_msp.c ****   __HAL_RCC_SYSCFG_CLK_ENABLE();
  42              		.loc 1 71 0
  43 0004 0022     		movs	r2, #0
  44 0006 0092     		str	r2, [sp]
ARM GAS  C:\Users\master\AppData\Local\Temp\cc18t5vb.s 			page 3


  45 0008 0D4B     		ldr	r3, .L3
  46 000a 596C     		ldr	r1, [r3, #68]
  47 000c 41F48041 		orr	r1, r1, #16384
  48 0010 5964     		str	r1, [r3, #68]
  49 0012 596C     		ldr	r1, [r3, #68]
  50 0014 01F48041 		and	r1, r1, #16384
  51 0018 0091     		str	r1, [sp]
  52 001a 0099     		ldr	r1, [sp]
  53              	.LBE2:
  54              	.LBB3:
  72:Core/Src/stm32f4xx_hal_msp.c ****   __HAL_RCC_PWR_CLK_ENABLE();
  55              		.loc 1 72 0
  56 001c 0192     		str	r2, [sp, #4]
  57 001e 196C     		ldr	r1, [r3, #64]
  58 0020 41F08051 		orr	r1, r1, #268435456
  59 0024 1964     		str	r1, [r3, #64]
  60 0026 1B6C     		ldr	r3, [r3, #64]
  61 0028 03F08053 		and	r3, r3, #268435456
  62 002c 0193     		str	r3, [sp, #4]
  63 002e 019B     		ldr	r3, [sp, #4]
  64              	.LBE3:
  73:Core/Src/stm32f4xx_hal_msp.c **** 
  74:Core/Src/stm32f4xx_hal_msp.c ****   /* System interrupt init*/
  75:Core/Src/stm32f4xx_hal_msp.c ****   /* PendSV_IRQn interrupt configuration */
  76:Core/Src/stm32f4xx_hal_msp.c ****   HAL_NVIC_SetPriority(PendSV_IRQn, 15, 0);
  65              		.loc 1 76 0
  66 0030 0F21     		movs	r1, #15
  67 0032 6FF00100 		mvn	r0, #1
  68 0036 FFF7FEFF 		bl	HAL_NVIC_SetPriority
  69              	.LVL0:
  77:Core/Src/stm32f4xx_hal_msp.c **** 
  78:Core/Src/stm32f4xx_hal_msp.c ****   /* USER CODE BEGIN MspInit 1 */
  79:Core/Src/stm32f4xx_hal_msp.c **** 
  80:Core/Src/stm32f4xx_hal_msp.c ****   /* USER CODE END MspInit 1 */
  81:Core/Src/stm32f4xx_hal_msp.c **** }
  70              		.loc 1 81 0
  71 003a 03B0     		add	sp, sp, #12
  72              	.LCFI2:
  73              		.cfi_def_cfa_offset 4
  74              		@ sp needed
  75 003c 5DF804FB 		ldr	pc, [sp], #4
  76              	.L4:
  77              		.align	2
  78              	.L3:
  79 0040 00380240 		.word	1073887232
  80              		.cfi_endproc
  81              	.LFE130:
  83              		.section	.text.HAL_SPI_MspInit,"ax",%progbits
  84              		.align	2
  85              		.global	HAL_SPI_MspInit
  86              		.thumb
  87              		.thumb_func
  89              	HAL_SPI_MspInit:
  90              	.LFB131:
  82:Core/Src/stm32f4xx_hal_msp.c **** 
  83:Core/Src/stm32f4xx_hal_msp.c **** /**
  84:Core/Src/stm32f4xx_hal_msp.c **** * @brief SPI MSP Initialization
ARM GAS  C:\Users\master\AppData\Local\Temp\cc18t5vb.s 			page 4


  85:Core/Src/stm32f4xx_hal_msp.c **** * This function configures the hardware resources used in this example
  86:Core/Src/stm32f4xx_hal_msp.c **** * @param hspi: SPI handle pointer
  87:Core/Src/stm32f4xx_hal_msp.c **** * @retval None
  88:Core/Src/stm32f4xx_hal_msp.c **** */
  89:Core/Src/stm32f4xx_hal_msp.c **** void HAL_SPI_MspInit(SPI_HandleTypeDef* hspi)
  90:Core/Src/stm32f4xx_hal_msp.c **** {
  91              		.loc 1 90 0
  92              		.cfi_startproc
  93              		@ args = 0, pretend = 0, frame = 32
  94              		@ frame_needed = 0, uses_anonymous_args = 0
  95              	.LVL1:
  96 0000 30B5     		push	{r4, r5, lr}
  97              	.LCFI3:
  98              		.cfi_def_cfa_offset 12
  99              		.cfi_offset 4, -12
 100              		.cfi_offset 5, -8
 101              		.cfi_offset 14, -4
 102 0002 89B0     		sub	sp, sp, #36
 103              	.LCFI4:
 104              		.cfi_def_cfa_offset 48
  91:Core/Src/stm32f4xx_hal_msp.c ****   GPIO_InitTypeDef GPIO_InitStruct = {0};
 105              		.loc 1 91 0
 106 0004 0023     		movs	r3, #0
 107 0006 0393     		str	r3, [sp, #12]
 108 0008 0493     		str	r3, [sp, #16]
 109 000a 0593     		str	r3, [sp, #20]
 110 000c 0693     		str	r3, [sp, #24]
 111 000e 0793     		str	r3, [sp, #28]
  92:Core/Src/stm32f4xx_hal_msp.c ****   if(hspi->Instance==SPI1)
 112              		.loc 1 92 0
 113 0010 0268     		ldr	r2, [r0]
 114 0012 264B     		ldr	r3, .L9
 115 0014 9A42     		cmp	r2, r3
 116 0016 46D1     		bne	.L5
 117 0018 0446     		mov	r4, r0
 118              	.LBB4:
  93:Core/Src/stm32f4xx_hal_msp.c ****   {
  94:Core/Src/stm32f4xx_hal_msp.c ****   /* USER CODE BEGIN SPI1_MspInit 0 */
  95:Core/Src/stm32f4xx_hal_msp.c **** 
  96:Core/Src/stm32f4xx_hal_msp.c ****   /* USER CODE END SPI1_MspInit 0 */
  97:Core/Src/stm32f4xx_hal_msp.c ****     /* Peripheral clock enable */
  98:Core/Src/stm32f4xx_hal_msp.c ****     __HAL_RCC_SPI1_CLK_ENABLE();
 119              		.loc 1 98 0
 120 001a 0025     		movs	r5, #0
 121 001c 0195     		str	r5, [sp, #4]
 122 001e 03F58433 		add	r3, r3, #67584
 123 0022 5A6C     		ldr	r2, [r3, #68]
 124 0024 42F48052 		orr	r2, r2, #4096
 125 0028 5A64     		str	r2, [r3, #68]
 126 002a 5A6C     		ldr	r2, [r3, #68]
 127 002c 02F48052 		and	r2, r2, #4096
 128 0030 0192     		str	r2, [sp, #4]
 129 0032 019A     		ldr	r2, [sp, #4]
 130              	.LBE4:
 131              	.LBB5:
  99:Core/Src/stm32f4xx_hal_msp.c **** 
 100:Core/Src/stm32f4xx_hal_msp.c ****     __HAL_RCC_GPIOA_CLK_ENABLE();
ARM GAS  C:\Users\master\AppData\Local\Temp\cc18t5vb.s 			page 5


 132              		.loc 1 100 0
 133 0034 0295     		str	r5, [sp, #8]
 134 0036 1A6B     		ldr	r2, [r3, #48]
 135 0038 42F00102 		orr	r2, r2, #1
 136 003c 1A63     		str	r2, [r3, #48]
 137 003e 1B6B     		ldr	r3, [r3, #48]
 138 0040 03F00103 		and	r3, r3, #1
 139 0044 0293     		str	r3, [sp, #8]
 140 0046 029B     		ldr	r3, [sp, #8]
 141              	.LBE5:
 101:Core/Src/stm32f4xx_hal_msp.c ****     /**SPI1 GPIO Configuration
 102:Core/Src/stm32f4xx_hal_msp.c ****     PA5     ------> SPI1_SCK
 103:Core/Src/stm32f4xx_hal_msp.c ****     PA7     ------> SPI1_MOSI
 104:Core/Src/stm32f4xx_hal_msp.c ****     */
 105:Core/Src/stm32f4xx_hal_msp.c ****     GPIO_InitStruct.Pin = GPIO_PIN_5|GPIO_PIN_7;
 142              		.loc 1 105 0
 143 0048 A023     		movs	r3, #160
 144 004a 0393     		str	r3, [sp, #12]
 106:Core/Src/stm32f4xx_hal_msp.c ****     GPIO_InitStruct.Mode = GPIO_MODE_AF_PP;
 145              		.loc 1 106 0
 146 004c 0223     		movs	r3, #2
 147 004e 0493     		str	r3, [sp, #16]
 107:Core/Src/stm32f4xx_hal_msp.c ****     GPIO_InitStruct.Pull = GPIO_NOPULL;
 108:Core/Src/stm32f4xx_hal_msp.c ****     GPIO_InitStruct.Speed = GPIO_SPEED_FREQ_VERY_HIGH;
 148              		.loc 1 108 0
 149 0050 0323     		movs	r3, #3
 150 0052 0693     		str	r3, [sp, #24]
 109:Core/Src/stm32f4xx_hal_msp.c ****     GPIO_InitStruct.Alternate = GPIO_AF5_SPI1;
 151              		.loc 1 109 0
 152 0054 0523     		movs	r3, #5
 153 0056 0793     		str	r3, [sp, #28]
 110:Core/Src/stm32f4xx_hal_msp.c ****     HAL_GPIO_Init(GPIOA, &GPIO_InitStruct);
 154              		.loc 1 110 0
 155 0058 03A9     		add	r1, sp, #12
 156 005a 1548     		ldr	r0, .L9+4
 157              	.LVL2:
 158 005c FFF7FEFF 		bl	HAL_GPIO_Init
 159              	.LVL3:
 111:Core/Src/stm32f4xx_hal_msp.c **** 
 112:Core/Src/stm32f4xx_hal_msp.c ****     /* SPI1 DMA Init */
 113:Core/Src/stm32f4xx_hal_msp.c ****     /* SPI1_TX Init */
 114:Core/Src/stm32f4xx_hal_msp.c ****     hdma_spi1_tx.Instance = DMA2_Stream3;
 160              		.loc 1 114 0
 161 0060 1448     		ldr	r0, .L9+8
 162 0062 154B     		ldr	r3, .L9+12
 163 0064 0360     		str	r3, [r0]
 115:Core/Src/stm32f4xx_hal_msp.c ****     hdma_spi1_tx.Init.Channel = DMA_CHANNEL_3;
 164              		.loc 1 115 0
 165 0066 4FF0C063 		mov	r3, #100663296
 166 006a 4360     		str	r3, [r0, #4]
 116:Core/Src/stm32f4xx_hal_msp.c ****     hdma_spi1_tx.Init.Direction = DMA_MEMORY_TO_PERIPH;
 167              		.loc 1 116 0
 168 006c 4023     		movs	r3, #64
 169 006e 8360     		str	r3, [r0, #8]
 117:Core/Src/stm32f4xx_hal_msp.c ****     hdma_spi1_tx.Init.PeriphInc = DMA_PINC_DISABLE;
 170              		.loc 1 117 0
 171 0070 C560     		str	r5, [r0, #12]
ARM GAS  C:\Users\master\AppData\Local\Temp\cc18t5vb.s 			page 6


 118:Core/Src/stm32f4xx_hal_msp.c ****     hdma_spi1_tx.Init.MemInc = DMA_MINC_ENABLE;
 172              		.loc 1 118 0
 173 0072 4FF48063 		mov	r3, #1024
 174 0076 0361     		str	r3, [r0, #16]
 119:Core/Src/stm32f4xx_hal_msp.c ****     hdma_spi1_tx.Init.PeriphDataAlignment = DMA_PDATAALIGN_BYTE;
 175              		.loc 1 119 0
 176 0078 4561     		str	r5, [r0, #20]
 120:Core/Src/stm32f4xx_hal_msp.c ****     hdma_spi1_tx.Init.MemDataAlignment = DMA_MDATAALIGN_BYTE;
 177              		.loc 1 120 0
 178 007a 8561     		str	r5, [r0, #24]
 121:Core/Src/stm32f4xx_hal_msp.c ****     hdma_spi1_tx.Init.Mode = DMA_NORMAL;
 179              		.loc 1 121 0
 180 007c C561     		str	r5, [r0, #28]
 122:Core/Src/stm32f4xx_hal_msp.c ****     hdma_spi1_tx.Init.Priority = DMA_PRIORITY_HIGH;
 181              		.loc 1 122 0
 182 007e 4FF40033 		mov	r3, #131072
 183 0082 0362     		str	r3, [r0, #32]
 123:Core/Src/stm32f4xx_hal_msp.c ****     hdma_spi1_tx.Init.FIFOMode = DMA_FIFOMODE_DISABLE;
 184              		.loc 1 123 0
 185 0084 4562     		str	r5, [r0, #36]
 124:Core/Src/stm32f4xx_hal_msp.c ****     if (HAL_DMA_Init(&hdma_spi1_tx) != HAL_OK)
 186              		.loc 1 124 0
 187 0086 FFF7FEFF 		bl	HAL_DMA_Init
 188              	.LVL4:
 189 008a 08B1     		cbz	r0, .L7
 125:Core/Src/stm32f4xx_hal_msp.c ****     {
 126:Core/Src/stm32f4xx_hal_msp.c ****       Error_Handler();
 190              		.loc 1 126 0
 191 008c FFF7FEFF 		bl	Error_Handler
 192              	.LVL5:
 193              	.L7:
 127:Core/Src/stm32f4xx_hal_msp.c ****     }
 128:Core/Src/stm32f4xx_hal_msp.c **** 
 129:Core/Src/stm32f4xx_hal_msp.c ****     __HAL_LINKDMA(hspi,hdmatx,hdma_spi1_tx);
 194              		.loc 1 129 0
 195 0090 084B     		ldr	r3, .L9+8
 196 0092 A364     		str	r3, [r4, #72]
 197 0094 9C63     		str	r4, [r3, #56]
 130:Core/Src/stm32f4xx_hal_msp.c **** 
 131:Core/Src/stm32f4xx_hal_msp.c ****     /* SPI1 interrupt Init */
 132:Core/Src/stm32f4xx_hal_msp.c ****     HAL_NVIC_SetPriority(SPI1_IRQn, 5, 0);
 198              		.loc 1 132 0
 199 0096 0022     		movs	r2, #0
 200 0098 0521     		movs	r1, #5
 201 009a 2320     		movs	r0, #35
 202 009c FFF7FEFF 		bl	HAL_NVIC_SetPriority
 203              	.LVL6:
 133:Core/Src/stm32f4xx_hal_msp.c ****     HAL_NVIC_EnableIRQ(SPI1_IRQn);
 204              		.loc 1 133 0
 205 00a0 2320     		movs	r0, #35
 206 00a2 FFF7FEFF 		bl	HAL_NVIC_EnableIRQ
 207              	.LVL7:
 208              	.L5:
 134:Core/Src/stm32f4xx_hal_msp.c ****   /* USER CODE BEGIN SPI1_MspInit 1 */
 135:Core/Src/stm32f4xx_hal_msp.c **** 
 136:Core/Src/stm32f4xx_hal_msp.c ****   /* USER CODE END SPI1_MspInit 1 */
 137:Core/Src/stm32f4xx_hal_msp.c ****   }
ARM GAS  C:\Users\master\AppData\Local\Temp\cc18t5vb.s 			page 7


 138:Core/Src/stm32f4xx_hal_msp.c **** 
 139:Core/Src/stm32f4xx_hal_msp.c **** }
 209              		.loc 1 139 0
 210 00a6 09B0     		add	sp, sp, #36
 211              	.LCFI5:
 212              		.cfi_def_cfa_offset 12
 213              		@ sp needed
 214 00a8 30BD     		pop	{r4, r5, pc}
 215              	.L10:
 216 00aa 00BF     		.align	2
 217              	.L9:
 218 00ac 00300140 		.word	1073819648
 219 00b0 00000240 		.word	1073872896
 220 00b4 00000000 		.word	hdma_spi1_tx
 221 00b8 58640240 		.word	1073898584
 222              		.cfi_endproc
 223              	.LFE131:
 225              		.section	.text.HAL_SPI_MspDeInit,"ax",%progbits
 226              		.align	2
 227              		.global	HAL_SPI_MspDeInit
 228              		.thumb
 229              		.thumb_func
 231              	HAL_SPI_MspDeInit:
 232              	.LFB132:
 140:Core/Src/stm32f4xx_hal_msp.c **** 
 141:Core/Src/stm32f4xx_hal_msp.c **** /**
 142:Core/Src/stm32f4xx_hal_msp.c **** * @brief SPI MSP De-Initialization
 143:Core/Src/stm32f4xx_hal_msp.c **** * This function freeze the hardware resources used in this example
 144:Core/Src/stm32f4xx_hal_msp.c **** * @param hspi: SPI handle pointer
 145:Core/Src/stm32f4xx_hal_msp.c **** * @retval None
 146:Core/Src/stm32f4xx_hal_msp.c **** */
 147:Core/Src/stm32f4xx_hal_msp.c **** void HAL_SPI_MspDeInit(SPI_HandleTypeDef* hspi)
 148:Core/Src/stm32f4xx_hal_msp.c **** {
 233              		.loc 1 148 0
 234              		.cfi_startproc
 235              		@ args = 0, pretend = 0, frame = 0
 236              		@ frame_needed = 0, uses_anonymous_args = 0
 237              	.LVL8:
 149:Core/Src/stm32f4xx_hal_msp.c ****   if(hspi->Instance==SPI1)
 238              		.loc 1 149 0
 239 0000 0268     		ldr	r2, [r0]
 240 0002 0B4B     		ldr	r3, .L15
 241 0004 9A42     		cmp	r2, r3
 242 0006 11D1     		bne	.L14
 148:Core/Src/stm32f4xx_hal_msp.c ****   if(hspi->Instance==SPI1)
 243              		.loc 1 148 0
 244 0008 10B5     		push	{r4, lr}
 245              	.LCFI6:
 246              		.cfi_def_cfa_offset 8
 247              		.cfi_offset 4, -8
 248              		.cfi_offset 14, -4
 249 000a 0446     		mov	r4, r0
 150:Core/Src/stm32f4xx_hal_msp.c ****   {
 151:Core/Src/stm32f4xx_hal_msp.c ****   /* USER CODE BEGIN SPI1_MspDeInit 0 */
 152:Core/Src/stm32f4xx_hal_msp.c **** 
 153:Core/Src/stm32f4xx_hal_msp.c ****   /* USER CODE END SPI1_MspDeInit 0 */
 154:Core/Src/stm32f4xx_hal_msp.c ****     /* Peripheral clock disable */
ARM GAS  C:\Users\master\AppData\Local\Temp\cc18t5vb.s 			page 8


 155:Core/Src/stm32f4xx_hal_msp.c ****     __HAL_RCC_SPI1_CLK_DISABLE();
 250              		.loc 1 155 0
 251 000c 094A     		ldr	r2, .L15+4
 252 000e 536C     		ldr	r3, [r2, #68]
 253 0010 23F48053 		bic	r3, r3, #4096
 254 0014 5364     		str	r3, [r2, #68]
 156:Core/Src/stm32f4xx_hal_msp.c **** 
 157:Core/Src/stm32f4xx_hal_msp.c ****     /**SPI1 GPIO Configuration
 158:Core/Src/stm32f4xx_hal_msp.c ****     PA5     ------> SPI1_SCK
 159:Core/Src/stm32f4xx_hal_msp.c ****     PA7     ------> SPI1_MOSI
 160:Core/Src/stm32f4xx_hal_msp.c ****     */
 161:Core/Src/stm32f4xx_hal_msp.c ****     HAL_GPIO_DeInit(GPIOA, GPIO_PIN_5|GPIO_PIN_7);
 255              		.loc 1 161 0
 256 0016 A021     		movs	r1, #160
 257 0018 0748     		ldr	r0, .L15+8
 258              	.LVL9:
 259 001a FFF7FEFF 		bl	HAL_GPIO_DeInit
 260              	.LVL10:
 162:Core/Src/stm32f4xx_hal_msp.c **** 
 163:Core/Src/stm32f4xx_hal_msp.c ****     /* SPI1 DMA DeInit */
 164:Core/Src/stm32f4xx_hal_msp.c ****     HAL_DMA_DeInit(hspi->hdmatx);
 261              		.loc 1 164 0
 262 001e A06C     		ldr	r0, [r4, #72]
 263 0020 FFF7FEFF 		bl	HAL_DMA_DeInit
 264              	.LVL11:
 165:Core/Src/stm32f4xx_hal_msp.c **** 
 166:Core/Src/stm32f4xx_hal_msp.c ****     /* SPI1 interrupt DeInit */
 167:Core/Src/stm32f4xx_hal_msp.c ****     HAL_NVIC_DisableIRQ(SPI1_IRQn);
 265              		.loc 1 167 0
 266 0024 2320     		movs	r0, #35
 267 0026 FFF7FEFF 		bl	HAL_NVIC_DisableIRQ
 268              	.LVL12:
 269 002a 10BD     		pop	{r4, pc}
 270              	.LVL13:
 271              	.L14:
 272              	.LCFI7:
 273              		.cfi_def_cfa_offset 0
 274              		.cfi_restore 4
 275              		.cfi_restore 14
 276 002c 7047     		bx	lr
 277              	.L16:
 278 002e 00BF     		.align	2
 279              	.L15:
 280 0030 00300140 		.word	1073819648
 281 0034 00380240 		.word	1073887232
 282 0038 00000240 		.word	1073872896
 283              		.cfi_endproc
 284              	.LFE132:
 286              		.text
 287              	.Letext0:
 288              		.file 2 "c:\\program files (x86)\\gnu tools arm embedded\\5.4 2016q3\\arm-none-eabi\\include\\mach
 289              		.file 3 "c:\\program files (x86)\\gnu tools arm embedded\\5.4 2016q3\\arm-none-eabi\\include\\sys\
 290              		.file 4 "Drivers/CMSIS/Device/ST/STM32F4xx/Include/stm32f401xc.h"
 291              		.file 5 "Drivers/STM32F4xx_HAL_Driver/Inc/stm32f4xx_hal_def.h"
 292              		.file 6 "Drivers/STM32F4xx_HAL_Driver/Inc/stm32f4xx_hal_gpio.h"
 293              		.file 7 "Drivers/STM32F4xx_HAL_Driver/Inc/stm32f4xx_hal_dma.h"
 294              		.file 8 "Drivers/STM32F4xx_HAL_Driver/Inc/stm32f4xx_hal_spi.h"
ARM GAS  C:\Users\master\AppData\Local\Temp\cc18t5vb.s 			page 9


 295              		.file 9 "Drivers/CMSIS/Include/core_cm4.h"
 296              		.file 10 "Drivers/STM32F4xx_HAL_Driver/Inc/stm32f4xx_hal_cortex.h"
 297              		.file 11 "Core/Inc/main.h"
ARM GAS  C:\Users\master\AppData\Local\Temp\cc18t5vb.s 			page 10


DEFINED SYMBOLS
                            *ABS*:00000000 stm32f4xx_hal_msp.c
C:\Users\master\AppData\Local\Temp\cc18t5vb.s:22     .text.HAL_MspInit:00000000 $t
C:\Users\master\AppData\Local\Temp\cc18t5vb.s:27     .text.HAL_MspInit:00000000 HAL_MspInit
C:\Users\master\AppData\Local\Temp\cc18t5vb.s:79     .text.HAL_MspInit:00000040 $d
C:\Users\master\AppData\Local\Temp\cc18t5vb.s:84     .text.HAL_SPI_MspInit:00000000 $t
C:\Users\master\AppData\Local\Temp\cc18t5vb.s:89     .text.HAL_SPI_MspInit:00000000 HAL_SPI_MspInit
C:\Users\master\AppData\Local\Temp\cc18t5vb.s:218    .text.HAL_SPI_MspInit:000000ac $d
C:\Users\master\AppData\Local\Temp\cc18t5vb.s:226    .text.HAL_SPI_MspDeInit:00000000 $t
C:\Users\master\AppData\Local\Temp\cc18t5vb.s:231    .text.HAL_SPI_MspDeInit:00000000 HAL_SPI_MspDeInit
C:\Users\master\AppData\Local\Temp\cc18t5vb.s:280    .text.HAL_SPI_MspDeInit:00000030 $d
                     .debug_frame:00000010 $d

UNDEFINED SYMBOLS
HAL_NVIC_SetPriority
HAL_GPIO_Init
HAL_DMA_Init
Error_Handler
HAL_NVIC_EnableIRQ
hdma_spi1_tx
HAL_GPIO_DeInit
HAL_DMA_DeInit
HAL_NVIC_DisableIRQ
