ARM GAS  C:\Users\master\AppData\Local\Temp\ccXTt1tQ.s 			page 1


   1              		.syntax unified
   2              		.cpu cortex-m4
   3              		.eabi_attribute 27, 1
   4              		.eabi_attribute 28, 1
   5              		.fpu fpv4-sp-d16
   6              		.eabi_attribute 20, 1
   7              		.eabi_attribute 21, 1
   8              		.eabi_attribute 23, 3
   9              		.eabi_attribute 24, 1
  10              		.eabi_attribute 25, 1
  11              		.eabi_attribute 26, 1
  12              		.eabi_attribute 30, 1
  13              		.eabi_attribute 34, 1
  14              		.eabi_attribute 18, 4
  15              		.thumb
  16              		.syntax unified
  17              		.file	"u8g2_com_stm32_hw_spi_hal.c"
  18              		.text
  19              	.Ltext0:
  20              		.cfi_sections	.debug_frame
  21              		.section	.text.u8x8_byte_4wire_hw_spi,"ax",%progbits
  22              		.align	2
  23              		.global	u8x8_byte_4wire_hw_spi
  24              		.thumb
  25              		.thumb_func
  27              	u8x8_byte_4wire_hw_spi:
  28              	.LFB130:
  29              		.file 1 "u8g2_lib/u8g2_com_stm32_hw_spi_hal.c"
   1:u8g2_lib/u8g2_com_stm32_hw_spi_hal.c **** #include "u8g2_com_stm32_hw_spi_hal.h"
   2:u8g2_lib/u8g2_com_stm32_hw_spi_hal.c **** extern SPI_HandleTypeDef hspi1;
   3:u8g2_lib/u8g2_com_stm32_hw_spi_hal.c **** uint8_t u8x8_byte_4wire_hw_spi(u8x8_t *u8x8, uint8_t msg, uint8_t arg_int,void *arg_ptr)
   4:u8g2_lib/u8g2_com_stm32_hw_spi_hal.c **** {
  30              		.loc 1 4 0
  31              		.cfi_startproc
  32              		@ args = 0, pretend = 0, frame = 0
  33              		@ frame_needed = 0, uses_anonymous_args = 0
  34              	.LVL0:
  35 0000 08B5     		push	{r3, lr}
  36              	.LCFI0:
  37              		.cfi_def_cfa_offset 8
  38              		.cfi_offset 3, -8
  39              		.cfi_offset 14, -4
  40 0002 1846     		mov	r0, r3
  41              	.LVL1:
   5:u8g2_lib/u8g2_com_stm32_hw_spi_hal.c **** 
   6:u8g2_lib/u8g2_com_stm32_hw_spi_hal.c ****     switch (msg)
  42              		.loc 1 6 0
  43 0004 1439     		subs	r1, r1, #20
  44              	.LVL2:
  45 0006 0C29     		cmp	r1, #12
  46 0008 08D8     		bhi	.L2
  47 000a DFE801F0 		tbb	[pc, r1]
  48              	.LVL3:
  49              	.L4:
  50 000e 17       		.byte	(.L7-.L4)/2
  51 000f 07       		.byte	(.L2-.L4)/2
  52 0010 07       		.byte	(.L2-.L4)/2
ARM GAS  C:\Users\master\AppData\Local\Temp\ccXTt1tQ.s 			page 2


  53 0011 09       		.byte	(.L5-.L4)/2
  54 0012 17       		.byte	(.L7-.L4)/2
  55 0013 17       		.byte	(.L7-.L4)/2
  56 0014 07       		.byte	(.L2-.L4)/2
  57 0015 07       		.byte	(.L2-.L4)/2
  58 0016 07       		.byte	(.L2-.L4)/2
  59 0017 07       		.byte	(.L2-.L4)/2
  60 0018 07       		.byte	(.L2-.L4)/2
  61 0019 07       		.byte	(.L2-.L4)/2
  62 001a 11       		.byte	(.L6-.L4)/2
  63 001b 00       		.p2align 1
  64              	.L2:
   7:u8g2_lib/u8g2_com_stm32_hw_spi_hal.c ****     {
   8:u8g2_lib/u8g2_com_stm32_hw_spi_hal.c ****         case U8X8_MSG_BYTE_SEND:
   9:u8g2_lib/u8g2_com_stm32_hw_spi_hal.c ****           if (HAL_SPI_Transmit(&hspi1,arg_ptr,arg_int,1000)==HAL_OK)
  10:u8g2_lib/u8g2_com_stm32_hw_spi_hal.c ****                 return 0;
  11:u8g2_lib/u8g2_com_stm32_hw_spi_hal.c ****         break;
  12:u8g2_lib/u8g2_com_stm32_hw_spi_hal.c ****         case U8X8_MSG_BYTE_INIT:
  13:u8g2_lib/u8g2_com_stm32_hw_spi_hal.c ****         break;
  14:u8g2_lib/u8g2_com_stm32_hw_spi_hal.c ****         case U8X8_MSG_BYTE_SET_DC:
  15:u8g2_lib/u8g2_com_stm32_hw_spi_hal.c ****             HAL_GPIO_WritePin(OLED_DC_GPIO_Port, OLED_DC_Pin, arg_int);
  16:u8g2_lib/u8g2_com_stm32_hw_spi_hal.c ****         break;
  17:u8g2_lib/u8g2_com_stm32_hw_spi_hal.c ****         case U8X8_MSG_BYTE_START_TRANSFER:
  18:u8g2_lib/u8g2_com_stm32_hw_spi_hal.c ****         break;
  19:u8g2_lib/u8g2_com_stm32_hw_spi_hal.c ****         case U8X8_MSG_BYTE_END_TRANSFER:
  20:u8g2_lib/u8g2_com_stm32_hw_spi_hal.c ****         break;
  21:u8g2_lib/u8g2_com_stm32_hw_spi_hal.c ****         default:
  22:u8g2_lib/u8g2_com_stm32_hw_spi_hal.c ****     return 0;
  65              		.loc 1 22 0
  66 001c 0020     		movs	r0, #0
  67              	.LVL4:
  68 001e 08BD     		pop	{r3, pc}
  69              	.LVL5:
  70              	.L5:
   9:u8g2_lib/u8g2_com_stm32_hw_spi_hal.c ****                 return 0;
  71              		.loc 1 9 0
  72 0020 4FF47A73 		mov	r3, #1000
  73 0024 0146     		mov	r1, r0
  74 0026 0748     		ldr	r0, .L10
  75              	.LVL6:
  76 0028 FFF7FEFF 		bl	HAL_SPI_Transmit
  77              	.LVL7:
  78 002c 40B9     		cbnz	r0, .L8
  79 002e 08BD     		pop	{r3, pc}
  80              	.LVL8:
  81              	.L6:
  15:u8g2_lib/u8g2_com_stm32_hw_spi_hal.c ****         break;
  82              		.loc 1 15 0
  83 0030 4021     		movs	r1, #64
  84 0032 0548     		ldr	r0, .L10+4
  85              	.LVL9:
  86 0034 FFF7FEFF 		bl	HAL_GPIO_WritePin
  87              	.LVL10:
  23:u8g2_lib/u8g2_com_stm32_hw_spi_hal.c ****   }
  24:u8g2_lib/u8g2_com_stm32_hw_spi_hal.c ****   return 1;
  88              		.loc 1 24 0
  89 0038 0120     		movs	r0, #1
ARM GAS  C:\Users\master\AppData\Local\Temp\ccXTt1tQ.s 			page 3


  16:u8g2_lib/u8g2_com_stm32_hw_spi_hal.c ****         case U8X8_MSG_BYTE_START_TRANSFER:
  90              		.loc 1 16 0
  91 003a 08BD     		pop	{r3, pc}
  92              	.LVL11:
  93              	.L7:
  94              		.loc 1 24 0
  95 003c 0120     		movs	r0, #1
  96              	.LVL12:
  97 003e 08BD     		pop	{r3, pc}
  98              	.LVL13:
  99              	.L8:
 100 0040 0120     		movs	r0, #1
  25:u8g2_lib/u8g2_com_stm32_hw_spi_hal.c **** }
 101              		.loc 1 25 0
 102 0042 08BD     		pop	{r3, pc}
 103              	.L11:
 104              		.align	2
 105              	.L10:
 106 0044 00000000 		.word	hspi1
 107 0048 00000240 		.word	1073872896
 108              		.cfi_endproc
 109              	.LFE130:
 111              		.section	.text.u8x8_stm32_gpio_and_delay,"ax",%progbits
 112              		.align	2
 113              		.global	u8x8_stm32_gpio_and_delay
 114              		.thumb
 115              		.thumb_func
 117              	u8x8_stm32_gpio_and_delay:
 118              	.LFB131:
  26:u8g2_lib/u8g2_com_stm32_hw_spi_hal.c **** 
  27:u8g2_lib/u8g2_com_stm32_hw_spi_hal.c **** uint8_t u8x8_stm32_gpio_and_delay(U8X8_UNUSED u8x8_t *u8x8,U8X8_UNUSED uint8_t msg, U8X8_UNUSED uin
  28:u8g2_lib/u8g2_com_stm32_hw_spi_hal.c **** {
 119              		.loc 1 28 0
 120              		.cfi_startproc
 121              		@ args = 0, pretend = 0, frame = 0
 122              		@ frame_needed = 0, uses_anonymous_args = 0
 123              	.LVL14:
 124 0000 10B5     		push	{r4, lr}
 125              	.LCFI1:
 126              		.cfi_def_cfa_offset 8
 127              		.cfi_offset 4, -8
 128              		.cfi_offset 14, -4
 129 0002 1446     		mov	r4, r2
  29:u8g2_lib/u8g2_com_stm32_hw_spi_hal.c ****     switch (msg)
 130              		.loc 1 29 0
 131 0004 2839     		subs	r1, r1, #40
 132              	.LVL15:
 133 0006 2329     		cmp	r1, #35
 134 0008 29D8     		bhi	.L13
 135 000a DFE801F0 		tbb	[pc, r1]
 136              	.LVL16:
 137              	.L15:
 138 000e 12       		.byte	(.L14-.L15)/2
 139 000f 16       		.byte	(.L16-.L15)/2
 140 0010 28       		.byte	(.L13-.L15)/2
 141 0011 28       		.byte	(.L13-.L15)/2
 142 0012 28       		.byte	(.L13-.L15)/2
ARM GAS  C:\Users\master\AppData\Local\Temp\ccXTt1tQ.s 			page 4


 143 0013 28       		.byte	(.L13-.L15)/2
 144 0014 28       		.byte	(.L13-.L15)/2
 145 0015 28       		.byte	(.L13-.L15)/2
 146 0016 28       		.byte	(.L13-.L15)/2
 147 0017 28       		.byte	(.L13-.L15)/2
 148 0018 28       		.byte	(.L13-.L15)/2
 149 0019 28       		.byte	(.L13-.L15)/2
 150 001a 28       		.byte	(.L13-.L15)/2
 151 001b 28       		.byte	(.L13-.L15)/2
 152 001c 28       		.byte	(.L13-.L15)/2
 153 001d 28       		.byte	(.L13-.L15)/2
 154 001e 28       		.byte	(.L13-.L15)/2
 155 001f 28       		.byte	(.L13-.L15)/2
 156 0020 28       		.byte	(.L13-.L15)/2
 157 0021 28       		.byte	(.L13-.L15)/2
 158 0022 28       		.byte	(.L13-.L15)/2
 159 0023 28       		.byte	(.L13-.L15)/2
 160 0024 28       		.byte	(.L13-.L15)/2
 161 0025 28       		.byte	(.L13-.L15)/2
 162 0026 28       		.byte	(.L13-.L15)/2
 163 0027 28       		.byte	(.L13-.L15)/2
 164 0028 28       		.byte	(.L13-.L15)/2
 165 0029 28       		.byte	(.L13-.L15)/2
 166 002a 28       		.byte	(.L13-.L15)/2
 167 002b 28       		.byte	(.L13-.L15)/2
 168 002c 28       		.byte	(.L13-.L15)/2
 169 002d 28       		.byte	(.L13-.L15)/2
 170 002e 28       		.byte	(.L13-.L15)/2
 171 002f 1A       		.byte	(.L17-.L15)/2
 172 0030 1E       		.byte	(.L18-.L15)/2
 173 0031 24       		.byte	(.L19-.L15)/2
 174              		.p2align 1
 175              	.L14:
  30:u8g2_lib/u8g2_com_stm32_hw_spi_hal.c ****     {
  31:u8g2_lib/u8g2_com_stm32_hw_spi_hal.c ****         case U8X8_MSG_GPIO_AND_DELAY_INIT:
  32:u8g2_lib/u8g2_com_stm32_hw_spi_hal.c ****             HAL_Delay(1);
 176              		.loc 1 32 0
 177 0032 0120     		movs	r0, #1
 178              	.LVL17:
 179 0034 FFF7FEFF 		bl	HAL_Delay
 180              	.LVL18:
  33:u8g2_lib/u8g2_com_stm32_hw_spi_hal.c ****         break;
 181              		.loc 1 33 0
 182 0038 11E0     		b	.L13
 183              	.LVL19:
 184              	.L16:
  34:u8g2_lib/u8g2_com_stm32_hw_spi_hal.c ****         case U8X8_MSG_DELAY_MILLI:
  35:u8g2_lib/u8g2_com_stm32_hw_spi_hal.c ****             HAL_Delay(arg_int);
 185              		.loc 1 35 0
 186 003a 1046     		mov	r0, r2
 187              	.LVL20:
 188 003c FFF7FEFF 		bl	HAL_Delay
 189              	.LVL21:
  36:u8g2_lib/u8g2_com_stm32_hw_spi_hal.c ****         break;
 190              		.loc 1 36 0
 191 0040 0DE0     		b	.L13
 192              	.LVL22:
ARM GAS  C:\Users\master\AppData\Local\Temp\ccXTt1tQ.s 			page 5


 193              	.L17:
  37:u8g2_lib/u8g2_com_stm32_hw_spi_hal.c ****         case U8X8_MSG_GPIO_CS:
  38:u8g2_lib/u8g2_com_stm32_hw_spi_hal.c ****             HAL_GPIO_WritePin(OLED_CS_GPIO_Port, OLED_CS_Pin, arg_int);
 194              		.loc 1 38 0
 195 0042 0221     		movs	r1, #2
 196 0044 0748     		ldr	r0, .L21
 197              	.LVL23:
 198 0046 FFF7FEFF 		bl	HAL_GPIO_WritePin
 199              	.LVL24:
 200              	.L18:
  39:u8g2_lib/u8g2_com_stm32_hw_spi_hal.c ****         case U8X8_MSG_GPIO_DC:
  40:u8g2_lib/u8g2_com_stm32_hw_spi_hal.c ****             HAL_GPIO_WritePin(OLED_DC_GPIO_Port, OLED_DC_Pin, arg_int);
 201              		.loc 1 40 0
 202 004a 2246     		mov	r2, r4
 203 004c 4021     		movs	r1, #64
 204 004e 0648     		ldr	r0, .L21+4
 205 0050 FFF7FEFF 		bl	HAL_GPIO_WritePin
 206              	.LVL25:
  41:u8g2_lib/u8g2_com_stm32_hw_spi_hal.c ****         break;
 207              		.loc 1 41 0
 208 0054 03E0     		b	.L13
 209              	.LVL26:
 210              	.L19:
  42:u8g2_lib/u8g2_com_stm32_hw_spi_hal.c ****         case U8X8_MSG_GPIO_RESET:
  43:u8g2_lib/u8g2_com_stm32_hw_spi_hal.c ****             HAL_GPIO_WritePin(OLED_RST_GPIO_Port, OLED_RST_Pin, arg_int);
 211              		.loc 1 43 0
 212 0056 0121     		movs	r1, #1
 213 0058 0248     		ldr	r0, .L21
 214              	.LVL27:
 215 005a FFF7FEFF 		bl	HAL_GPIO_WritePin
 216              	.LVL28:
 217              	.L13:
  44:u8g2_lib/u8g2_com_stm32_hw_spi_hal.c ****         break;
  45:u8g2_lib/u8g2_com_stm32_hw_spi_hal.c ****     }
  46:u8g2_lib/u8g2_com_stm32_hw_spi_hal.c ****   return 1;
  47:u8g2_lib/u8g2_com_stm32_hw_spi_hal.c **** }
 218              		.loc 1 47 0
 219 005e 0120     		movs	r0, #1
 220 0060 10BD     		pop	{r4, pc}
 221              	.L22:
 222 0062 00BF     		.align	2
 223              	.L21:
 224 0064 00040240 		.word	1073873920
 225 0068 00000240 		.word	1073872896
 226              		.cfi_endproc
 227              	.LFE131:
 229              		.section	.text.u8g2Init,"ax",%progbits
 230              		.align	2
 231              		.global	u8g2Init
 232              		.thumb
 233              		.thumb_func
 235              	u8g2Init:
 236              	.LFB132:
  48:u8g2_lib/u8g2_com_stm32_hw_spi_hal.c **** 
  49:u8g2_lib/u8g2_com_stm32_hw_spi_hal.c **** 
  50:u8g2_lib/u8g2_com_stm32_hw_spi_hal.c **** void u8g2Init(u8g2_t *u8g2)
  51:u8g2_lib/u8g2_com_stm32_hw_spi_hal.c **** {
ARM GAS  C:\Users\master\AppData\Local\Temp\ccXTt1tQ.s 			page 6


 237              		.loc 1 51 0
 238              		.cfi_startproc
 239              		@ args = 0, pretend = 0, frame = 0
 240              		@ frame_needed = 0, uses_anonymous_args = 0
 241              	.LVL29:
 242 0000 10B5     		push	{r4, lr}
 243              	.LCFI2:
 244              		.cfi_def_cfa_offset 8
 245              		.cfi_offset 4, -8
 246              		.cfi_offset 14, -4
 247 0002 0446     		mov	r4, r0
  52:u8g2_lib/u8g2_com_stm32_hw_spi_hal.c ****     u8g2_Setup_ssd1306_128x64_noname_f(u8g2, U8G2_R0, u8x8_byte_4wire_hw_spi, u8x8_stm32_gpio_and_d
 248              		.loc 1 52 0
 249 0004 064B     		ldr	r3, .L25
 250 0006 074A     		ldr	r2, .L25+4
 251 0008 0749     		ldr	r1, .L25+8
 252 000a FFF7FEFF 		bl	u8g2_Setup_ssd1306_128x64_noname_f
 253              	.LVL30:
  53:u8g2_lib/u8g2_com_stm32_hw_spi_hal.c ****     u8g2_InitDisplay(u8g2);                                                                       /
 254              		.loc 1 53 0
 255 000e 2046     		mov	r0, r4
 256 0010 FFF7FEFF 		bl	u8x8_InitDisplay
 257              	.LVL31:
  54:u8g2_lib/u8g2_com_stm32_hw_spi_hal.c ****     u8g2_SetPowerSave(u8g2, 0);                                                                   /
 258              		.loc 1 54 0
 259 0014 0021     		movs	r1, #0
 260 0016 2046     		mov	r0, r4
 261 0018 FFF7FEFF 		bl	u8x8_SetPowerSave
 262              	.LVL32:
 263 001c 10BD     		pop	{r4, pc}
 264              	.LVL33:
 265              	.L26:
 266 001e 00BF     		.align	2
 267              	.L25:
 268 0020 00000000 		.word	u8x8_stm32_gpio_and_delay
 269 0024 00000000 		.word	u8x8_byte_4wire_hw_spi
 270 0028 00000000 		.word	u8g2_cb_r0
 271              		.cfi_endproc
 272              	.LFE132:
 274              		.text
 275              	.Letext0:
 276              		.file 2 "c:\\program files (x86)\\gnu tools arm embedded\\5.4 2016q3\\arm-none-eabi\\include\\mach
 277              		.file 3 "c:\\program files (x86)\\gnu tools arm embedded\\5.4 2016q3\\arm-none-eabi\\include\\sys\
 278              		.file 4 "Drivers/CMSIS/Device/ST/STM32F4xx/Include/stm32f401xc.h"
 279              		.file 5 "Drivers/STM32F4xx_HAL_Driver/Inc/stm32f4xx_hal_def.h"
 280              		.file 6 "Drivers/STM32F4xx_HAL_Driver/Inc/stm32f4xx_hal_dma.h"
 281              		.file 7 "Drivers/STM32F4xx_HAL_Driver/Inc/stm32f4xx_hal_spi.h"
 282              		.file 8 "u8g2_lib/u8x8.h"
 283              		.file 9 "u8g2_lib/u8g2.h"
 284              		.file 10 "Drivers/CMSIS/Include/core_cm4.h"
 285              		.file 11 "Drivers/STM32F4xx_HAL_Driver/Inc/stm32f4xx_hal_gpio.h"
 286              		.file 12 "Drivers/STM32F4xx_HAL_Driver/Inc/stm32f4xx_hal.h"
ARM GAS  C:\Users\master\AppData\Local\Temp\ccXTt1tQ.s 			page 7


DEFINED SYMBOLS
                            *ABS*:00000000 u8g2_com_stm32_hw_spi_hal.c
C:\Users\master\AppData\Local\Temp\ccXTt1tQ.s:22     .text.u8x8_byte_4wire_hw_spi:00000000 $t
C:\Users\master\AppData\Local\Temp\ccXTt1tQ.s:27     .text.u8x8_byte_4wire_hw_spi:00000000 u8x8_byte_4wire_hw_spi
C:\Users\master\AppData\Local\Temp\ccXTt1tQ.s:50     .text.u8x8_byte_4wire_hw_spi:0000000e $d
C:\Users\master\AppData\Local\Temp\ccXTt1tQ.s:106    .text.u8x8_byte_4wire_hw_spi:00000044 $d
C:\Users\master\AppData\Local\Temp\ccXTt1tQ.s:112    .text.u8x8_stm32_gpio_and_delay:00000000 $t
C:\Users\master\AppData\Local\Temp\ccXTt1tQ.s:117    .text.u8x8_stm32_gpio_and_delay:00000000 u8x8_stm32_gpio_and_delay
C:\Users\master\AppData\Local\Temp\ccXTt1tQ.s:138    .text.u8x8_stm32_gpio_and_delay:0000000e $d
C:\Users\master\AppData\Local\Temp\ccXTt1tQ.s:174    .text.u8x8_stm32_gpio_and_delay:00000032 $t
C:\Users\master\AppData\Local\Temp\ccXTt1tQ.s:224    .text.u8x8_stm32_gpio_and_delay:00000064 $d
C:\Users\master\AppData\Local\Temp\ccXTt1tQ.s:230    .text.u8g2Init:00000000 $t
C:\Users\master\AppData\Local\Temp\ccXTt1tQ.s:235    .text.u8g2Init:00000000 u8g2Init
C:\Users\master\AppData\Local\Temp\ccXTt1tQ.s:268    .text.u8g2Init:00000020 $d
                     .debug_frame:00000010 $d
C:\Users\master\AppData\Local\Temp\ccXTt1tQ.s:63     .text.u8x8_byte_4wire_hw_spi:0000001b $d
C:\Users\master\AppData\Local\Temp\ccXTt1tQ.s:63     .text.u8x8_byte_4wire_hw_spi:0000001c $t

UNDEFINED SYMBOLS
HAL_SPI_Transmit
HAL_GPIO_WritePin
hspi1
HAL_Delay
u8g2_Setup_ssd1306_128x64_noname_f
u8x8_InitDisplay
u8x8_SetPowerSave
u8g2_cb_r0
