ARM GAS  C:\Users\master\AppData\Local\Temp\ccxO0czL.s 			page 1


   1              		.syntax unified
   2              		.cpu cortex-m4
   3              		.eabi_attribute 27, 1
   4              		.eabi_attribute 28, 1
   5              		.fpu fpv4-sp-d16
   6              		.eabi_attribute 20, 1
   7              		.eabi_attribute 21, 1
   8              		.eabi_attribute 23, 3
   9              		.eabi_attribute 24, 1
  10              		.eabi_attribute 25, 1
  11              		.eabi_attribute 26, 1
  12              		.eabi_attribute 30, 1
  13              		.eabi_attribute 34, 1
  14              		.eabi_attribute 18, 4
  15              		.thumb
  16              		.syntax unified
  17              		.file	"u8g2_font.c"
  18              		.text
  19              	.Ltext0:
  20              		.cfi_sections	.debug_frame
  21              		.section	.text.u8g2_font_get_byte,"ax",%progbits
  22              		.align	2
  23              		.thumb
  24              		.thumb_func
  26              	u8g2_font_get_byte:
  27              	.LFB0:
  28              		.file 1 "u8g2_lib/u8g2_font.c"
   1:u8g2_lib/u8g2_font.c **** /*
   2:u8g2_lib/u8g2_font.c **** 
   3:u8g2_lib/u8g2_font.c ****   u8g2_font.c
   4:u8g2_lib/u8g2_font.c **** 
   5:u8g2_lib/u8g2_font.c ****   Universal 8bit Graphics Library (https://github.com/olikraus/u8g2/)
   6:u8g2_lib/u8g2_font.c **** 
   7:u8g2_lib/u8g2_font.c ****   Copyright (c) 2016, olikraus@gmail.com
   8:u8g2_lib/u8g2_font.c ****   All rights reserved.
   9:u8g2_lib/u8g2_font.c **** 
  10:u8g2_lib/u8g2_font.c ****   Redistribution and use in source and binary forms, with or without modification, 
  11:u8g2_lib/u8g2_font.c ****   are permitted provided that the following conditions are met:
  12:u8g2_lib/u8g2_font.c **** 
  13:u8g2_lib/u8g2_font.c ****   * Redistributions of source code must retain the above copyright notice, this list 
  14:u8g2_lib/u8g2_font.c ****     of conditions and the following disclaimer.
  15:u8g2_lib/u8g2_font.c ****     
  16:u8g2_lib/u8g2_font.c ****   * Redistributions in binary form must reproduce the above copyright notice, this 
  17:u8g2_lib/u8g2_font.c ****     list of conditions and the following disclaimer in the documentation and/or other 
  18:u8g2_lib/u8g2_font.c ****     materials provided with the distribution.
  19:u8g2_lib/u8g2_font.c **** 
  20:u8g2_lib/u8g2_font.c ****   THIS SOFTWARE IS PROVIDED BY THE COPYRIGHT HOLDERS AND 
  21:u8g2_lib/u8g2_font.c ****   CONTRIBUTORS "AS IS" AND ANY EXPRESS OR IMPLIED WARRANTIES, 
  22:u8g2_lib/u8g2_font.c ****   INCLUDING, BUT NOT LIMITED TO, THE IMPLIED WARRANTIES OF 
  23:u8g2_lib/u8g2_font.c ****   MERCHANTABILITY AND FITNESS FOR A PARTICULAR PURPOSE ARE 
  24:u8g2_lib/u8g2_font.c ****   DISCLAIMED. IN NO EVENT SHALL THE COPYRIGHT HOLDER OR 
  25:u8g2_lib/u8g2_font.c ****   CONTRIBUTORS BE LIABLE FOR ANY DIRECT, INDIRECT, INCIDENTAL, 
  26:u8g2_lib/u8g2_font.c ****   SPECIAL, EXEMPLARY, OR CONSEQUENTIAL DAMAGES (INCLUDING, BUT 
  27:u8g2_lib/u8g2_font.c ****   NOT LIMITED TO, PROCUREMENT OF SUBSTITUTE GOODS OR SERVICES; 
  28:u8g2_lib/u8g2_font.c ****   LOSS OF USE, DATA, OR PROFITS; OR BUSINESS INTERRUPTION) HOWEVER 
  29:u8g2_lib/u8g2_font.c ****   CAUSED AND ON ANY THEORY OF LIABILITY, WHETHER IN CONTRACT, 
  30:u8g2_lib/u8g2_font.c ****   STRICT LIABILITY, OR TORT (INCLUDING NEGLIGENCE OR OTHERWISE) 
ARM GAS  C:\Users\master\AppData\Local\Temp\ccxO0czL.s 			page 2


  31:u8g2_lib/u8g2_font.c ****   ARISING IN ANY WAY OUT OF THE USE OF THIS SOFTWARE, EVEN IF 
  32:u8g2_lib/u8g2_font.c ****   ADVISED OF THE POSSIBILITY OF SUCH DAMAGE.  
  33:u8g2_lib/u8g2_font.c **** 
  34:u8g2_lib/u8g2_font.c **** */
  35:u8g2_lib/u8g2_font.c **** 
  36:u8g2_lib/u8g2_font.c **** #include "u8g2.h"
  37:u8g2_lib/u8g2_font.c **** 
  38:u8g2_lib/u8g2_font.c **** /* size of the font data structure, there is no struct or class... */
  39:u8g2_lib/u8g2_font.c **** /* this is the size for the new font format */
  40:u8g2_lib/u8g2_font.c **** #define U8G2_FONT_DATA_STRUCT_SIZE 23
  41:u8g2_lib/u8g2_font.c **** 
  42:u8g2_lib/u8g2_font.c **** /*
  43:u8g2_lib/u8g2_font.c ****   font data:
  44:u8g2_lib/u8g2_font.c **** 
  45:u8g2_lib/u8g2_font.c ****   offset	bytes	description
  46:u8g2_lib/u8g2_font.c ****   0		1		glyph_cnt		number of glyphs
  47:u8g2_lib/u8g2_font.c ****   1		1		bbx_mode	0: proportional, 1: common height, 2: monospace, 3: multiple of 8
  48:u8g2_lib/u8g2_font.c ****   2		1		bits_per_0	glyph rle parameter
  49:u8g2_lib/u8g2_font.c ****   3		1		bits_per_1	glyph rle parameter
  50:u8g2_lib/u8g2_font.c **** 
  51:u8g2_lib/u8g2_font.c ****   4		1		bits_per_char_width		glyph rle parameter
  52:u8g2_lib/u8g2_font.c ****   5		1		bits_per_char_height	glyph rle parameter
  53:u8g2_lib/u8g2_font.c ****   6		1		bits_per_char_x		glyph rle parameter
  54:u8g2_lib/u8g2_font.c ****   7		1		bits_per_char_y		glyph rle parameter
  55:u8g2_lib/u8g2_font.c ****   8		1		bits_per_delta_x		glyph rle parameter
  56:u8g2_lib/u8g2_font.c **** 
  57:u8g2_lib/u8g2_font.c ****   9		1		max_char_width
  58:u8g2_lib/u8g2_font.c ****   10		1		max_char_height
  59:u8g2_lib/u8g2_font.c ****   11		1		x offset
  60:u8g2_lib/u8g2_font.c ****   12		1		y offset (descent)
  61:u8g2_lib/u8g2_font.c ****   
  62:u8g2_lib/u8g2_font.c ****   13		1		ascent (capital A)
  63:u8g2_lib/u8g2_font.c ****   14		1		descent (lower g)
  64:u8g2_lib/u8g2_font.c ****   15		1		ascent '('
  65:u8g2_lib/u8g2_font.c ****   16		1		descent ')'
  66:u8g2_lib/u8g2_font.c ****   
  67:u8g2_lib/u8g2_font.c ****   17		1		start pos 'A' high byte
  68:u8g2_lib/u8g2_font.c ****   18		1		start pos 'A' low byte
  69:u8g2_lib/u8g2_font.c **** 
  70:u8g2_lib/u8g2_font.c ****   19		1		start pos 'a' high byte
  71:u8g2_lib/u8g2_font.c ****   20		1		start pos 'a' low byte
  72:u8g2_lib/u8g2_font.c **** 
  73:u8g2_lib/u8g2_font.c ****   21		1		start pos unicode high byte
  74:u8g2_lib/u8g2_font.c ****   22		1		start pos unicode low byte
  75:u8g2_lib/u8g2_font.c **** 
  76:u8g2_lib/u8g2_font.c ****   Font build mode, 0: proportional, 1: common height, 2: monospace, 3: multiple of 8
  77:u8g2_lib/u8g2_font.c **** 
  78:u8g2_lib/u8g2_font.c ****   Font build mode 0:		
  79:u8g2_lib/u8g2_font.c ****     - "t"
  80:u8g2_lib/u8g2_font.c ****     - Ref height mode: U8G2_FONT_HEIGHT_MODE_TEXT, U8G2_FONT_HEIGHT_MODE_XTEXT or U8G2_FONT_HEIGHT_
  81:u8g2_lib/u8g2_font.c ****     - use in transparent mode only (does not look good in solid mode)
  82:u8g2_lib/u8g2_font.c ****     - most compact format
  83:u8g2_lib/u8g2_font.c ****     - different font heights possible
  84:u8g2_lib/u8g2_font.c ****     
  85:u8g2_lib/u8g2_font.c ****   Font build mode 1:		
  86:u8g2_lib/u8g2_font.c ****     - "h"
  87:u8g2_lib/u8g2_font.c ****     - Ref height mode: U8G2_FONT_HEIGHT_MODE_ALL
ARM GAS  C:\Users\master\AppData\Local\Temp\ccxO0czL.s 			page 3


  88:u8g2_lib/u8g2_font.c ****     - transparent or solid mode
  89:u8g2_lib/u8g2_font.c ****     - The height of the glyphs depend on the largest glyph in the font. This means font height depe
  90:u8g2_lib/u8g2_font.c **** 
  91:u8g2_lib/u8g2_font.c **** */
  92:u8g2_lib/u8g2_font.c **** 
  93:u8g2_lib/u8g2_font.c **** /* use case: What is the width and the height of the minimal box into which string s fints? */
  94:u8g2_lib/u8g2_font.c **** void u8g2_font_GetStrSize(const void *font, const char *s, u8g2_uint_t *width, u8g2_uint_t *height)
  95:u8g2_lib/u8g2_font.c **** void u8g2_font_GetStrSizeP(const void *font, const char *s, u8g2_uint_t *width, u8g2_uint_t *height
  96:u8g2_lib/u8g2_font.c **** 
  97:u8g2_lib/u8g2_font.c **** /* use case: lower left edge of a minimal box is known, what is the correct x, y position for the s
  98:u8g2_lib/u8g2_font.c **** void u8g2_font_AdjustXYToDraw(const void *font, const char *s, u8g2_uint_t *x, u8g2_uint_t *y);
  99:u8g2_lib/u8g2_font.c **** void u8g2_font_AdjustXYToDrawP(const void *font, const char *s, u8g2_uint_t *x, u8g2_uint_t *y);
 100:u8g2_lib/u8g2_font.c **** 
 101:u8g2_lib/u8g2_font.c **** /* use case: Baseline origin known, return minimal box */
 102:u8g2_lib/u8g2_font.c **** void u8g2_font_GetStrMinBox(u8g2_t *u8g2, const void *font, const char *s, u8g2_uint_t *x, u8g2_uin
 103:u8g2_lib/u8g2_font.c **** 
 104:u8g2_lib/u8g2_font.c **** /* procedures */
 105:u8g2_lib/u8g2_font.c **** 
 106:u8g2_lib/u8g2_font.c **** /*========================================================================*/
 107:u8g2_lib/u8g2_font.c **** /* low level byte and word access */
 108:u8g2_lib/u8g2_font.c **** 
 109:u8g2_lib/u8g2_font.c **** /* removed NOINLINE, because it leads to smaller code, might also be faster */
 110:u8g2_lib/u8g2_font.c **** //static uint8_t u8g2_font_get_byte(const uint8_t *font, uint8_t offset) U8G2_NOINLINE;
 111:u8g2_lib/u8g2_font.c **** static uint8_t u8g2_font_get_byte(const uint8_t *font, uint8_t offset)
 112:u8g2_lib/u8g2_font.c **** {
  29              		.loc 1 112 0
  30              		.cfi_startproc
  31              		@ args = 0, pretend = 0, frame = 0
  32              		@ frame_needed = 0, uses_anonymous_args = 0
  33              		@ link register save eliminated.
  34              	.LVL0:
 113:u8g2_lib/u8g2_font.c ****   font += offset;
 114:u8g2_lib/u8g2_font.c ****   return u8x8_pgm_read( font );  
 115:u8g2_lib/u8g2_font.c **** }
  35              		.loc 1 115 0
  36 0000 405C     		ldrb	r0, [r0, r1]	@ zero_extendqisi2
  37              	.LVL1:
  38 0002 7047     		bx	lr
  39              		.cfi_endproc
  40              	.LFE0:
  42              		.section	.text.u8g2_font_get_word,"ax",%progbits
  43              		.align	2
  44              		.thumb
  45              		.thumb_func
  47              	u8g2_font_get_word:
  48              	.LFB1:
 116:u8g2_lib/u8g2_font.c **** 
 117:u8g2_lib/u8g2_font.c **** static uint16_t u8g2_font_get_word(const uint8_t *font, uint8_t offset) U8G2_NOINLINE; 
 118:u8g2_lib/u8g2_font.c **** static uint16_t u8g2_font_get_word(const uint8_t *font, uint8_t offset)
 119:u8g2_lib/u8g2_font.c **** {
  49              		.loc 1 119 0
  50              		.cfi_startproc
  51              		@ args = 0, pretend = 0, frame = 0
  52              		@ frame_needed = 0, uses_anonymous_args = 0
  53              		@ link register save eliminated.
  54              	.LVL2:
 120:u8g2_lib/u8g2_font.c ****     uint16_t pos;
ARM GAS  C:\Users\master\AppData\Local\Temp\ccxO0czL.s 			page 4


 121:u8g2_lib/u8g2_font.c ****     font += offset;
  55              		.loc 1 121 0
  56 0000 4318     		adds	r3, r0, r1
  57              	.LVL3:
 122:u8g2_lib/u8g2_font.c ****     pos = u8x8_pgm_read( font );
  58              		.loc 1 122 0
  59 0002 405C     		ldrb	r0, [r0, r1]	@ zero_extendqisi2
  60              	.LVL4:
 123:u8g2_lib/u8g2_font.c ****     font++;
 124:u8g2_lib/u8g2_font.c ****     pos <<= 8;
 125:u8g2_lib/u8g2_font.c ****     pos += u8x8_pgm_read( font);
  61              		.loc 1 125 0
  62 0004 5B78     		ldrb	r3, [r3, #1]	@ zero_extendqisi2
  63              	.LVL5:
  64 0006 03EB0020 		add	r0, r3, r0, lsl #8
  65              	.LVL6:
 126:u8g2_lib/u8g2_font.c ****     return pos;
 127:u8g2_lib/u8g2_font.c **** }
  66              		.loc 1 127 0
  67 000a 80B2     		uxth	r0, r0
  68 000c 7047     		bx	lr
  69              		.cfi_endproc
  70              	.LFE1:
  72 000e 00BF     		.section	.text.u8g2_font_calc_vref_font,"ax",%progbits
  73              		.align	2
  74              		.global	u8g2_font_calc_vref_font
  75              		.thumb
  76              		.thumb_func
  78              	u8g2_font_calc_vref_font:
  79              	.LFB31:
 128:u8g2_lib/u8g2_font.c **** 
 129:u8g2_lib/u8g2_font.c **** /*========================================================================*/
 130:u8g2_lib/u8g2_font.c **** /* new font format */
 131:u8g2_lib/u8g2_font.c **** void u8g2_read_font_info(u8g2_font_info_t *font_info, const uint8_t *font)
 132:u8g2_lib/u8g2_font.c **** {
 133:u8g2_lib/u8g2_font.c ****   /* offset 0 */
 134:u8g2_lib/u8g2_font.c ****   font_info->glyph_cnt = u8g2_font_get_byte(font, 0);
 135:u8g2_lib/u8g2_font.c ****   font_info->bbx_mode = u8g2_font_get_byte(font, 1);
 136:u8g2_lib/u8g2_font.c ****   font_info->bits_per_0 = u8g2_font_get_byte(font, 2);
 137:u8g2_lib/u8g2_font.c ****   font_info->bits_per_1 = u8g2_font_get_byte(font, 3);
 138:u8g2_lib/u8g2_font.c ****   
 139:u8g2_lib/u8g2_font.c ****   /* offset 4 */
 140:u8g2_lib/u8g2_font.c ****   font_info->bits_per_char_width = u8g2_font_get_byte(font, 4);
 141:u8g2_lib/u8g2_font.c ****   font_info->bits_per_char_height = u8g2_font_get_byte(font, 5);
 142:u8g2_lib/u8g2_font.c ****   font_info->bits_per_char_x = u8g2_font_get_byte(font, 6);
 143:u8g2_lib/u8g2_font.c ****   font_info->bits_per_char_y = u8g2_font_get_byte(font, 7);
 144:u8g2_lib/u8g2_font.c ****   font_info->bits_per_delta_x = u8g2_font_get_byte(font, 8);
 145:u8g2_lib/u8g2_font.c ****   
 146:u8g2_lib/u8g2_font.c ****   /* offset 9 */
 147:u8g2_lib/u8g2_font.c ****   font_info->max_char_width = u8g2_font_get_byte(font, 9);
 148:u8g2_lib/u8g2_font.c ****   font_info->max_char_height = u8g2_font_get_byte(font, 10);
 149:u8g2_lib/u8g2_font.c ****   font_info->x_offset = u8g2_font_get_byte(font, 11);
 150:u8g2_lib/u8g2_font.c ****   font_info->y_offset = u8g2_font_get_byte(font, 12);
 151:u8g2_lib/u8g2_font.c ****   
 152:u8g2_lib/u8g2_font.c ****   /* offset 13 */
 153:u8g2_lib/u8g2_font.c ****   font_info->ascent_A = u8g2_font_get_byte(font, 13);
 154:u8g2_lib/u8g2_font.c ****   font_info->descent_g = u8g2_font_get_byte(font, 14);
ARM GAS  C:\Users\master\AppData\Local\Temp\ccxO0czL.s 			page 5


 155:u8g2_lib/u8g2_font.c ****   font_info->ascent_para = u8g2_font_get_byte(font, 15);
 156:u8g2_lib/u8g2_font.c ****   font_info->descent_para = u8g2_font_get_byte(font, 16);
 157:u8g2_lib/u8g2_font.c ****   
 158:u8g2_lib/u8g2_font.c ****   /* offset 17 */
 159:u8g2_lib/u8g2_font.c ****   font_info->start_pos_upper_A = u8g2_font_get_word(font, 17);
 160:u8g2_lib/u8g2_font.c ****   font_info->start_pos_lower_a = u8g2_font_get_word(font, 19); 
 161:u8g2_lib/u8g2_font.c ****   
 162:u8g2_lib/u8g2_font.c ****   /* offset 21 */
 163:u8g2_lib/u8g2_font.c **** #ifdef U8G2_WITH_UNICODE
 164:u8g2_lib/u8g2_font.c ****   font_info->start_pos_unicode = u8g2_font_get_word(font, 21); 
 165:u8g2_lib/u8g2_font.c **** #endif
 166:u8g2_lib/u8g2_font.c **** }
 167:u8g2_lib/u8g2_font.c **** 
 168:u8g2_lib/u8g2_font.c **** 
 169:u8g2_lib/u8g2_font.c **** /* calculate the overall length of the font, only used to create the picture for the google wiki */
 170:u8g2_lib/u8g2_font.c **** size_t u8g2_GetFontSize(const uint8_t *font_arg)
 171:u8g2_lib/u8g2_font.c **** {
 172:u8g2_lib/u8g2_font.c ****   uint16_t e;
 173:u8g2_lib/u8g2_font.c ****   const uint8_t *font = font_arg;
 174:u8g2_lib/u8g2_font.c ****   font += U8G2_FONT_DATA_STRUCT_SIZE;
 175:u8g2_lib/u8g2_font.c ****   
 176:u8g2_lib/u8g2_font.c ****   for(;;)
 177:u8g2_lib/u8g2_font.c ****   {
 178:u8g2_lib/u8g2_font.c ****     if ( u8x8_pgm_read( font + 1 ) == 0 )
 179:u8g2_lib/u8g2_font.c ****       break;
 180:u8g2_lib/u8g2_font.c ****     font += u8x8_pgm_read( font + 1 );
 181:u8g2_lib/u8g2_font.c ****   }
 182:u8g2_lib/u8g2_font.c ****   
 183:u8g2_lib/u8g2_font.c ****   /* continue with unicode section */
 184:u8g2_lib/u8g2_font.c ****   font += 2;
 185:u8g2_lib/u8g2_font.c **** 
 186:u8g2_lib/u8g2_font.c ****   /* skip unicode lookup table */
 187:u8g2_lib/u8g2_font.c ****   font += u8g2_font_get_word(font, 0);
 188:u8g2_lib/u8g2_font.c ****   
 189:u8g2_lib/u8g2_font.c ****   for(;;)
 190:u8g2_lib/u8g2_font.c ****   {
 191:u8g2_lib/u8g2_font.c ****     e = u8x8_pgm_read( font );
 192:u8g2_lib/u8g2_font.c ****     e <<= 8;
 193:u8g2_lib/u8g2_font.c ****     e |= u8x8_pgm_read( font + 1 );
 194:u8g2_lib/u8g2_font.c ****     if ( e == 0 )
 195:u8g2_lib/u8g2_font.c ****       break;
 196:u8g2_lib/u8g2_font.c ****     font += u8x8_pgm_read( font + 2 );    
 197:u8g2_lib/u8g2_font.c ****   }
 198:u8g2_lib/u8g2_font.c ****   
 199:u8g2_lib/u8g2_font.c ****   return (font - font_arg) + 2;
 200:u8g2_lib/u8g2_font.c **** }
 201:u8g2_lib/u8g2_font.c **** 
 202:u8g2_lib/u8g2_font.c **** /*========================================================================*/
 203:u8g2_lib/u8g2_font.c **** /* u8g2 interface, font access */
 204:u8g2_lib/u8g2_font.c **** 
 205:u8g2_lib/u8g2_font.c **** uint8_t u8g2_GetFontBBXWidth(u8g2_t *u8g2)
 206:u8g2_lib/u8g2_font.c **** {
 207:u8g2_lib/u8g2_font.c ****   return u8g2->font_info.max_char_width;		/* new font info structure */
 208:u8g2_lib/u8g2_font.c **** }
 209:u8g2_lib/u8g2_font.c **** 
 210:u8g2_lib/u8g2_font.c **** uint8_t u8g2_GetFontBBXHeight(u8g2_t *u8g2)
 211:u8g2_lib/u8g2_font.c **** {
ARM GAS  C:\Users\master\AppData\Local\Temp\ccxO0czL.s 			page 6


 212:u8g2_lib/u8g2_font.c ****   return u8g2->font_info.max_char_height;		/* new font info structure */
 213:u8g2_lib/u8g2_font.c **** }
 214:u8g2_lib/u8g2_font.c **** 
 215:u8g2_lib/u8g2_font.c **** int8_t u8g2_GetFontBBXOffX(u8g2_t *u8g2) U8G2_NOINLINE;
 216:u8g2_lib/u8g2_font.c **** int8_t u8g2_GetFontBBXOffX(u8g2_t *u8g2)
 217:u8g2_lib/u8g2_font.c **** {
 218:u8g2_lib/u8g2_font.c ****   return u8g2->font_info.x_offset;		/* new font info structure */
 219:u8g2_lib/u8g2_font.c **** }
 220:u8g2_lib/u8g2_font.c **** 
 221:u8g2_lib/u8g2_font.c **** int8_t u8g2_GetFontBBXOffY(u8g2_t *u8g2) U8G2_NOINLINE;
 222:u8g2_lib/u8g2_font.c **** int8_t u8g2_GetFontBBXOffY(u8g2_t *u8g2)
 223:u8g2_lib/u8g2_font.c **** {
 224:u8g2_lib/u8g2_font.c ****   return u8g2->font_info.y_offset;		/* new font info structure */
 225:u8g2_lib/u8g2_font.c **** }
 226:u8g2_lib/u8g2_font.c **** 
 227:u8g2_lib/u8g2_font.c **** uint8_t u8g2_GetFontCapitalAHeight(u8g2_t *u8g2) U8G2_NOINLINE; 
 228:u8g2_lib/u8g2_font.c **** uint8_t u8g2_GetFontCapitalAHeight(u8g2_t *u8g2)
 229:u8g2_lib/u8g2_font.c **** {
 230:u8g2_lib/u8g2_font.c ****   return u8g2->font_info.ascent_A;		/* new font info structure */
 231:u8g2_lib/u8g2_font.c **** }
 232:u8g2_lib/u8g2_font.c **** 
 233:u8g2_lib/u8g2_font.c **** /*========================================================================*/
 234:u8g2_lib/u8g2_font.c **** /* glyph handling */
 235:u8g2_lib/u8g2_font.c **** 
 236:u8g2_lib/u8g2_font.c **** /* optimized */
 237:u8g2_lib/u8g2_font.c **** uint8_t u8g2_font_decode_get_unsigned_bits(u8g2_font_decode_t *f, uint8_t cnt) 
 238:u8g2_lib/u8g2_font.c **** {
 239:u8g2_lib/u8g2_font.c ****   uint8_t val;
 240:u8g2_lib/u8g2_font.c ****   uint8_t bit_pos = f->decode_bit_pos;
 241:u8g2_lib/u8g2_font.c ****   uint8_t bit_pos_plus_cnt;
 242:u8g2_lib/u8g2_font.c ****   
 243:u8g2_lib/u8g2_font.c ****   //val = *(f->decode_ptr);
 244:u8g2_lib/u8g2_font.c ****   val = u8x8_pgm_read( f->decode_ptr );  
 245:u8g2_lib/u8g2_font.c ****   
 246:u8g2_lib/u8g2_font.c ****   val >>= bit_pos;
 247:u8g2_lib/u8g2_font.c ****   bit_pos_plus_cnt = bit_pos;
 248:u8g2_lib/u8g2_font.c ****   bit_pos_plus_cnt += cnt;
 249:u8g2_lib/u8g2_font.c ****   if ( bit_pos_plus_cnt >= 8 )
 250:u8g2_lib/u8g2_font.c ****   {
 251:u8g2_lib/u8g2_font.c ****     uint8_t s = 8;
 252:u8g2_lib/u8g2_font.c ****     s -= bit_pos;
 253:u8g2_lib/u8g2_font.c ****     f->decode_ptr++;
 254:u8g2_lib/u8g2_font.c ****     //val |= *(f->decode_ptr) << (8-bit_pos);
 255:u8g2_lib/u8g2_font.c ****     val |= u8x8_pgm_read( f->decode_ptr ) << (s);
 256:u8g2_lib/u8g2_font.c ****     //bit_pos -= 8;
 257:u8g2_lib/u8g2_font.c ****     bit_pos_plus_cnt -= 8;
 258:u8g2_lib/u8g2_font.c ****   }
 259:u8g2_lib/u8g2_font.c ****   val &= (1U<<cnt)-1;
 260:u8g2_lib/u8g2_font.c ****   //bit_pos += cnt;
 261:u8g2_lib/u8g2_font.c ****   
 262:u8g2_lib/u8g2_font.c ****   f->decode_bit_pos = bit_pos_plus_cnt;
 263:u8g2_lib/u8g2_font.c ****   return val;
 264:u8g2_lib/u8g2_font.c **** }
 265:u8g2_lib/u8g2_font.c **** 
 266:u8g2_lib/u8g2_font.c **** 
 267:u8g2_lib/u8g2_font.c **** /*
 268:u8g2_lib/u8g2_font.c ****     2 bit --> cnt = 2
ARM GAS  C:\Users\master\AppData\Local\Temp\ccxO0czL.s 			page 7


 269:u8g2_lib/u8g2_font.c ****       -2,-1,0. 1
 270:u8g2_lib/u8g2_font.c **** 
 271:u8g2_lib/u8g2_font.c ****     3 bit --> cnt = 3
 272:u8g2_lib/u8g2_font.c ****       -2,-1,0. 1
 273:u8g2_lib/u8g2_font.c ****       -4,-3,-2,-1,0,1,2,3
 274:u8g2_lib/u8g2_font.c **** 
 275:u8g2_lib/u8g2_font.c ****       if ( x < 0 )
 276:u8g2_lib/u8g2_font.c **** 	r = bits(x-1)+1;
 277:u8g2_lib/u8g2_font.c ****     else
 278:u8g2_lib/u8g2_font.c **** 	r = bits(x)+1;
 279:u8g2_lib/u8g2_font.c **** 
 280:u8g2_lib/u8g2_font.c **** */
 281:u8g2_lib/u8g2_font.c **** /* optimized */
 282:u8g2_lib/u8g2_font.c **** int8_t u8g2_font_decode_get_signed_bits(u8g2_font_decode_t *f, uint8_t cnt)
 283:u8g2_lib/u8g2_font.c **** {
 284:u8g2_lib/u8g2_font.c ****   int8_t v, d;
 285:u8g2_lib/u8g2_font.c ****   v = (int8_t)u8g2_font_decode_get_unsigned_bits(f, cnt);
 286:u8g2_lib/u8g2_font.c ****   d = 1;
 287:u8g2_lib/u8g2_font.c ****   cnt--;
 288:u8g2_lib/u8g2_font.c ****   d <<= cnt;
 289:u8g2_lib/u8g2_font.c ****   v -= d;
 290:u8g2_lib/u8g2_font.c ****   return v;
 291:u8g2_lib/u8g2_font.c ****   //return (int8_t)u8g2_font_decode_get_unsigned_bits(f, cnt) - ((1<<cnt)>>1);
 292:u8g2_lib/u8g2_font.c **** }
 293:u8g2_lib/u8g2_font.c **** 
 294:u8g2_lib/u8g2_font.c **** 
 295:u8g2_lib/u8g2_font.c **** #ifdef U8G2_WITH_FONT_ROTATION
 296:u8g2_lib/u8g2_font.c **** u8g2_uint_t u8g2_add_vector_y(u8g2_uint_t dy, int8_t x, int8_t y, uint8_t dir)
 297:u8g2_lib/u8g2_font.c **** {
 298:u8g2_lib/u8g2_font.c ****   switch(dir)
 299:u8g2_lib/u8g2_font.c ****   {
 300:u8g2_lib/u8g2_font.c ****     case 0:
 301:u8g2_lib/u8g2_font.c ****       dy += y;
 302:u8g2_lib/u8g2_font.c ****       break;
 303:u8g2_lib/u8g2_font.c ****     case 1:
 304:u8g2_lib/u8g2_font.c ****       dy += x;
 305:u8g2_lib/u8g2_font.c ****       break;
 306:u8g2_lib/u8g2_font.c ****     case 2:
 307:u8g2_lib/u8g2_font.c ****       dy -= y;
 308:u8g2_lib/u8g2_font.c ****       break;
 309:u8g2_lib/u8g2_font.c ****     default:
 310:u8g2_lib/u8g2_font.c ****       dy -= x;
 311:u8g2_lib/u8g2_font.c ****       break;      
 312:u8g2_lib/u8g2_font.c ****   }
 313:u8g2_lib/u8g2_font.c ****   return dy;
 314:u8g2_lib/u8g2_font.c **** }
 315:u8g2_lib/u8g2_font.c **** 
 316:u8g2_lib/u8g2_font.c **** u8g2_uint_t u8g2_add_vector_x(u8g2_uint_t dx, int8_t x, int8_t y, uint8_t dir)
 317:u8g2_lib/u8g2_font.c **** {
 318:u8g2_lib/u8g2_font.c ****   switch(dir)
 319:u8g2_lib/u8g2_font.c ****   {
 320:u8g2_lib/u8g2_font.c ****     case 0:
 321:u8g2_lib/u8g2_font.c ****       dx += x;
 322:u8g2_lib/u8g2_font.c ****       break;
 323:u8g2_lib/u8g2_font.c ****     case 1:
 324:u8g2_lib/u8g2_font.c ****       dx -= y;
 325:u8g2_lib/u8g2_font.c ****       break;
ARM GAS  C:\Users\master\AppData\Local\Temp\ccxO0czL.s 			page 8


 326:u8g2_lib/u8g2_font.c ****     case 2:
 327:u8g2_lib/u8g2_font.c ****       dx -= x;
 328:u8g2_lib/u8g2_font.c ****       break;
 329:u8g2_lib/u8g2_font.c ****     default:
 330:u8g2_lib/u8g2_font.c ****       dx += y;
 331:u8g2_lib/u8g2_font.c ****       break;      
 332:u8g2_lib/u8g2_font.c ****   }
 333:u8g2_lib/u8g2_font.c ****   return dx;
 334:u8g2_lib/u8g2_font.c **** }
 335:u8g2_lib/u8g2_font.c **** 
 336:u8g2_lib/u8g2_font.c **** /*
 337:u8g2_lib/u8g2_font.c **** // does not make sense, 50 bytes more required on avr
 338:u8g2_lib/u8g2_font.c **** void u8g2_add_vector(u8g2_uint_t *xp, u8g2_uint_t *yp, int8_t x, int8_t y, uint8_t dir)
 339:u8g2_lib/u8g2_font.c **** {
 340:u8g2_lib/u8g2_font.c ****   u8g2_uint_t x_ = *xp;
 341:u8g2_lib/u8g2_font.c ****   u8g2_uint_t y_ = *yp;
 342:u8g2_lib/u8g2_font.c ****   switch(dir)
 343:u8g2_lib/u8g2_font.c ****   {
 344:u8g2_lib/u8g2_font.c ****     case 0:
 345:u8g2_lib/u8g2_font.c ****       y_ += y;
 346:u8g2_lib/u8g2_font.c ****       x_ += x;
 347:u8g2_lib/u8g2_font.c ****       break;
 348:u8g2_lib/u8g2_font.c ****     case 1:
 349:u8g2_lib/u8g2_font.c ****       y_ += x;
 350:u8g2_lib/u8g2_font.c ****       x_ -= y;
 351:u8g2_lib/u8g2_font.c ****       break;
 352:u8g2_lib/u8g2_font.c ****     case 2:
 353:u8g2_lib/u8g2_font.c ****       y_ -= y;
 354:u8g2_lib/u8g2_font.c ****       x_ -= x;
 355:u8g2_lib/u8g2_font.c ****       break;
 356:u8g2_lib/u8g2_font.c ****     default:
 357:u8g2_lib/u8g2_font.c ****       y_ -= x;
 358:u8g2_lib/u8g2_font.c ****       x_ += y;
 359:u8g2_lib/u8g2_font.c ****       break;      
 360:u8g2_lib/u8g2_font.c ****   }
 361:u8g2_lib/u8g2_font.c ****   *xp = x_;
 362:u8g2_lib/u8g2_font.c ****   *yp = y_;
 363:u8g2_lib/u8g2_font.c **** }
 364:u8g2_lib/u8g2_font.c **** */
 365:u8g2_lib/u8g2_font.c **** #endif
 366:u8g2_lib/u8g2_font.c **** 
 367:u8g2_lib/u8g2_font.c **** 
 368:u8g2_lib/u8g2_font.c **** 
 369:u8g2_lib/u8g2_font.c **** /*
 370:u8g2_lib/u8g2_font.c ****   Description:
 371:u8g2_lib/u8g2_font.c ****     Draw a run-length area of the glyph. "len" can have any size and the line
 372:u8g2_lib/u8g2_font.c ****     length has to be wrapped at the glyph border.
 373:u8g2_lib/u8g2_font.c ****   Args:
 374:u8g2_lib/u8g2_font.c ****     len: 					Length of the line
 375:u8g2_lib/u8g2_font.c ****     is_foreground			foreground/background?
 376:u8g2_lib/u8g2_font.c ****     u8g2->font_decode.target_x		X position
 377:u8g2_lib/u8g2_font.c ****     u8g2->font_decode.target_y		Y position
 378:u8g2_lib/u8g2_font.c ****     u8g2->font_decode.is_transparent	Transparent mode
 379:u8g2_lib/u8g2_font.c ****   Return:
 380:u8g2_lib/u8g2_font.c ****     -
 381:u8g2_lib/u8g2_font.c ****   Calls:
 382:u8g2_lib/u8g2_font.c ****     u8g2_Draw90Line()
ARM GAS  C:\Users\master\AppData\Local\Temp\ccxO0czL.s 			page 9


 383:u8g2_lib/u8g2_font.c ****   Called by:
 384:u8g2_lib/u8g2_font.c ****     u8g2_font_decode_glyph()
 385:u8g2_lib/u8g2_font.c **** */
 386:u8g2_lib/u8g2_font.c **** /* optimized */
 387:u8g2_lib/u8g2_font.c **** void u8g2_font_decode_len(u8g2_t *u8g2, uint8_t len, uint8_t is_foreground)
 388:u8g2_lib/u8g2_font.c **** {
 389:u8g2_lib/u8g2_font.c ****   uint8_t cnt;	/* total number of remaining pixels, which have to be drawn */
 390:u8g2_lib/u8g2_font.c ****   uint8_t rem; 	/* remaining pixel to the right edge of the glyph */
 391:u8g2_lib/u8g2_font.c ****   uint8_t current;	/* number of pixels, which need to be drawn for the draw procedure */
 392:u8g2_lib/u8g2_font.c ****     /* current is either equal to cnt or equal to rem */
 393:u8g2_lib/u8g2_font.c ****   
 394:u8g2_lib/u8g2_font.c ****   /* local coordinates of the glyph */
 395:u8g2_lib/u8g2_font.c ****   uint8_t lx,ly;
 396:u8g2_lib/u8g2_font.c ****   
 397:u8g2_lib/u8g2_font.c ****   /* target position on the screen */
 398:u8g2_lib/u8g2_font.c ****   u8g2_uint_t x, y;
 399:u8g2_lib/u8g2_font.c ****   
 400:u8g2_lib/u8g2_font.c ****   u8g2_font_decode_t *decode = &(u8g2->font_decode);
 401:u8g2_lib/u8g2_font.c ****   
 402:u8g2_lib/u8g2_font.c ****   cnt = len;
 403:u8g2_lib/u8g2_font.c ****   
 404:u8g2_lib/u8g2_font.c ****   /* get the local position */
 405:u8g2_lib/u8g2_font.c ****   lx = decode->x;
 406:u8g2_lib/u8g2_font.c ****   ly = decode->y;
 407:u8g2_lib/u8g2_font.c ****   
 408:u8g2_lib/u8g2_font.c ****   for(;;)
 409:u8g2_lib/u8g2_font.c ****   {
 410:u8g2_lib/u8g2_font.c ****     /* calculate the number of pixel to the right edge of the glyph */
 411:u8g2_lib/u8g2_font.c ****     rem = decode->glyph_width;
 412:u8g2_lib/u8g2_font.c ****     rem -= lx;
 413:u8g2_lib/u8g2_font.c ****     
 414:u8g2_lib/u8g2_font.c ****     /* calculate how many pixel to draw. This is either to the right edge */
 415:u8g2_lib/u8g2_font.c ****     /* or lesser, if not enough pixel are left */
 416:u8g2_lib/u8g2_font.c ****     current = rem;
 417:u8g2_lib/u8g2_font.c ****     if ( cnt < rem )
 418:u8g2_lib/u8g2_font.c ****       current = cnt;
 419:u8g2_lib/u8g2_font.c ****     
 420:u8g2_lib/u8g2_font.c ****     
 421:u8g2_lib/u8g2_font.c ****     /* now draw the line, but apply the rotation around the glyph target position */
 422:u8g2_lib/u8g2_font.c ****     //u8g2_font_decode_draw_pixel(u8g2, lx,ly,current, is_foreground);
 423:u8g2_lib/u8g2_font.c **** 
 424:u8g2_lib/u8g2_font.c ****     /* get target position */
 425:u8g2_lib/u8g2_font.c ****     x = decode->target_x;
 426:u8g2_lib/u8g2_font.c ****     y = decode->target_y;
 427:u8g2_lib/u8g2_font.c **** 
 428:u8g2_lib/u8g2_font.c ****     /* apply rotation */
 429:u8g2_lib/u8g2_font.c **** #ifdef U8G2_WITH_FONT_ROTATION
 430:u8g2_lib/u8g2_font.c ****     
 431:u8g2_lib/u8g2_font.c ****     x = u8g2_add_vector_x(x, lx, ly, decode->dir);
 432:u8g2_lib/u8g2_font.c ****     y = u8g2_add_vector_y(y, lx, ly, decode->dir);
 433:u8g2_lib/u8g2_font.c ****     
 434:u8g2_lib/u8g2_font.c ****     //u8g2_add_vector(&x, &y, lx, ly, decode->dir);
 435:u8g2_lib/u8g2_font.c ****     
 436:u8g2_lib/u8g2_font.c **** #else
 437:u8g2_lib/u8g2_font.c ****     x += lx;
 438:u8g2_lib/u8g2_font.c ****     y += ly;
 439:u8g2_lib/u8g2_font.c **** #endif
ARM GAS  C:\Users\master\AppData\Local\Temp\ccxO0czL.s 			page 10


 440:u8g2_lib/u8g2_font.c ****     
 441:u8g2_lib/u8g2_font.c ****     /* draw foreground and background (if required) */
 442:u8g2_lib/u8g2_font.c ****     if ( is_foreground )
 443:u8g2_lib/u8g2_font.c ****     {
 444:u8g2_lib/u8g2_font.c ****       u8g2->draw_color = decode->fg_color;			/* draw_color will be restored later */
 445:u8g2_lib/u8g2_font.c ****       u8g2_DrawHVLine(u8g2, 
 446:u8g2_lib/u8g2_font.c **** 	x, 
 447:u8g2_lib/u8g2_font.c **** 	y, 
 448:u8g2_lib/u8g2_font.c **** 	current, 
 449:u8g2_lib/u8g2_font.c **** #ifdef U8G2_WITH_FONT_ROTATION
 450:u8g2_lib/u8g2_font.c **** 	/* dir */ decode->dir
 451:u8g2_lib/u8g2_font.c **** #else
 452:u8g2_lib/u8g2_font.c **** 	0
 453:u8g2_lib/u8g2_font.c **** #endif
 454:u8g2_lib/u8g2_font.c ****       );
 455:u8g2_lib/u8g2_font.c ****     }
 456:u8g2_lib/u8g2_font.c ****     else if ( decode->is_transparent == 0 )    
 457:u8g2_lib/u8g2_font.c ****     {
 458:u8g2_lib/u8g2_font.c ****       u8g2->draw_color = decode->bg_color;			/* draw_color will be restored later */
 459:u8g2_lib/u8g2_font.c ****       u8g2_DrawHVLine(u8g2, 
 460:u8g2_lib/u8g2_font.c **** 	x, 
 461:u8g2_lib/u8g2_font.c **** 	y, 
 462:u8g2_lib/u8g2_font.c **** 	current, 
 463:u8g2_lib/u8g2_font.c **** #ifdef U8G2_WITH_FONT_ROTATION
 464:u8g2_lib/u8g2_font.c **** 	/* dir */ decode->dir
 465:u8g2_lib/u8g2_font.c **** #else
 466:u8g2_lib/u8g2_font.c **** 	0
 467:u8g2_lib/u8g2_font.c **** #endif
 468:u8g2_lib/u8g2_font.c ****       );   
 469:u8g2_lib/u8g2_font.c ****     }
 470:u8g2_lib/u8g2_font.c ****     
 471:u8g2_lib/u8g2_font.c ****     /* check, whether the end of the run length code has been reached */
 472:u8g2_lib/u8g2_font.c ****     if ( cnt < rem )
 473:u8g2_lib/u8g2_font.c ****       break;
 474:u8g2_lib/u8g2_font.c ****     cnt -= rem;
 475:u8g2_lib/u8g2_font.c ****     lx = 0;
 476:u8g2_lib/u8g2_font.c ****     ly++;
 477:u8g2_lib/u8g2_font.c ****   }
 478:u8g2_lib/u8g2_font.c ****   lx += cnt;
 479:u8g2_lib/u8g2_font.c ****   
 480:u8g2_lib/u8g2_font.c ****   decode->x = lx;
 481:u8g2_lib/u8g2_font.c ****   decode->y = ly;
 482:u8g2_lib/u8g2_font.c ****   
 483:u8g2_lib/u8g2_font.c **** }
 484:u8g2_lib/u8g2_font.c **** 
 485:u8g2_lib/u8g2_font.c **** static void u8g2_font_setup_decode(u8g2_t *u8g2, const uint8_t *glyph_data)
 486:u8g2_lib/u8g2_font.c **** {
 487:u8g2_lib/u8g2_font.c ****   u8g2_font_decode_t *decode = &(u8g2->font_decode);
 488:u8g2_lib/u8g2_font.c ****   decode->decode_ptr = glyph_data;
 489:u8g2_lib/u8g2_font.c ****   decode->decode_bit_pos = 0;
 490:u8g2_lib/u8g2_font.c ****   
 491:u8g2_lib/u8g2_font.c ****   /* 8 Nov 2015, this is already done in the glyph data search procedure */
 492:u8g2_lib/u8g2_font.c ****   /*
 493:u8g2_lib/u8g2_font.c ****   decode->decode_ptr += 1;
 494:u8g2_lib/u8g2_font.c ****   decode->decode_ptr += 1;
 495:u8g2_lib/u8g2_font.c ****   */
 496:u8g2_lib/u8g2_font.c ****   
ARM GAS  C:\Users\master\AppData\Local\Temp\ccxO0czL.s 			page 11


 497:u8g2_lib/u8g2_font.c ****   decode->glyph_width = u8g2_font_decode_get_unsigned_bits(decode, u8g2->font_info.bits_per_char_wi
 498:u8g2_lib/u8g2_font.c ****   decode->glyph_height = u8g2_font_decode_get_unsigned_bits(decode,u8g2->font_info.bits_per_char_he
 499:u8g2_lib/u8g2_font.c ****   
 500:u8g2_lib/u8g2_font.c ****   decode->fg_color = u8g2->draw_color;
 501:u8g2_lib/u8g2_font.c ****   decode->bg_color = (decode->fg_color == 0 ? 1 : 0);
 502:u8g2_lib/u8g2_font.c **** }
 503:u8g2_lib/u8g2_font.c **** 
 504:u8g2_lib/u8g2_font.c **** 
 505:u8g2_lib/u8g2_font.c **** /*
 506:u8g2_lib/u8g2_font.c ****   Description:
 507:u8g2_lib/u8g2_font.c ****     Decode and draw a glyph.
 508:u8g2_lib/u8g2_font.c ****   Args:
 509:u8g2_lib/u8g2_font.c ****     glyph_data: 					Pointer to the compressed glyph data of the font
 510:u8g2_lib/u8g2_font.c ****     u8g2->font_decode.target_x		X position
 511:u8g2_lib/u8g2_font.c ****     u8g2->font_decode.target_y		Y position
 512:u8g2_lib/u8g2_font.c ****     u8g2->font_decode.is_transparent	Transparent mode
 513:u8g2_lib/u8g2_font.c ****   Return:
 514:u8g2_lib/u8g2_font.c ****     Width (delta x advance) of the glyph.
 515:u8g2_lib/u8g2_font.c ****   Calls:
 516:u8g2_lib/u8g2_font.c ****     u8g2_font_decode_len()
 517:u8g2_lib/u8g2_font.c **** */
 518:u8g2_lib/u8g2_font.c **** /* optimized */
 519:u8g2_lib/u8g2_font.c **** int8_t u8g2_font_decode_glyph(u8g2_t *u8g2, const uint8_t *glyph_data)
 520:u8g2_lib/u8g2_font.c **** {
 521:u8g2_lib/u8g2_font.c ****   uint8_t a, b;
 522:u8g2_lib/u8g2_font.c ****   int8_t x, y;
 523:u8g2_lib/u8g2_font.c ****   int8_t d;
 524:u8g2_lib/u8g2_font.c ****   int8_t h;
 525:u8g2_lib/u8g2_font.c ****   u8g2_font_decode_t *decode = &(u8g2->font_decode);
 526:u8g2_lib/u8g2_font.c ****     
 527:u8g2_lib/u8g2_font.c ****   u8g2_font_setup_decode(u8g2, glyph_data);
 528:u8g2_lib/u8g2_font.c ****   h = u8g2->font_decode.glyph_height;
 529:u8g2_lib/u8g2_font.c ****   
 530:u8g2_lib/u8g2_font.c ****   x = u8g2_font_decode_get_signed_bits(decode, u8g2->font_info.bits_per_char_x);
 531:u8g2_lib/u8g2_font.c ****   y = u8g2_font_decode_get_signed_bits(decode, u8g2->font_info.bits_per_char_y);
 532:u8g2_lib/u8g2_font.c ****   d = u8g2_font_decode_get_signed_bits(decode, u8g2->font_info.bits_per_delta_x);
 533:u8g2_lib/u8g2_font.c ****   
 534:u8g2_lib/u8g2_font.c ****   if ( decode->glyph_width > 0 )
 535:u8g2_lib/u8g2_font.c ****   {
 536:u8g2_lib/u8g2_font.c **** #ifdef U8G2_WITH_FONT_ROTATION
 537:u8g2_lib/u8g2_font.c ****     decode->target_x = u8g2_add_vector_x(decode->target_x, x, -(h+y), decode->dir);
 538:u8g2_lib/u8g2_font.c ****     decode->target_y = u8g2_add_vector_y(decode->target_y, x, -(h+y), decode->dir);
 539:u8g2_lib/u8g2_font.c ****     
 540:u8g2_lib/u8g2_font.c ****     //u8g2_add_vector(&(decode->target_x), &(decode->target_y), x, -(h+y), decode->dir);
 541:u8g2_lib/u8g2_font.c **** 
 542:u8g2_lib/u8g2_font.c **** #else
 543:u8g2_lib/u8g2_font.c ****     decode->target_x += x;
 544:u8g2_lib/u8g2_font.c ****     decode->target_y -= h+y;
 545:u8g2_lib/u8g2_font.c **** #endif
 546:u8g2_lib/u8g2_font.c ****     //u8g2_add_vector(&(decode->target_x), &(decode->target_y), x, -(h+y), decode->dir);
 547:u8g2_lib/u8g2_font.c **** 
 548:u8g2_lib/u8g2_font.c **** #ifdef U8G2_WITH_INTERSECTION
 549:u8g2_lib/u8g2_font.c ****     {
 550:u8g2_lib/u8g2_font.c ****       u8g2_uint_t x0, x1, y0, y1;
 551:u8g2_lib/u8g2_font.c ****       x0 = decode->target_x;
 552:u8g2_lib/u8g2_font.c ****       y0 = decode->target_y;
 553:u8g2_lib/u8g2_font.c ****       x1 = x0;
ARM GAS  C:\Users\master\AppData\Local\Temp\ccxO0czL.s 			page 12


 554:u8g2_lib/u8g2_font.c ****       y1 = y0;
 555:u8g2_lib/u8g2_font.c ****       
 556:u8g2_lib/u8g2_font.c **** #ifdef U8G2_WITH_FONT_ROTATION
 557:u8g2_lib/u8g2_font.c ****       switch(decode->dir)
 558:u8g2_lib/u8g2_font.c ****       {
 559:u8g2_lib/u8g2_font.c **** 	case 0:
 560:u8g2_lib/u8g2_font.c **** 	    x1 += decode->glyph_width;
 561:u8g2_lib/u8g2_font.c **** 	    y1 += h;
 562:u8g2_lib/u8g2_font.c **** 	    break;
 563:u8g2_lib/u8g2_font.c **** 	case 1:
 564:u8g2_lib/u8g2_font.c **** 	    x0 -= h;
 565:u8g2_lib/u8g2_font.c **** 	    x0++;	/* shift down, because of assymetric boundaries for the interseciton test */
 566:u8g2_lib/u8g2_font.c **** 	    x1++;
 567:u8g2_lib/u8g2_font.c **** 	    y1 += decode->glyph_width;
 568:u8g2_lib/u8g2_font.c **** 	    break;
 569:u8g2_lib/u8g2_font.c **** 	case 2:
 570:u8g2_lib/u8g2_font.c **** 	    x0 -= decode->glyph_width;
 571:u8g2_lib/u8g2_font.c **** 	    x0++;	/* shift down, because of assymetric boundaries for the interseciton test */
 572:u8g2_lib/u8g2_font.c **** 	    x1++;
 573:u8g2_lib/u8g2_font.c **** 	    y0 -= h;
 574:u8g2_lib/u8g2_font.c **** 	    y0++;	/* shift down, because of assymetric boundaries for the interseciton test */
 575:u8g2_lib/u8g2_font.c **** 	    y1++;
 576:u8g2_lib/u8g2_font.c **** 	    break;	  
 577:u8g2_lib/u8g2_font.c **** 	case 3:
 578:u8g2_lib/u8g2_font.c **** 	    x1 += h;
 579:u8g2_lib/u8g2_font.c **** 	    y0 -= decode->glyph_width;
 580:u8g2_lib/u8g2_font.c **** 	    y0++;	/* shift down, because of assymetric boundaries for the interseciton test */
 581:u8g2_lib/u8g2_font.c **** 	    y1++;
 582:u8g2_lib/u8g2_font.c **** 	    break;	  
 583:u8g2_lib/u8g2_font.c ****       }
 584:u8g2_lib/u8g2_font.c **** #else /* U8G2_WITH_FONT_ROTATION */
 585:u8g2_lib/u8g2_font.c ****       x1 += decode->glyph_width;
 586:u8g2_lib/u8g2_font.c ****       y1 += h;      
 587:u8g2_lib/u8g2_font.c **** #endif
 588:u8g2_lib/u8g2_font.c ****       
 589:u8g2_lib/u8g2_font.c ****       if ( u8g2_IsIntersection(u8g2, x0, y0, x1, y1) == 0 ) 
 590:u8g2_lib/u8g2_font.c **** 	return d;
 591:u8g2_lib/u8g2_font.c ****     }
 592:u8g2_lib/u8g2_font.c **** #endif /* U8G2_WITH_INTERSECTION */
 593:u8g2_lib/u8g2_font.c ****    
 594:u8g2_lib/u8g2_font.c ****     /* reset local x/y position */
 595:u8g2_lib/u8g2_font.c ****     decode->x = 0;
 596:u8g2_lib/u8g2_font.c ****     decode->y = 0;
 597:u8g2_lib/u8g2_font.c ****     
 598:u8g2_lib/u8g2_font.c ****     /* decode glyph */
 599:u8g2_lib/u8g2_font.c ****     for(;;)
 600:u8g2_lib/u8g2_font.c ****     {
 601:u8g2_lib/u8g2_font.c ****       a = u8g2_font_decode_get_unsigned_bits(decode, u8g2->font_info.bits_per_0);
 602:u8g2_lib/u8g2_font.c ****       b = u8g2_font_decode_get_unsigned_bits(decode, u8g2->font_info.bits_per_1);
 603:u8g2_lib/u8g2_font.c ****       do
 604:u8g2_lib/u8g2_font.c ****       {
 605:u8g2_lib/u8g2_font.c **** 	u8g2_font_decode_len(u8g2, a, 0);
 606:u8g2_lib/u8g2_font.c **** 	u8g2_font_decode_len(u8g2, b, 1);
 607:u8g2_lib/u8g2_font.c ****       } while( u8g2_font_decode_get_unsigned_bits(decode, 1) != 0 );
 608:u8g2_lib/u8g2_font.c **** 
 609:u8g2_lib/u8g2_font.c ****       if ( decode->y >= h )
 610:u8g2_lib/u8g2_font.c **** 	break;
ARM GAS  C:\Users\master\AppData\Local\Temp\ccxO0czL.s 			page 13


 611:u8g2_lib/u8g2_font.c ****     }
 612:u8g2_lib/u8g2_font.c ****     
 613:u8g2_lib/u8g2_font.c ****     /* restore the u8g2 draw color, because this is modified by the decode algo */
 614:u8g2_lib/u8g2_font.c ****     u8g2->draw_color = decode->fg_color;
 615:u8g2_lib/u8g2_font.c ****   }
 616:u8g2_lib/u8g2_font.c ****   return d;
 617:u8g2_lib/u8g2_font.c **** }
 618:u8g2_lib/u8g2_font.c **** 
 619:u8g2_lib/u8g2_font.c **** /*
 620:u8g2_lib/u8g2_font.c ****   Description:
 621:u8g2_lib/u8g2_font.c ****     Find the starting point of the glyph data.
 622:u8g2_lib/u8g2_font.c ****   Args:
 623:u8g2_lib/u8g2_font.c ****     encoding: Encoding (ASCII or Unicode) of the glyph
 624:u8g2_lib/u8g2_font.c ****   Return:
 625:u8g2_lib/u8g2_font.c ****     Address of the glyph data or NULL, if the encoding is not avialable in the font.
 626:u8g2_lib/u8g2_font.c **** */
 627:u8g2_lib/u8g2_font.c **** const uint8_t *u8g2_font_get_glyph_data(u8g2_t *u8g2, uint16_t encoding)
 628:u8g2_lib/u8g2_font.c **** {
 629:u8g2_lib/u8g2_font.c ****   const uint8_t *font = u8g2->font;
 630:u8g2_lib/u8g2_font.c ****   font += U8G2_FONT_DATA_STRUCT_SIZE;
 631:u8g2_lib/u8g2_font.c **** 
 632:u8g2_lib/u8g2_font.c ****   
 633:u8g2_lib/u8g2_font.c ****   if ( encoding <= 255 )
 634:u8g2_lib/u8g2_font.c ****   {
 635:u8g2_lib/u8g2_font.c ****     if ( encoding >= 'a' )
 636:u8g2_lib/u8g2_font.c ****     {
 637:u8g2_lib/u8g2_font.c ****       font += u8g2->font_info.start_pos_lower_a;
 638:u8g2_lib/u8g2_font.c ****     }
 639:u8g2_lib/u8g2_font.c ****     else if ( encoding >= 'A' )
 640:u8g2_lib/u8g2_font.c ****     {
 641:u8g2_lib/u8g2_font.c ****       font += u8g2->font_info.start_pos_upper_A;
 642:u8g2_lib/u8g2_font.c ****     }
 643:u8g2_lib/u8g2_font.c ****     
 644:u8g2_lib/u8g2_font.c ****     for(;;)
 645:u8g2_lib/u8g2_font.c ****     {
 646:u8g2_lib/u8g2_font.c ****       if ( u8x8_pgm_read( font + 1 ) == 0 )
 647:u8g2_lib/u8g2_font.c **** 	break;
 648:u8g2_lib/u8g2_font.c ****       if ( u8x8_pgm_read( font ) == encoding )
 649:u8g2_lib/u8g2_font.c ****       {
 650:u8g2_lib/u8g2_font.c **** 	return font+2;	/* skip encoding and glyph size */
 651:u8g2_lib/u8g2_font.c ****       }
 652:u8g2_lib/u8g2_font.c ****       font += u8x8_pgm_read( font + 1 );
 653:u8g2_lib/u8g2_font.c ****     }
 654:u8g2_lib/u8g2_font.c ****   }
 655:u8g2_lib/u8g2_font.c **** #ifdef U8G2_WITH_UNICODE
 656:u8g2_lib/u8g2_font.c ****   else
 657:u8g2_lib/u8g2_font.c ****   {
 658:u8g2_lib/u8g2_font.c ****     uint16_t e;
 659:u8g2_lib/u8g2_font.c ****     const uint8_t *unicode_lookup_table;
 660:u8g2_lib/u8g2_font.c ****     
 661:u8g2_lib/u8g2_font.c **** // removed, there is now the new index table
 662:u8g2_lib/u8g2_font.c **** //#ifdef  __unix__
 663:u8g2_lib/u8g2_font.c **** //    if ( u8g2->last_font_data != NULL && encoding >= u8g2->last_unicode )
 664:u8g2_lib/u8g2_font.c **** //    {
 665:u8g2_lib/u8g2_font.c **** //	font = u8g2->last_font_data;
 666:u8g2_lib/u8g2_font.c **** //    }
 667:u8g2_lib/u8g2_font.c **** //    else
ARM GAS  C:\Users\master\AppData\Local\Temp\ccxO0czL.s 			page 14


 668:u8g2_lib/u8g2_font.c **** //#endif 
 669:u8g2_lib/u8g2_font.c **** 
 670:u8g2_lib/u8g2_font.c ****     font += u8g2->font_info.start_pos_unicode;
 671:u8g2_lib/u8g2_font.c ****     unicode_lookup_table = font; 
 672:u8g2_lib/u8g2_font.c ****   
 673:u8g2_lib/u8g2_font.c ****     /* issue 596: search for the glyph start in the unicode lookup table */
 674:u8g2_lib/u8g2_font.c ****     do
 675:u8g2_lib/u8g2_font.c ****     {
 676:u8g2_lib/u8g2_font.c ****       font += u8g2_font_get_word(unicode_lookup_table, 0);
 677:u8g2_lib/u8g2_font.c ****       e = u8g2_font_get_word(unicode_lookup_table, 2);
 678:u8g2_lib/u8g2_font.c ****       unicode_lookup_table+=4;
 679:u8g2_lib/u8g2_font.c ****     } while( e < encoding );
 680:u8g2_lib/u8g2_font.c ****     
 681:u8g2_lib/u8g2_font.c ****   
 682:u8g2_lib/u8g2_font.c ****     for(;;)
 683:u8g2_lib/u8g2_font.c ****     {
 684:u8g2_lib/u8g2_font.c ****       e = u8x8_pgm_read( font );
 685:u8g2_lib/u8g2_font.c ****       e <<= 8;
 686:u8g2_lib/u8g2_font.c ****       e |= u8x8_pgm_read( font + 1 );
 687:u8g2_lib/u8g2_font.c ****   
 688:u8g2_lib/u8g2_font.c **** // removed, there is now the new index table  
 689:u8g2_lib/u8g2_font.c **** //#ifdef  __unix__
 690:u8g2_lib/u8g2_font.c **** //      if ( encoding < e )
 691:u8g2_lib/u8g2_font.c **** //        break;
 692:u8g2_lib/u8g2_font.c **** //#endif 
 693:u8g2_lib/u8g2_font.c **** 
 694:u8g2_lib/u8g2_font.c ****       if ( e == 0 )
 695:u8g2_lib/u8g2_font.c **** 	break;
 696:u8g2_lib/u8g2_font.c ****   
 697:u8g2_lib/u8g2_font.c ****       if ( e == encoding )
 698:u8g2_lib/u8g2_font.c ****       {
 699:u8g2_lib/u8g2_font.c **** // removed, there is now the new index table
 700:u8g2_lib/u8g2_font.c **** //#ifdef  __unix__
 701:u8g2_lib/u8g2_font.c **** //	u8g2->last_font_data = font;
 702:u8g2_lib/u8g2_font.c **** //	u8g2->last_unicode = encoding;
 703:u8g2_lib/u8g2_font.c **** //#endif 
 704:u8g2_lib/u8g2_font.c **** 	return font+3;	/* skip encoding and glyph size */
 705:u8g2_lib/u8g2_font.c ****       }
 706:u8g2_lib/u8g2_font.c ****       font += u8x8_pgm_read( font + 2 );
 707:u8g2_lib/u8g2_font.c ****     }  
 708:u8g2_lib/u8g2_font.c ****   }
 709:u8g2_lib/u8g2_font.c **** #endif
 710:u8g2_lib/u8g2_font.c ****   
 711:u8g2_lib/u8g2_font.c ****   return NULL;
 712:u8g2_lib/u8g2_font.c **** }
 713:u8g2_lib/u8g2_font.c **** 
 714:u8g2_lib/u8g2_font.c **** static u8g2_uint_t u8g2_font_draw_glyph(u8g2_t *u8g2, u8g2_uint_t x, u8g2_uint_t y, uint16_t encodi
 715:u8g2_lib/u8g2_font.c **** {
 716:u8g2_lib/u8g2_font.c ****   u8g2_uint_t dx = 0;
 717:u8g2_lib/u8g2_font.c ****   u8g2->font_decode.target_x = x;
 718:u8g2_lib/u8g2_font.c ****   u8g2->font_decode.target_y = y;
 719:u8g2_lib/u8g2_font.c ****   //u8g2->font_decode.is_transparent = is_transparent; this is already set
 720:u8g2_lib/u8g2_font.c ****   //u8g2->font_decode.dir = dir;
 721:u8g2_lib/u8g2_font.c ****   const uint8_t *glyph_data = u8g2_font_get_glyph_data(u8g2, encoding);
 722:u8g2_lib/u8g2_font.c ****   if ( glyph_data != NULL )
 723:u8g2_lib/u8g2_font.c ****   {
 724:u8g2_lib/u8g2_font.c ****     dx = u8g2_font_decode_glyph(u8g2, glyph_data);
ARM GAS  C:\Users\master\AppData\Local\Temp\ccxO0czL.s 			page 15


 725:u8g2_lib/u8g2_font.c ****   }
 726:u8g2_lib/u8g2_font.c ****   return dx;
 727:u8g2_lib/u8g2_font.c **** }
 728:u8g2_lib/u8g2_font.c **** 
 729:u8g2_lib/u8g2_font.c **** 
 730:u8g2_lib/u8g2_font.c **** 
 731:u8g2_lib/u8g2_font.c **** uint8_t u8g2_IsGlyph(u8g2_t *u8g2, uint16_t requested_encoding)
 732:u8g2_lib/u8g2_font.c **** {
 733:u8g2_lib/u8g2_font.c ****   /* updated to new code */
 734:u8g2_lib/u8g2_font.c ****   if ( u8g2_font_get_glyph_data(u8g2, requested_encoding) != NULL )
 735:u8g2_lib/u8g2_font.c ****     return 1;
 736:u8g2_lib/u8g2_font.c ****   return 0;
 737:u8g2_lib/u8g2_font.c **** }
 738:u8g2_lib/u8g2_font.c **** 
 739:u8g2_lib/u8g2_font.c **** /* side effect: updates u8g2->font_decode and u8g2->glyph_x_offset */
 740:u8g2_lib/u8g2_font.c **** int8_t u8g2_GetGlyphWidth(u8g2_t *u8g2, uint16_t requested_encoding)
 741:u8g2_lib/u8g2_font.c **** {
 742:u8g2_lib/u8g2_font.c ****   const uint8_t *glyph_data = u8g2_font_get_glyph_data(u8g2, requested_encoding);
 743:u8g2_lib/u8g2_font.c ****   if ( glyph_data == NULL )
 744:u8g2_lib/u8g2_font.c ****     return 0; 
 745:u8g2_lib/u8g2_font.c ****   
 746:u8g2_lib/u8g2_font.c ****   u8g2_font_setup_decode(u8g2, glyph_data);
 747:u8g2_lib/u8g2_font.c ****   u8g2->glyph_x_offset = u8g2_font_decode_get_signed_bits(&(u8g2->font_decode), u8g2->font_info.bit
 748:u8g2_lib/u8g2_font.c ****   u8g2_font_decode_get_signed_bits(&(u8g2->font_decode), u8g2->font_info.bits_per_char_y);
 749:u8g2_lib/u8g2_font.c ****   
 750:u8g2_lib/u8g2_font.c ****   /* glyph width is here: u8g2->font_decode.glyph_width */
 751:u8g2_lib/u8g2_font.c **** 
 752:u8g2_lib/u8g2_font.c ****   return u8g2_font_decode_get_signed_bits(&(u8g2->font_decode), u8g2->font_info.bits_per_delta_x);
 753:u8g2_lib/u8g2_font.c **** }
 754:u8g2_lib/u8g2_font.c **** 
 755:u8g2_lib/u8g2_font.c **** 
 756:u8g2_lib/u8g2_font.c **** /*
 757:u8g2_lib/u8g2_font.c ****   set one of:
 758:u8g2_lib/u8g2_font.c ****     U8G2_FONT_MODE_TRANSPARENT
 759:u8g2_lib/u8g2_font.c ****     U8G2_FONT_MODE_SOLID
 760:u8g2_lib/u8g2_font.c ****     U8G2_FONT_MODE_NONE
 761:u8g2_lib/u8g2_font.c ****   This has been changed for the new font procedures  
 762:u8g2_lib/u8g2_font.c **** */
 763:u8g2_lib/u8g2_font.c **** void u8g2_SetFontMode(u8g2_t *u8g2, uint8_t is_transparent)
 764:u8g2_lib/u8g2_font.c **** {
 765:u8g2_lib/u8g2_font.c ****   u8g2->font_decode.is_transparent = is_transparent;		// new font procedures
 766:u8g2_lib/u8g2_font.c **** }
 767:u8g2_lib/u8g2_font.c **** 
 768:u8g2_lib/u8g2_font.c **** u8g2_uint_t u8g2_DrawGlyph(u8g2_t *u8g2, u8g2_uint_t x, u8g2_uint_t y, uint16_t encoding)
 769:u8g2_lib/u8g2_font.c **** {
 770:u8g2_lib/u8g2_font.c **** #ifdef U8G2_WITH_FONT_ROTATION
 771:u8g2_lib/u8g2_font.c ****   switch(u8g2->font_decode.dir)
 772:u8g2_lib/u8g2_font.c ****   {
 773:u8g2_lib/u8g2_font.c ****     case 0:
 774:u8g2_lib/u8g2_font.c ****       y += u8g2->font_calc_vref(u8g2);
 775:u8g2_lib/u8g2_font.c ****       break;
 776:u8g2_lib/u8g2_font.c ****     case 1:
 777:u8g2_lib/u8g2_font.c ****       x -= u8g2->font_calc_vref(u8g2);
 778:u8g2_lib/u8g2_font.c ****       break;
 779:u8g2_lib/u8g2_font.c ****     case 2:
 780:u8g2_lib/u8g2_font.c ****       y -= u8g2->font_calc_vref(u8g2);
 781:u8g2_lib/u8g2_font.c ****       break;
ARM GAS  C:\Users\master\AppData\Local\Temp\ccxO0czL.s 			page 16


 782:u8g2_lib/u8g2_font.c ****     case 3:
 783:u8g2_lib/u8g2_font.c ****       x += u8g2->font_calc_vref(u8g2);
 784:u8g2_lib/u8g2_font.c ****       break;
 785:u8g2_lib/u8g2_font.c ****   }
 786:u8g2_lib/u8g2_font.c **** #else
 787:u8g2_lib/u8g2_font.c ****   y += u8g2->font_calc_vref(u8g2);
 788:u8g2_lib/u8g2_font.c **** #endif
 789:u8g2_lib/u8g2_font.c ****   return u8g2_font_draw_glyph(u8g2, x, y, encoding);
 790:u8g2_lib/u8g2_font.c **** }
 791:u8g2_lib/u8g2_font.c **** 
 792:u8g2_lib/u8g2_font.c **** static u8g2_uint_t u8g2_draw_string(u8g2_t *u8g2, u8g2_uint_t x, u8g2_uint_t y, const char *str) U8
 793:u8g2_lib/u8g2_font.c **** static u8g2_uint_t u8g2_draw_string(u8g2_t *u8g2, u8g2_uint_t x, u8g2_uint_t y, const char *str)
 794:u8g2_lib/u8g2_font.c **** {
 795:u8g2_lib/u8g2_font.c ****   uint16_t e;
 796:u8g2_lib/u8g2_font.c ****   u8g2_uint_t delta, sum;
 797:u8g2_lib/u8g2_font.c ****   u8x8_utf8_init(u8g2_GetU8x8(u8g2));
 798:u8g2_lib/u8g2_font.c ****   sum = 0;
 799:u8g2_lib/u8g2_font.c ****   for(;;)
 800:u8g2_lib/u8g2_font.c ****   {
 801:u8g2_lib/u8g2_font.c ****     e = u8g2->u8x8.next_cb(u8g2_GetU8x8(u8g2), (uint8_t)*str);
 802:u8g2_lib/u8g2_font.c ****     if ( e == 0x0ffff )
 803:u8g2_lib/u8g2_font.c ****       break;
 804:u8g2_lib/u8g2_font.c ****     str++;
 805:u8g2_lib/u8g2_font.c ****     if ( e != 0x0fffe )
 806:u8g2_lib/u8g2_font.c ****     {
 807:u8g2_lib/u8g2_font.c ****       delta = u8g2_DrawGlyph(u8g2, x, y, e);
 808:u8g2_lib/u8g2_font.c ****     
 809:u8g2_lib/u8g2_font.c **** #ifdef U8G2_WITH_FONT_ROTATION
 810:u8g2_lib/u8g2_font.c ****       switch(u8g2->font_decode.dir)
 811:u8g2_lib/u8g2_font.c ****       {
 812:u8g2_lib/u8g2_font.c **** 	case 0:
 813:u8g2_lib/u8g2_font.c **** 	  x += delta;
 814:u8g2_lib/u8g2_font.c **** 	  break;
 815:u8g2_lib/u8g2_font.c **** 	case 1:
 816:u8g2_lib/u8g2_font.c **** 	  y += delta;
 817:u8g2_lib/u8g2_font.c **** 	  break;
 818:u8g2_lib/u8g2_font.c **** 	case 2:
 819:u8g2_lib/u8g2_font.c **** 	  x -= delta;
 820:u8g2_lib/u8g2_font.c **** 	  break;
 821:u8g2_lib/u8g2_font.c **** 	case 3:
 822:u8g2_lib/u8g2_font.c **** 	  y -= delta;
 823:u8g2_lib/u8g2_font.c **** 	  break;
 824:u8g2_lib/u8g2_font.c ****       }
 825:u8g2_lib/u8g2_font.c ****       
 826:u8g2_lib/u8g2_font.c ****       /*
 827:u8g2_lib/u8g2_font.c ****       // requires 10 bytes more on avr
 828:u8g2_lib/u8g2_font.c ****       x = u8g2_add_vector_x(x, delta, 0, u8g2->font_decode.dir);
 829:u8g2_lib/u8g2_font.c ****       y = u8g2_add_vector_y(y, delta, 0, u8g2->font_decode.dir);
 830:u8g2_lib/u8g2_font.c ****       */
 831:u8g2_lib/u8g2_font.c **** 
 832:u8g2_lib/u8g2_font.c **** #else
 833:u8g2_lib/u8g2_font.c ****       x += delta;
 834:u8g2_lib/u8g2_font.c **** #endif
 835:u8g2_lib/u8g2_font.c **** 
 836:u8g2_lib/u8g2_font.c ****       sum += delta;    
 837:u8g2_lib/u8g2_font.c ****     }
 838:u8g2_lib/u8g2_font.c ****   }
ARM GAS  C:\Users\master\AppData\Local\Temp\ccxO0czL.s 			page 17


 839:u8g2_lib/u8g2_font.c ****   return sum;
 840:u8g2_lib/u8g2_font.c **** }
 841:u8g2_lib/u8g2_font.c **** 
 842:u8g2_lib/u8g2_font.c **** u8g2_uint_t u8g2_DrawStr(u8g2_t *u8g2, u8g2_uint_t x, u8g2_uint_t y, const char *str)
 843:u8g2_lib/u8g2_font.c **** {
 844:u8g2_lib/u8g2_font.c ****   u8g2->u8x8.next_cb = u8x8_ascii_next;
 845:u8g2_lib/u8g2_font.c ****   return u8g2_draw_string(u8g2, x, y, str);
 846:u8g2_lib/u8g2_font.c **** }
 847:u8g2_lib/u8g2_font.c **** 
 848:u8g2_lib/u8g2_font.c **** /*
 849:u8g2_lib/u8g2_font.c **** source: https://en.wikipedia.org/wiki/UTF-8
 850:u8g2_lib/u8g2_font.c **** Bits	from 		to			bytes	Byte 1 		Byte 2 		Byte 3 		Byte 4 		Byte 5 		Byte 6
 851:u8g2_lib/u8g2_font.c ****   7 	U+0000 		U+007F 		1 		0xxxxxxx
 852:u8g2_lib/u8g2_font.c **** 11 	U+0080 		U+07FF 		2 		110xxxxx 	10xxxxxx
 853:u8g2_lib/u8g2_font.c **** 16 	U+0800 		U+FFFF 		3 		1110xxxx 	10xxxxxx 	10xxxxxx
 854:u8g2_lib/u8g2_font.c **** 21 	U+10000 	U+1FFFFF 	4 		11110xxx 	10xxxxxx 	10xxxxxx 	10xxxxxx
 855:u8g2_lib/u8g2_font.c **** 26 	U+200000 	U+3FFFFFF 	5 		111110xx 	10xxxxxx 	10xxxxxx 	10xxxxxx 	10xxxxxx
 856:u8g2_lib/u8g2_font.c **** 31 	U+4000000 	U+7FFFFFFF 	6 		1111110x 	10xxxxxx 	10xxxxxx 	10xxxxxx 	10xxxxxx 	10xxxxxx  
 857:u8g2_lib/u8g2_font.c **** */
 858:u8g2_lib/u8g2_font.c **** u8g2_uint_t u8g2_DrawUTF8(u8g2_t *u8g2, u8g2_uint_t x, u8g2_uint_t y, const char *str)
 859:u8g2_lib/u8g2_font.c **** {
 860:u8g2_lib/u8g2_font.c ****   u8g2->u8x8.next_cb = u8x8_utf8_next;
 861:u8g2_lib/u8g2_font.c ****   return u8g2_draw_string(u8g2, x, y, str);
 862:u8g2_lib/u8g2_font.c **** }
 863:u8g2_lib/u8g2_font.c **** 
 864:u8g2_lib/u8g2_font.c **** 
 865:u8g2_lib/u8g2_font.c **** 
 866:u8g2_lib/u8g2_font.c **** u8g2_uint_t u8g2_DrawExtendedUTF8(u8g2_t *u8g2, u8g2_uint_t x, u8g2_uint_t y, uint8_t to_left, u8g2
 867:u8g2_lib/u8g2_font.c **** {
 868:u8g2_lib/u8g2_font.c ****   u8g2->u8x8.next_cb = u8x8_utf8_next;
 869:u8g2_lib/u8g2_font.c ****   uint16_t e_prev = 0x0ffff;
 870:u8g2_lib/u8g2_font.c ****   uint16_t e;
 871:u8g2_lib/u8g2_font.c ****   u8g2_uint_t delta, sum, k;
 872:u8g2_lib/u8g2_font.c ****   u8x8_utf8_init(u8g2_GetU8x8(u8g2));
 873:u8g2_lib/u8g2_font.c ****   sum = 0;
 874:u8g2_lib/u8g2_font.c ****   for(;;)
 875:u8g2_lib/u8g2_font.c ****   {
 876:u8g2_lib/u8g2_font.c ****     e = u8g2->u8x8.next_cb(u8g2_GetU8x8(u8g2), (uint8_t)*str);
 877:u8g2_lib/u8g2_font.c ****     if ( e == 0x0ffff )
 878:u8g2_lib/u8g2_font.c ****       break;
 879:u8g2_lib/u8g2_font.c ****     str++;
 880:u8g2_lib/u8g2_font.c ****     if ( e != 0x0fffe )
 881:u8g2_lib/u8g2_font.c ****     {
 882:u8g2_lib/u8g2_font.c ****       delta = u8g2_GetGlyphWidth(u8g2, e);
 883:u8g2_lib/u8g2_font.c **** 	    
 884:u8g2_lib/u8g2_font.c ****       if ( to_left )
 885:u8g2_lib/u8g2_font.c ****       {
 886:u8g2_lib/u8g2_font.c ****         k = u8g2_GetKerning(u8g2, kerning, e, e_prev);
 887:u8g2_lib/u8g2_font.c **** 	delta -= k;
 888:u8g2_lib/u8g2_font.c **** 	x -= delta;
 889:u8g2_lib/u8g2_font.c ****       }
 890:u8g2_lib/u8g2_font.c ****       else
 891:u8g2_lib/u8g2_font.c ****       {
 892:u8g2_lib/u8g2_font.c ****         k = u8g2_GetKerning(u8g2, kerning, e_prev, e);
 893:u8g2_lib/u8g2_font.c **** 	delta -= k;
 894:u8g2_lib/u8g2_font.c ****       }
 895:u8g2_lib/u8g2_font.c ****       e_prev = e;
ARM GAS  C:\Users\master\AppData\Local\Temp\ccxO0czL.s 			page 18


 896:u8g2_lib/u8g2_font.c **** 
 897:u8g2_lib/u8g2_font.c ****       u8g2_DrawGlyph(u8g2, x, y, e);
 898:u8g2_lib/u8g2_font.c ****       if ( to_left )
 899:u8g2_lib/u8g2_font.c ****       {
 900:u8g2_lib/u8g2_font.c ****       }
 901:u8g2_lib/u8g2_font.c ****       else
 902:u8g2_lib/u8g2_font.c ****       {
 903:u8g2_lib/u8g2_font.c **** 	x += delta;
 904:u8g2_lib/u8g2_font.c **** 	x -= k;
 905:u8g2_lib/u8g2_font.c ****       }
 906:u8g2_lib/u8g2_font.c ****       
 907:u8g2_lib/u8g2_font.c ****       sum += delta;    
 908:u8g2_lib/u8g2_font.c ****     }
 909:u8g2_lib/u8g2_font.c ****   }
 910:u8g2_lib/u8g2_font.c ****   return sum;
 911:u8g2_lib/u8g2_font.c **** }
 912:u8g2_lib/u8g2_font.c **** 
 913:u8g2_lib/u8g2_font.c **** u8g2_uint_t u8g2_DrawExtUTF8(u8g2_t *u8g2, u8g2_uint_t x, u8g2_uint_t y, uint8_t to_left, const uin
 914:u8g2_lib/u8g2_font.c **** {
 915:u8g2_lib/u8g2_font.c ****   u8g2->u8x8.next_cb = u8x8_utf8_next;
 916:u8g2_lib/u8g2_font.c ****   uint16_t e_prev = 0x0ffff;
 917:u8g2_lib/u8g2_font.c ****   uint16_t e;
 918:u8g2_lib/u8g2_font.c ****   u8g2_uint_t delta, sum, k;
 919:u8g2_lib/u8g2_font.c ****   u8x8_utf8_init(u8g2_GetU8x8(u8g2));
 920:u8g2_lib/u8g2_font.c ****   sum = 0;
 921:u8g2_lib/u8g2_font.c ****   for(;;)
 922:u8g2_lib/u8g2_font.c ****   {
 923:u8g2_lib/u8g2_font.c ****     e = u8g2->u8x8.next_cb(u8g2_GetU8x8(u8g2), (uint8_t)*str);
 924:u8g2_lib/u8g2_font.c ****     if ( e == 0x0ffff )
 925:u8g2_lib/u8g2_font.c ****       break;
 926:u8g2_lib/u8g2_font.c ****     str++;
 927:u8g2_lib/u8g2_font.c ****     if ( e != 0x0fffe )
 928:u8g2_lib/u8g2_font.c ****     {
 929:u8g2_lib/u8g2_font.c ****       delta = u8g2_GetGlyphWidth(u8g2, e);
 930:u8g2_lib/u8g2_font.c **** 	    
 931:u8g2_lib/u8g2_font.c ****       if ( to_left )
 932:u8g2_lib/u8g2_font.c ****       {
 933:u8g2_lib/u8g2_font.c ****         k = u8g2_GetKerningByTable(u8g2, kerning_table, e, e_prev);
 934:u8g2_lib/u8g2_font.c **** 	delta -= k;
 935:u8g2_lib/u8g2_font.c **** 	x -= delta;
 936:u8g2_lib/u8g2_font.c ****       }
 937:u8g2_lib/u8g2_font.c ****       else
 938:u8g2_lib/u8g2_font.c ****       {
 939:u8g2_lib/u8g2_font.c ****         k = u8g2_GetKerningByTable(u8g2, kerning_table, e_prev, e);
 940:u8g2_lib/u8g2_font.c **** 	delta -= k;
 941:u8g2_lib/u8g2_font.c ****       }
 942:u8g2_lib/u8g2_font.c ****       e_prev = e;
 943:u8g2_lib/u8g2_font.c **** 
 944:u8g2_lib/u8g2_font.c ****       if ( to_left )
 945:u8g2_lib/u8g2_font.c ****       {
 946:u8g2_lib/u8g2_font.c ****       }
 947:u8g2_lib/u8g2_font.c ****       else
 948:u8g2_lib/u8g2_font.c ****       {
 949:u8g2_lib/u8g2_font.c **** 	x += delta;
 950:u8g2_lib/u8g2_font.c ****       }
 951:u8g2_lib/u8g2_font.c ****       u8g2_DrawGlyph(u8g2, x, y, e);
 952:u8g2_lib/u8g2_font.c ****       if ( to_left )
ARM GAS  C:\Users\master\AppData\Local\Temp\ccxO0czL.s 			page 19


 953:u8g2_lib/u8g2_font.c ****       {
 954:u8g2_lib/u8g2_font.c ****       }
 955:u8g2_lib/u8g2_font.c ****       else
 956:u8g2_lib/u8g2_font.c ****       {
 957:u8g2_lib/u8g2_font.c **** 	//x += delta;
 958:u8g2_lib/u8g2_font.c **** 	//x -= k;
 959:u8g2_lib/u8g2_font.c ****       }
 960:u8g2_lib/u8g2_font.c ****       
 961:u8g2_lib/u8g2_font.c ****       sum += delta;    
 962:u8g2_lib/u8g2_font.c ****     }
 963:u8g2_lib/u8g2_font.c ****   }
 964:u8g2_lib/u8g2_font.c ****   return sum;
 965:u8g2_lib/u8g2_font.c **** }
 966:u8g2_lib/u8g2_font.c **** 
 967:u8g2_lib/u8g2_font.c **** 
 968:u8g2_lib/u8g2_font.c **** 
 969:u8g2_lib/u8g2_font.c **** /*===============================================*/
 970:u8g2_lib/u8g2_font.c **** 
 971:u8g2_lib/u8g2_font.c **** /* set ascent/descent for reference point calculation */
 972:u8g2_lib/u8g2_font.c **** 
 973:u8g2_lib/u8g2_font.c **** void u8g2_UpdateRefHeight(u8g2_t *u8g2)
 974:u8g2_lib/u8g2_font.c **** {
 975:u8g2_lib/u8g2_font.c ****   if ( u8g2->font == NULL )
 976:u8g2_lib/u8g2_font.c ****     return;
 977:u8g2_lib/u8g2_font.c ****   u8g2->font_ref_ascent = u8g2->font_info.ascent_A;
 978:u8g2_lib/u8g2_font.c ****   u8g2->font_ref_descent = u8g2->font_info.descent_g;
 979:u8g2_lib/u8g2_font.c ****   if ( u8g2->font_height_mode == U8G2_FONT_HEIGHT_MODE_TEXT )
 980:u8g2_lib/u8g2_font.c ****   {
 981:u8g2_lib/u8g2_font.c ****   }
 982:u8g2_lib/u8g2_font.c ****   else if ( u8g2->font_height_mode == U8G2_FONT_HEIGHT_MODE_XTEXT )
 983:u8g2_lib/u8g2_font.c ****   {
 984:u8g2_lib/u8g2_font.c ****     if ( u8g2->font_ref_ascent < u8g2->font_info.ascent_para )
 985:u8g2_lib/u8g2_font.c ****       u8g2->font_ref_ascent = u8g2->font_info.ascent_para;
 986:u8g2_lib/u8g2_font.c ****     if ( u8g2->font_ref_descent > u8g2->font_info.descent_para )
 987:u8g2_lib/u8g2_font.c ****       u8g2->font_ref_descent = u8g2->font_info.descent_para;
 988:u8g2_lib/u8g2_font.c ****   }
 989:u8g2_lib/u8g2_font.c ****   else
 990:u8g2_lib/u8g2_font.c ****   {
 991:u8g2_lib/u8g2_font.c ****     if ( u8g2->font_ref_ascent < u8g2->font_info.max_char_height+u8g2->font_info.y_offset )
 992:u8g2_lib/u8g2_font.c ****       u8g2->font_ref_ascent = u8g2->font_info.max_char_height+u8g2->font_info.y_offset;
 993:u8g2_lib/u8g2_font.c ****     if ( u8g2->font_ref_descent > u8g2->font_info.y_offset )
 994:u8g2_lib/u8g2_font.c ****       u8g2->font_ref_descent = u8g2->font_info.y_offset;
 995:u8g2_lib/u8g2_font.c ****   }  
 996:u8g2_lib/u8g2_font.c **** }
 997:u8g2_lib/u8g2_font.c **** 
 998:u8g2_lib/u8g2_font.c **** void u8g2_SetFontRefHeightText(u8g2_t *u8g2)
 999:u8g2_lib/u8g2_font.c **** {
1000:u8g2_lib/u8g2_font.c ****   u8g2->font_height_mode = U8G2_FONT_HEIGHT_MODE_TEXT;
1001:u8g2_lib/u8g2_font.c ****   u8g2_UpdateRefHeight(u8g2);
1002:u8g2_lib/u8g2_font.c **** }
1003:u8g2_lib/u8g2_font.c **** 
1004:u8g2_lib/u8g2_font.c **** void u8g2_SetFontRefHeightExtendedText(u8g2_t *u8g2)
1005:u8g2_lib/u8g2_font.c **** {
1006:u8g2_lib/u8g2_font.c ****   u8g2->font_height_mode = U8G2_FONT_HEIGHT_MODE_XTEXT;
1007:u8g2_lib/u8g2_font.c ****   u8g2_UpdateRefHeight(u8g2);
1008:u8g2_lib/u8g2_font.c **** }
1009:u8g2_lib/u8g2_font.c **** 
ARM GAS  C:\Users\master\AppData\Local\Temp\ccxO0czL.s 			page 20


1010:u8g2_lib/u8g2_font.c **** void u8g2_SetFontRefHeightAll(u8g2_t *u8g2)
1011:u8g2_lib/u8g2_font.c **** {
1012:u8g2_lib/u8g2_font.c ****   u8g2->font_height_mode = U8G2_FONT_HEIGHT_MODE_ALL;
1013:u8g2_lib/u8g2_font.c ****   u8g2_UpdateRefHeight(u8g2);
1014:u8g2_lib/u8g2_font.c **** }
1015:u8g2_lib/u8g2_font.c **** 
1016:u8g2_lib/u8g2_font.c **** /*===============================================*/
1017:u8g2_lib/u8g2_font.c **** /* callback procedures to correct the y position */
1018:u8g2_lib/u8g2_font.c **** 
1019:u8g2_lib/u8g2_font.c **** u8g2_uint_t u8g2_font_calc_vref_font(U8X8_UNUSED u8g2_t *u8g2)
1020:u8g2_lib/u8g2_font.c **** {
  80              		.loc 1 1020 0
  81              		.cfi_startproc
  82              		@ args = 0, pretend = 0, frame = 0
  83              		@ frame_needed = 0, uses_anonymous_args = 0
  84              		@ link register save eliminated.
  85              	.LVL7:
1021:u8g2_lib/u8g2_font.c ****   return 0;
1022:u8g2_lib/u8g2_font.c **** }
  86              		.loc 1 1022 0
  87 0000 0020     		movs	r0, #0
  88              	.LVL8:
  89 0002 7047     		bx	lr
  90              		.cfi_endproc
  91              	.LFE31:
  93              		.section	.text.u8g2_font_calc_vref_bottom,"ax",%progbits
  94              		.align	2
  95              		.global	u8g2_font_calc_vref_bottom
  96              		.thumb
  97              		.thumb_func
  99              	u8g2_font_calc_vref_bottom:
 100              	.LFB33:
1023:u8g2_lib/u8g2_font.c **** 
1024:u8g2_lib/u8g2_font.c **** void u8g2_SetFontPosBaseline(u8g2_t *u8g2)
1025:u8g2_lib/u8g2_font.c **** {
1026:u8g2_lib/u8g2_font.c ****   u8g2->font_calc_vref = u8g2_font_calc_vref_font;
1027:u8g2_lib/u8g2_font.c **** }
1028:u8g2_lib/u8g2_font.c **** 
1029:u8g2_lib/u8g2_font.c **** 
1030:u8g2_lib/u8g2_font.c **** u8g2_uint_t u8g2_font_calc_vref_bottom(u8g2_t *u8g2)
1031:u8g2_lib/u8g2_font.c **** {
 101              		.loc 1 1031 0
 102              		.cfi_startproc
 103              		@ args = 0, pretend = 0, frame = 0
 104              		@ frame_needed = 0, uses_anonymous_args = 0
 105              		@ link register save eliminated.
 106              	.LVL9:
1032:u8g2_lib/u8g2_font.c ****   return (u8g2_uint_t)(u8g2->font_ref_descent);
 107              		.loc 1 1032 0
 108 0000 90F98F00 		ldrsb	r0, [r0, #143]
 109              	.LVL10:
1033:u8g2_lib/u8g2_font.c **** }
 110              		.loc 1 1033 0
 111 0004 80B2     		uxth	r0, r0
 112 0006 7047     		bx	lr
 113              		.cfi_endproc
 114              	.LFE33:
ARM GAS  C:\Users\master\AppData\Local\Temp\ccxO0czL.s 			page 21


 116              		.section	.text.u8g2_font_calc_vref_top,"ax",%progbits
 117              		.align	2
 118              		.global	u8g2_font_calc_vref_top
 119              		.thumb
 120              		.thumb_func
 122              	u8g2_font_calc_vref_top:
 123              	.LFB35:
1034:u8g2_lib/u8g2_font.c **** 
1035:u8g2_lib/u8g2_font.c **** void u8g2_SetFontPosBottom(u8g2_t *u8g2)
1036:u8g2_lib/u8g2_font.c **** {
1037:u8g2_lib/u8g2_font.c ****   u8g2->font_calc_vref = u8g2_font_calc_vref_bottom;
1038:u8g2_lib/u8g2_font.c **** }
1039:u8g2_lib/u8g2_font.c **** 
1040:u8g2_lib/u8g2_font.c **** u8g2_uint_t u8g2_font_calc_vref_top(u8g2_t *u8g2)
1041:u8g2_lib/u8g2_font.c **** {
 124              		.loc 1 1041 0
 125              		.cfi_startproc
 126              		@ args = 0, pretend = 0, frame = 0
 127              		@ frame_needed = 0, uses_anonymous_args = 0
 128              		@ link register save eliminated.
 129              	.LVL11:
1042:u8g2_lib/u8g2_font.c ****   u8g2_uint_t tmp;
1043:u8g2_lib/u8g2_font.c ****   /* reference pos is one pixel above the upper edge of the reference glyph */
1044:u8g2_lib/u8g2_font.c ****   tmp = (u8g2_uint_t)(u8g2->font_ref_ascent);
 130              		.loc 1 1044 0
 131 0000 90F98E00 		ldrsb	r0, [r0, #142]
 132              	.LVL12:
 133 0004 80B2     		uxth	r0, r0
 134              	.LVL13:
1045:u8g2_lib/u8g2_font.c ****   tmp++;
 135              		.loc 1 1045 0
 136 0006 0130     		adds	r0, r0, #1
 137              	.LVL14:
1046:u8g2_lib/u8g2_font.c ****   return tmp;
1047:u8g2_lib/u8g2_font.c **** }
 138              		.loc 1 1047 0
 139 0008 80B2     		uxth	r0, r0
 140 000a 7047     		bx	lr
 141              		.cfi_endproc
 142              	.LFE35:
 144              		.section	.text.u8g2_font_calc_vref_center,"ax",%progbits
 145              		.align	2
 146              		.global	u8g2_font_calc_vref_center
 147              		.thumb
 148              		.thumb_func
 150              	u8g2_font_calc_vref_center:
 151              	.LFB37:
1048:u8g2_lib/u8g2_font.c **** 
1049:u8g2_lib/u8g2_font.c **** void u8g2_SetFontPosTop(u8g2_t *u8g2)
1050:u8g2_lib/u8g2_font.c **** {
1051:u8g2_lib/u8g2_font.c ****   u8g2->font_calc_vref = u8g2_font_calc_vref_top;
1052:u8g2_lib/u8g2_font.c **** }
1053:u8g2_lib/u8g2_font.c **** 
1054:u8g2_lib/u8g2_font.c **** u8g2_uint_t u8g2_font_calc_vref_center(u8g2_t *u8g2)
1055:u8g2_lib/u8g2_font.c **** {
 152              		.loc 1 1055 0
 153              		.cfi_startproc
ARM GAS  C:\Users\master\AppData\Local\Temp\ccxO0czL.s 			page 22


 154              		@ args = 0, pretend = 0, frame = 0
 155              		@ frame_needed = 0, uses_anonymous_args = 0
 156              		@ link register save eliminated.
 157              	.LVL15:
1056:u8g2_lib/u8g2_font.c ****   int8_t tmp;
1057:u8g2_lib/u8g2_font.c ****   tmp = u8g2->font_ref_ascent;
 158              		.loc 1 1057 0
 159 0000 90F98E30 		ldrsb	r3, [r0, #142]
 160              	.LVL16:
1058:u8g2_lib/u8g2_font.c ****   tmp -= u8g2->font_ref_descent;
 161              		.loc 1 1058 0
 162 0004 90F88F00 		ldrb	r0, [r0, #143]	@ zero_extendqisi2
 163              	.LVL17:
 164 0008 1B1A     		subs	r3, r3, r0
 165              	.LVL18:
 166 000a 5BB2     		sxtb	r3, r3
 167              	.LVL19:
1059:u8g2_lib/u8g2_font.c ****   tmp /= 2;
 168              		.loc 1 1059 0
 169 000c 03EBD373 		add	r3, r3, r3, lsr #31
 170              	.LVL20:
1060:u8g2_lib/u8g2_font.c ****   tmp += u8g2->font_ref_descent;  
 171              		.loc 1 1060 0
 172 0010 00EB6303 		add	r3, r0, r3, asr #1
 173              	.LVL21:
 174 0014 58B2     		sxtb	r0, r3
 175              	.LVL22:
1061:u8g2_lib/u8g2_font.c ****   return tmp;
1062:u8g2_lib/u8g2_font.c **** }
 176              		.loc 1 1062 0
 177 0016 80B2     		uxth	r0, r0
 178              	.LVL23:
 179 0018 7047     		bx	lr
 180              		.cfi_endproc
 181              	.LFE37:
 183 001a 00BF     		.section	.text.u8g2_read_font_info,"ax",%progbits
 184              		.align	2
 185              		.global	u8g2_read_font_info
 186              		.thumb
 187              		.thumb_func
 189              	u8g2_read_font_info:
 190              	.LFB2:
 132:u8g2_lib/u8g2_font.c ****   /* offset 0 */
 191              		.loc 1 132 0
 192              		.cfi_startproc
 193              		@ args = 0, pretend = 0, frame = 0
 194              		@ frame_needed = 0, uses_anonymous_args = 0
 195              	.LVL24:
 196 0000 38B5     		push	{r3, r4, r5, lr}
 197              	.LCFI0:
 198              		.cfi_def_cfa_offset 16
 199              		.cfi_offset 3, -16
 200              		.cfi_offset 4, -12
 201              		.cfi_offset 5, -8
 202              		.cfi_offset 14, -4
 203 0002 0446     		mov	r4, r0
 204 0004 0D46     		mov	r5, r1
ARM GAS  C:\Users\master\AppData\Local\Temp\ccxO0czL.s 			page 23


 134:u8g2_lib/u8g2_font.c ****   font_info->bbx_mode = u8g2_font_get_byte(font, 1);
 205              		.loc 1 134 0
 206 0006 0021     		movs	r1, #0
 207              	.LVL25:
 208 0008 2846     		mov	r0, r5
 209              	.LVL26:
 210 000a FFF7FEFF 		bl	u8g2_font_get_byte
 211              	.LVL27:
 212 000e 2070     		strb	r0, [r4]
 135:u8g2_lib/u8g2_font.c ****   font_info->bits_per_0 = u8g2_font_get_byte(font, 2);
 213              		.loc 1 135 0
 214 0010 0121     		movs	r1, #1
 215 0012 2846     		mov	r0, r5
 216 0014 FFF7FEFF 		bl	u8g2_font_get_byte
 217              	.LVL28:
 218 0018 6070     		strb	r0, [r4, #1]
 136:u8g2_lib/u8g2_font.c ****   font_info->bits_per_1 = u8g2_font_get_byte(font, 3);
 219              		.loc 1 136 0
 220 001a 0221     		movs	r1, #2
 221 001c 2846     		mov	r0, r5
 222 001e FFF7FEFF 		bl	u8g2_font_get_byte
 223              	.LVL29:
 224 0022 A070     		strb	r0, [r4, #2]
 137:u8g2_lib/u8g2_font.c ****   
 225              		.loc 1 137 0
 226 0024 0321     		movs	r1, #3
 227 0026 2846     		mov	r0, r5
 228 0028 FFF7FEFF 		bl	u8g2_font_get_byte
 229              	.LVL30:
 230 002c E070     		strb	r0, [r4, #3]
 140:u8g2_lib/u8g2_font.c ****   font_info->bits_per_char_height = u8g2_font_get_byte(font, 5);
 231              		.loc 1 140 0
 232 002e 0421     		movs	r1, #4
 233 0030 2846     		mov	r0, r5
 234 0032 FFF7FEFF 		bl	u8g2_font_get_byte
 235              	.LVL31:
 236 0036 2071     		strb	r0, [r4, #4]
 141:u8g2_lib/u8g2_font.c ****   font_info->bits_per_char_x = u8g2_font_get_byte(font, 6);
 237              		.loc 1 141 0
 238 0038 0521     		movs	r1, #5
 239 003a 2846     		mov	r0, r5
 240 003c FFF7FEFF 		bl	u8g2_font_get_byte
 241              	.LVL32:
 242 0040 6071     		strb	r0, [r4, #5]
 142:u8g2_lib/u8g2_font.c ****   font_info->bits_per_char_y = u8g2_font_get_byte(font, 7);
 243              		.loc 1 142 0
 244 0042 0621     		movs	r1, #6
 245 0044 2846     		mov	r0, r5
 246 0046 FFF7FEFF 		bl	u8g2_font_get_byte
 247              	.LVL33:
 248 004a A071     		strb	r0, [r4, #6]
 143:u8g2_lib/u8g2_font.c ****   font_info->bits_per_delta_x = u8g2_font_get_byte(font, 8);
 249              		.loc 1 143 0
 250 004c 0721     		movs	r1, #7
 251 004e 2846     		mov	r0, r5
 252 0050 FFF7FEFF 		bl	u8g2_font_get_byte
 253              	.LVL34:
ARM GAS  C:\Users\master\AppData\Local\Temp\ccxO0czL.s 			page 24


 254 0054 E071     		strb	r0, [r4, #7]
 144:u8g2_lib/u8g2_font.c ****   
 255              		.loc 1 144 0
 256 0056 0821     		movs	r1, #8
 257 0058 2846     		mov	r0, r5
 258 005a FFF7FEFF 		bl	u8g2_font_get_byte
 259              	.LVL35:
 260 005e 2072     		strb	r0, [r4, #8]
 147:u8g2_lib/u8g2_font.c ****   font_info->max_char_height = u8g2_font_get_byte(font, 10);
 261              		.loc 1 147 0
 262 0060 0921     		movs	r1, #9
 263 0062 2846     		mov	r0, r5
 264 0064 FFF7FEFF 		bl	u8g2_font_get_byte
 265              	.LVL36:
 266 0068 6072     		strb	r0, [r4, #9]
 148:u8g2_lib/u8g2_font.c ****   font_info->x_offset = u8g2_font_get_byte(font, 11);
 267              		.loc 1 148 0
 268 006a 0A21     		movs	r1, #10
 269 006c 2846     		mov	r0, r5
 270 006e FFF7FEFF 		bl	u8g2_font_get_byte
 271              	.LVL37:
 272 0072 A072     		strb	r0, [r4, #10]
 149:u8g2_lib/u8g2_font.c ****   font_info->y_offset = u8g2_font_get_byte(font, 12);
 273              		.loc 1 149 0
 274 0074 0B21     		movs	r1, #11
 275 0076 2846     		mov	r0, r5
 276 0078 FFF7FEFF 		bl	u8g2_font_get_byte
 277              	.LVL38:
 278 007c E072     		strb	r0, [r4, #11]
 150:u8g2_lib/u8g2_font.c ****   
 279              		.loc 1 150 0
 280 007e 0C21     		movs	r1, #12
 281 0080 2846     		mov	r0, r5
 282 0082 FFF7FEFF 		bl	u8g2_font_get_byte
 283              	.LVL39:
 284 0086 2073     		strb	r0, [r4, #12]
 153:u8g2_lib/u8g2_font.c ****   font_info->descent_g = u8g2_font_get_byte(font, 14);
 285              		.loc 1 153 0
 286 0088 0D21     		movs	r1, #13
 287 008a 2846     		mov	r0, r5
 288 008c FFF7FEFF 		bl	u8g2_font_get_byte
 289              	.LVL40:
 290 0090 6073     		strb	r0, [r4, #13]
 154:u8g2_lib/u8g2_font.c ****   font_info->ascent_para = u8g2_font_get_byte(font, 15);
 291              		.loc 1 154 0
 292 0092 0E21     		movs	r1, #14
 293 0094 2846     		mov	r0, r5
 294 0096 FFF7FEFF 		bl	u8g2_font_get_byte
 295              	.LVL41:
 296 009a A073     		strb	r0, [r4, #14]
 155:u8g2_lib/u8g2_font.c ****   font_info->descent_para = u8g2_font_get_byte(font, 16);
 297              		.loc 1 155 0
 298 009c 0F21     		movs	r1, #15
 299 009e 2846     		mov	r0, r5
 300 00a0 FFF7FEFF 		bl	u8g2_font_get_byte
 301              	.LVL42:
 302 00a4 E073     		strb	r0, [r4, #15]
ARM GAS  C:\Users\master\AppData\Local\Temp\ccxO0czL.s 			page 25


 156:u8g2_lib/u8g2_font.c ****   
 303              		.loc 1 156 0
 304 00a6 1021     		movs	r1, #16
 305 00a8 2846     		mov	r0, r5
 306 00aa FFF7FEFF 		bl	u8g2_font_get_byte
 307              	.LVL43:
 308 00ae 2074     		strb	r0, [r4, #16]
 159:u8g2_lib/u8g2_font.c ****   font_info->start_pos_lower_a = u8g2_font_get_word(font, 19); 
 309              		.loc 1 159 0
 310 00b0 1121     		movs	r1, #17
 311 00b2 2846     		mov	r0, r5
 312 00b4 FFF7FEFF 		bl	u8g2_font_get_word
 313              	.LVL44:
 314 00b8 6082     		strh	r0, [r4, #18]	@ movhi
 160:u8g2_lib/u8g2_font.c ****   
 315              		.loc 1 160 0
 316 00ba 1321     		movs	r1, #19
 317 00bc 2846     		mov	r0, r5
 318 00be FFF7FEFF 		bl	u8g2_font_get_word
 319              	.LVL45:
 320 00c2 A082     		strh	r0, [r4, #20]	@ movhi
 164:u8g2_lib/u8g2_font.c **** #endif
 321              		.loc 1 164 0
 322 00c4 1521     		movs	r1, #21
 323 00c6 2846     		mov	r0, r5
 324 00c8 FFF7FEFF 		bl	u8g2_font_get_word
 325              	.LVL46:
 326 00cc E082     		strh	r0, [r4, #22]	@ movhi
 327 00ce 38BD     		pop	{r3, r4, r5, pc}
 328              		.cfi_endproc
 329              	.LFE2:
 331              		.section	.text.u8g2_GetFontSize,"ax",%progbits
 332              		.align	2
 333              		.global	u8g2_GetFontSize
 334              		.thumb
 335              		.thumb_func
 337              	u8g2_GetFontSize:
 338              	.LFB3:
 171:u8g2_lib/u8g2_font.c ****   uint16_t e;
 339              		.loc 1 171 0
 340              		.cfi_startproc
 341              		@ args = 0, pretend = 0, frame = 0
 342              		@ frame_needed = 0, uses_anonymous_args = 0
 343              	.LVL47:
 344 0000 38B5     		push	{r3, r4, r5, lr}
 345              	.LCFI1:
 346              		.cfi_def_cfa_offset 16
 347              		.cfi_offset 3, -16
 348              		.cfi_offset 4, -12
 349              		.cfi_offset 5, -8
 350              		.cfi_offset 14, -4
 351 0002 0546     		mov	r5, r0
 352              	.LVL48:
 174:u8g2_lib/u8g2_font.c ****   
 353              		.loc 1 174 0
 354 0004 1730     		adds	r0, r0, #23
 355              	.LVL49:
ARM GAS  C:\Users\master\AppData\Local\Temp\ccxO0czL.s 			page 26


 356              	.L11:
 178:u8g2_lib/u8g2_font.c ****       break;
 357              		.loc 1 178 0
 358 0006 4378     		ldrb	r3, [r0, #1]	@ zero_extendqisi2
 359 0008 0BB1     		cbz	r3, .L10
 180:u8g2_lib/u8g2_font.c ****   }
 360              		.loc 1 180 0
 361 000a 1844     		add	r0, r0, r3
 362              	.LVL50:
 181:u8g2_lib/u8g2_font.c ****   
 363              		.loc 1 181 0
 364 000c FBE7     		b	.L11
 365              	.L10:
 184:u8g2_lib/u8g2_font.c **** 
 366              		.loc 1 184 0
 367 000e 841C     		adds	r4, r0, #2
 368              	.LVL51:
 187:u8g2_lib/u8g2_font.c ****   
 369              		.loc 1 187 0
 370 0010 0021     		movs	r1, #0
 371 0012 2046     		mov	r0, r4
 372 0014 FFF7FEFF 		bl	u8g2_font_get_word
 373              	.LVL52:
 374 0018 2044     		add	r0, r0, r4
 375              	.LVL53:
 376              	.L13:
 191:u8g2_lib/u8g2_font.c ****     e <<= 8;
 377              		.loc 1 191 0
 378 001a 0278     		ldrb	r2, [r0]	@ zero_extendqisi2
 379              	.LVL54:
 193:u8g2_lib/u8g2_font.c ****     if ( e == 0 )
 380              		.loc 1 193 0
 381 001c 4378     		ldrb	r3, [r0, #1]	@ zero_extendqisi2
 382              	.LVL55:
 194:u8g2_lib/u8g2_font.c ****       break;
 383              		.loc 1 194 0
 384 001e 53EA0223 		orrs	r3, r3, r2, lsl #8
 385              	.LVL56:
 386 0022 02D0     		beq	.L12
 196:u8g2_lib/u8g2_font.c ****   }
 387              		.loc 1 196 0
 388 0024 8378     		ldrb	r3, [r0, #2]	@ zero_extendqisi2
 389 0026 1844     		add	r0, r0, r3
 390              	.LVL57:
 197:u8g2_lib/u8g2_font.c ****   
 391              		.loc 1 197 0
 392 0028 F7E7     		b	.L13
 393              	.LVL58:
 394              	.L12:
 199:u8g2_lib/u8g2_font.c **** }
 395              		.loc 1 199 0
 396 002a 401B     		subs	r0, r0, r5
 397              	.LVL59:
 200:u8g2_lib/u8g2_font.c **** 
 398              		.loc 1 200 0
 399 002c 0230     		adds	r0, r0, #2
 400 002e 38BD     		pop	{r3, r4, r5, pc}
ARM GAS  C:\Users\master\AppData\Local\Temp\ccxO0czL.s 			page 27


 401              		.cfi_endproc
 402              	.LFE3:
 404              		.section	.text.u8g2_GetFontBBXWidth,"ax",%progbits
 405              		.align	2
 406              		.global	u8g2_GetFontBBXWidth
 407              		.thumb
 408              		.thumb_func
 410              	u8g2_GetFontBBXWidth:
 411              	.LFB4:
 206:u8g2_lib/u8g2_font.c ****   return u8g2->font_info.max_char_width;		/* new font info structure */
 412              		.loc 1 206 0
 413              		.cfi_startproc
 414              		@ args = 0, pretend = 0, frame = 0
 415              		@ frame_needed = 0, uses_anonymous_args = 0
 416              		@ link register save eliminated.
 417              	.LVL60:
 208:u8g2_lib/u8g2_font.c **** 
 418              		.loc 1 208 0
 419 0000 90F87D00 		ldrb	r0, [r0, #125]	@ zero_extendqisi2
 420              	.LVL61:
 421 0004 7047     		bx	lr
 422              		.cfi_endproc
 423              	.LFE4:
 425 0006 00BF     		.section	.text.u8g2_GetFontBBXHeight,"ax",%progbits
 426              		.align	2
 427              		.global	u8g2_GetFontBBXHeight
 428              		.thumb
 429              		.thumb_func
 431              	u8g2_GetFontBBXHeight:
 432              	.LFB5:
 211:u8g2_lib/u8g2_font.c ****   return u8g2->font_info.max_char_height;		/* new font info structure */
 433              		.loc 1 211 0
 434              		.cfi_startproc
 435              		@ args = 0, pretend = 0, frame = 0
 436              		@ frame_needed = 0, uses_anonymous_args = 0
 437              		@ link register save eliminated.
 438              	.LVL62:
 213:u8g2_lib/u8g2_font.c **** 
 439              		.loc 1 213 0
 440 0000 90F87E00 		ldrb	r0, [r0, #126]	@ zero_extendqisi2
 441              	.LVL63:
 442 0004 7047     		bx	lr
 443              		.cfi_endproc
 444              	.LFE5:
 446 0006 00BF     		.section	.text.u8g2_GetFontBBXOffX,"ax",%progbits
 447              		.align	2
 448              		.global	u8g2_GetFontBBXOffX
 449              		.thumb
 450              		.thumb_func
 452              	u8g2_GetFontBBXOffX:
 453              	.LFB6:
 217:u8g2_lib/u8g2_font.c ****   return u8g2->font_info.x_offset;		/* new font info structure */
 454              		.loc 1 217 0
 455              		.cfi_startproc
 456              		@ args = 0, pretend = 0, frame = 0
 457              		@ frame_needed = 0, uses_anonymous_args = 0
 458              		@ link register save eliminated.
ARM GAS  C:\Users\master\AppData\Local\Temp\ccxO0czL.s 			page 28


 459              	.LVL64:
 219:u8g2_lib/u8g2_font.c **** 
 460              		.loc 1 219 0
 461 0000 90F97F00 		ldrsb	r0, [r0, #127]
 462              	.LVL65:
 463 0004 7047     		bx	lr
 464              		.cfi_endproc
 465              	.LFE6:
 467 0006 00BF     		.section	.text.u8g2_GetFontBBXOffY,"ax",%progbits
 468              		.align	2
 469              		.global	u8g2_GetFontBBXOffY
 470              		.thumb
 471              		.thumb_func
 473              	u8g2_GetFontBBXOffY:
 474              	.LFB7:
 223:u8g2_lib/u8g2_font.c ****   return u8g2->font_info.y_offset;		/* new font info structure */
 475              		.loc 1 223 0
 476              		.cfi_startproc
 477              		@ args = 0, pretend = 0, frame = 0
 478              		@ frame_needed = 0, uses_anonymous_args = 0
 479              		@ link register save eliminated.
 480              	.LVL66:
 225:u8g2_lib/u8g2_font.c **** 
 481              		.loc 1 225 0
 482 0000 90F98000 		ldrsb	r0, [r0, #128]
 483              	.LVL67:
 484 0004 7047     		bx	lr
 485              		.cfi_endproc
 486              	.LFE7:
 488 0006 00BF     		.section	.text.u8g2_GetFontCapitalAHeight,"ax",%progbits
 489              		.align	2
 490              		.global	u8g2_GetFontCapitalAHeight
 491              		.thumb
 492              		.thumb_func
 494              	u8g2_GetFontCapitalAHeight:
 495              	.LFB8:
 229:u8g2_lib/u8g2_font.c ****   return u8g2->font_info.ascent_A;		/* new font info structure */
 496              		.loc 1 229 0
 497              		.cfi_startproc
 498              		@ args = 0, pretend = 0, frame = 0
 499              		@ frame_needed = 0, uses_anonymous_args = 0
 500              		@ link register save eliminated.
 501              	.LVL68:
 231:u8g2_lib/u8g2_font.c **** 
 502              		.loc 1 231 0
 503 0000 90F88100 		ldrb	r0, [r0, #129]	@ zero_extendqisi2
 504              	.LVL69:
 505 0004 7047     		bx	lr
 506              		.cfi_endproc
 507              	.LFE8:
 509 0006 00BF     		.section	.text.u8g2_font_decode_get_unsigned_bits,"ax",%progbits
 510              		.align	2
 511              		.global	u8g2_font_decode_get_unsigned_bits
 512              		.thumb
 513              		.thumb_func
 515              	u8g2_font_decode_get_unsigned_bits:
 516              	.LFB9:
ARM GAS  C:\Users\master\AppData\Local\Temp\ccxO0czL.s 			page 29


 238:u8g2_lib/u8g2_font.c ****   uint8_t val;
 517              		.loc 1 238 0
 518              		.cfi_startproc
 519              		@ args = 0, pretend = 0, frame = 0
 520              		@ frame_needed = 0, uses_anonymous_args = 0
 521              		@ link register save eliminated.
 522              	.LVL70:
 523 0000 70B4     		push	{r4, r5, r6}
 524              	.LCFI2:
 525              		.cfi_def_cfa_offset 12
 526              		.cfi_offset 4, -12
 527              		.cfi_offset 5, -8
 528              		.cfi_offset 6, -4
 240:u8g2_lib/u8g2_font.c ****   uint8_t bit_pos_plus_cnt;
 529              		.loc 1 240 0
 530 0002 027B     		ldrb	r2, [r0, #12]	@ zero_extendqisi2
 531              	.LVL71:
 244:u8g2_lib/u8g2_font.c ****   
 532              		.loc 1 244 0
 533 0004 0568     		ldr	r5, [r0]
 534 0006 2C78     		ldrb	r4, [r5]	@ zero_extendqisi2
 535              	.LVL72:
 246:u8g2_lib/u8g2_font.c ****   bit_pos_plus_cnt = bit_pos;
 536              		.loc 1 246 0
 537 0008 1441     		asrs	r4, r4, r2
 538              	.LVL73:
 539 000a E6B2     		uxtb	r6, r4
 540              	.LVL74:
 248:u8g2_lib/u8g2_font.c ****   if ( bit_pos_plus_cnt >= 8 )
 541              		.loc 1 248 0
 542 000c 5318     		adds	r3, r2, r1
 543 000e DBB2     		uxtb	r3, r3
 544              	.LVL75:
 249:u8g2_lib/u8g2_font.c ****   {
 545              		.loc 1 249 0
 546 0010 072B     		cmp	r3, #7
 547 0012 0BD9     		bls	.L21
 548              	.LVL76:
 549              	.LBB2:
 252:u8g2_lib/u8g2_font.c ****     f->decode_ptr++;
 550              		.loc 1 252 0
 551 0014 C2F10802 		rsb	r2, r2, #8
 552              	.LVL77:
 553 0018 D2B2     		uxtb	r2, r2
 554              	.LVL78:
 253:u8g2_lib/u8g2_font.c ****     //val |= *(f->decode_ptr) << (8-bit_pos);
 555              		.loc 1 253 0
 556 001a 6E1C     		adds	r6, r5, #1
 557              	.LVL79:
 558 001c 0660     		str	r6, [r0]
 255:u8g2_lib/u8g2_font.c ****     //bit_pos -= 8;
 559              		.loc 1 255 0
 560 001e 6D78     		ldrb	r5, [r5, #1]	@ zero_extendqisi2
 561 0020 05FA02F2 		lsl	r2, r5, r2
 562              	.LVL80:
 563 0024 1443     		orrs	r4, r4, r2
 564              	.LVL81:
ARM GAS  C:\Users\master\AppData\Local\Temp\ccxO0czL.s 			page 30


 565 0026 E6B2     		uxtb	r6, r4
 566              	.LVL82:
 257:u8g2_lib/u8g2_font.c ****   }
 567              		.loc 1 257 0
 568 0028 083B     		subs	r3, r3, #8
 569              	.LVL83:
 570 002a DBB2     		uxtb	r3, r3
 571              	.LVL84:
 572              	.L21:
 573              	.LBE2:
 259:u8g2_lib/u8g2_font.c ****   //bit_pos += cnt;
 574              		.loc 1 259 0
 575 002c 0124     		movs	r4, #1
 576 002e 04FA01F1 		lsl	r1, r4, r1
 577              	.LVL85:
 578 0032 0139     		subs	r1, r1, #1
 579              	.LVL86:
 262:u8g2_lib/u8g2_font.c ****   return val;
 580              		.loc 1 262 0
 581 0034 0373     		strb	r3, [r0, #12]
 582              	.LVL87:
 264:u8g2_lib/u8g2_font.c **** 
 583              		.loc 1 264 0
 584 0036 06EA0100 		and	r0, r6, r1
 585              	.LVL88:
 586 003a 70BC     		pop	{r4, r5, r6}
 587              	.LCFI3:
 588              		.cfi_restore 6
 589              		.cfi_restore 5
 590              		.cfi_restore 4
 591              		.cfi_def_cfa_offset 0
 592              	.LVL89:
 593 003c 7047     		bx	lr
 594              		.cfi_endproc
 595              	.LFE9:
 597 003e 00BF     		.section	.text.u8g2_font_setup_decode,"ax",%progbits
 598              		.align	2
 599              		.thumb
 600              		.thumb_func
 602              	u8g2_font_setup_decode:
 603              	.LFB14:
 486:u8g2_lib/u8g2_font.c ****   u8g2_font_decode_t *decode = &(u8g2->font_decode);
 604              		.loc 1 486 0
 605              		.cfi_startproc
 606              		@ args = 0, pretend = 0, frame = 0
 607              		@ frame_needed = 0, uses_anonymous_args = 0
 608              	.LVL90:
 609 0000 38B5     		push	{r3, r4, r5, lr}
 610              	.LCFI4:
 611              		.cfi_def_cfa_offset 16
 612              		.cfi_offset 3, -16
 613              		.cfi_offset 4, -12
 614              		.cfi_offset 5, -8
 615              		.cfi_offset 14, -4
 616 0002 0446     		mov	r4, r0
 487:u8g2_lib/u8g2_font.c ****   decode->decode_ptr = glyph_data;
 617              		.loc 1 487 0
ARM GAS  C:\Users\master\AppData\Local\Temp\ccxO0czL.s 			page 31


 618 0004 00F16005 		add	r5, r0, #96
 619              	.LVL91:
 488:u8g2_lib/u8g2_font.c ****   decode->decode_bit_pos = 0;
 620              		.loc 1 488 0
 621 0008 0166     		str	r1, [r0, #96]
 489:u8g2_lib/u8g2_font.c ****   
 622              		.loc 1 489 0
 623 000a 0023     		movs	r3, #0
 624 000c 80F86C30 		strb	r3, [r0, #108]
 497:u8g2_lib/u8g2_font.c ****   decode->glyph_height = u8g2_font_decode_get_unsigned_bits(decode,u8g2->font_info.bits_per_char_he
 625              		.loc 1 497 0
 626 0010 90F87810 		ldrb	r1, [r0, #120]	@ zero_extendqisi2
 627              	.LVL92:
 628 0014 2846     		mov	r0, r5
 629              	.LVL93:
 630 0016 FFF7FEFF 		bl	u8g2_font_decode_get_unsigned_bits
 631              	.LVL94:
 632 001a 84F86A00 		strb	r0, [r4, #106]
 498:u8g2_lib/u8g2_font.c ****   
 633              		.loc 1 498 0
 634 001e 94F87910 		ldrb	r1, [r4, #121]	@ zero_extendqisi2
 635 0022 2846     		mov	r0, r5
 636 0024 FFF7FEFF 		bl	u8g2_font_decode_get_unsigned_bits
 637              	.LVL95:
 638 0028 84F86B00 		strb	r0, [r4, #107]
 500:u8g2_lib/u8g2_font.c ****   decode->bg_color = (decode->fg_color == 0 ? 1 : 0);
 639              		.loc 1 500 0
 640 002c 94F89230 		ldrb	r3, [r4, #146]	@ zero_extendqisi2
 641 0030 84F86E30 		strb	r3, [r4, #110]
 501:u8g2_lib/u8g2_font.c **** }
 642              		.loc 1 501 0
 643 0034 B3FA83F3 		clz	r3, r3
 644 0038 5B09     		lsrs	r3, r3, #5
 645 003a 84F86F30 		strb	r3, [r4, #111]
 646 003e 38BD     		pop	{r3, r4, r5, pc}
 647              		.cfi_endproc
 648              	.LFE14:
 650              		.section	.text.u8g2_font_decode_get_signed_bits,"ax",%progbits
 651              		.align	2
 652              		.global	u8g2_font_decode_get_signed_bits
 653              		.thumb
 654              		.thumb_func
 656              	u8g2_font_decode_get_signed_bits:
 657              	.LFB10:
 283:u8g2_lib/u8g2_font.c ****   int8_t v, d;
 658              		.loc 1 283 0
 659              		.cfi_startproc
 660              		@ args = 0, pretend = 0, frame = 0
 661              		@ frame_needed = 0, uses_anonymous_args = 0
 662              	.LVL96:
 663 0000 10B5     		push	{r4, lr}
 664              	.LCFI5:
 665              		.cfi_def_cfa_offset 8
 666              		.cfi_offset 4, -8
 667              		.cfi_offset 14, -4
 668 0002 0C46     		mov	r4, r1
 285:u8g2_lib/u8g2_font.c ****   d = 1;
ARM GAS  C:\Users\master\AppData\Local\Temp\ccxO0czL.s 			page 32


 669              		.loc 1 285 0
 670 0004 FFF7FEFF 		bl	u8g2_font_decode_get_unsigned_bits
 671              	.LVL97:
 287:u8g2_lib/u8g2_font.c ****   d <<= cnt;
 672              		.loc 1 287 0
 673 0008 013C     		subs	r4, r4, #1
 674 000a E4B2     		uxtb	r4, r4
 675              	.LVL98:
 288:u8g2_lib/u8g2_font.c ****   v -= d;
 676              		.loc 1 288 0
 677 000c 0123     		movs	r3, #1
 678 000e A340     		lsls	r3, r3, r4
 679              	.LVL99:
 289:u8g2_lib/u8g2_font.c ****   return v;
 680              		.loc 1 289 0
 681 0010 C01A     		subs	r0, r0, r3
 682              	.LVL100:
 292:u8g2_lib/u8g2_font.c **** 
 683              		.loc 1 292 0
 684 0012 40B2     		sxtb	r0, r0
 685 0014 10BD     		pop	{r4, pc}
 686              		.cfi_endproc
 687              	.LFE10:
 689 0016 00BF     		.section	.text.u8g2_add_vector_y,"ax",%progbits
 690              		.align	2
 691              		.global	u8g2_add_vector_y
 692              		.thumb
 693              		.thumb_func
 695              	u8g2_add_vector_y:
 696              	.LFB11:
 297:u8g2_lib/u8g2_font.c ****   switch(dir)
 697              		.loc 1 297 0
 698              		.cfi_startproc
 699              		@ args = 0, pretend = 0, frame = 0
 700              		@ frame_needed = 0, uses_anonymous_args = 0
 701              		@ link register save eliminated.
 702              	.LVL101:
 298:u8g2_lib/u8g2_font.c ****   {
 703              		.loc 1 298 0
 704 0000 012B     		cmp	r3, #1
 705 0002 06D0     		beq	.L29
 706 0004 13B1     		cbz	r3, .L30
 707 0006 022B     		cmp	r3, #2
 708 0008 06D0     		beq	.L31
 709 000a 08E0     		b	.L33
 710              	.L30:
 301:u8g2_lib/u8g2_font.c ****       break;
 711              		.loc 1 301 0
 712 000c 1044     		add	r0, r0, r2
 713              	.LVL102:
 714 000e 80B2     		uxth	r0, r0
 715              	.LVL103:
 302:u8g2_lib/u8g2_font.c ****     case 1:
 716              		.loc 1 302 0
 717 0010 7047     		bx	lr
 718              	.L29:
 304:u8g2_lib/u8g2_font.c ****       break;
ARM GAS  C:\Users\master\AppData\Local\Temp\ccxO0czL.s 			page 33


 719              		.loc 1 304 0
 720 0012 0844     		add	r0, r0, r1
 721              	.LVL104:
 722 0014 80B2     		uxth	r0, r0
 723              	.LVL105:
 305:u8g2_lib/u8g2_font.c ****     case 2:
 724              		.loc 1 305 0
 725 0016 7047     		bx	lr
 726              	.L31:
 307:u8g2_lib/u8g2_font.c ****       break;
 727              		.loc 1 307 0
 728 0018 801A     		subs	r0, r0, r2
 729              	.LVL106:
 730 001a 80B2     		uxth	r0, r0
 731              	.LVL107:
 308:u8g2_lib/u8g2_font.c ****     default:
 732              		.loc 1 308 0
 733 001c 7047     		bx	lr
 734              	.L33:
 310:u8g2_lib/u8g2_font.c ****       break;      
 735              		.loc 1 310 0
 736 001e 401A     		subs	r0, r0, r1
 737              	.LVL108:
 738 0020 80B2     		uxth	r0, r0
 739              	.LVL109:
 314:u8g2_lib/u8g2_font.c **** 
 740              		.loc 1 314 0
 741 0022 7047     		bx	lr
 742              		.cfi_endproc
 743              	.LFE11:
 745              		.section	.text.u8g2_add_vector_x,"ax",%progbits
 746              		.align	2
 747              		.global	u8g2_add_vector_x
 748              		.thumb
 749              		.thumb_func
 751              	u8g2_add_vector_x:
 752              	.LFB12:
 317:u8g2_lib/u8g2_font.c ****   switch(dir)
 753              		.loc 1 317 0
 754              		.cfi_startproc
 755              		@ args = 0, pretend = 0, frame = 0
 756              		@ frame_needed = 0, uses_anonymous_args = 0
 757              		@ link register save eliminated.
 758              	.LVL110:
 318:u8g2_lib/u8g2_font.c ****   {
 759              		.loc 1 318 0
 760 0000 012B     		cmp	r3, #1
 761 0002 06D0     		beq	.L36
 762 0004 13B1     		cbz	r3, .L37
 763 0006 022B     		cmp	r3, #2
 764 0008 06D0     		beq	.L38
 765 000a 08E0     		b	.L40
 766              	.L37:
 321:u8g2_lib/u8g2_font.c ****       break;
 767              		.loc 1 321 0
 768 000c 0844     		add	r0, r0, r1
 769              	.LVL111:
ARM GAS  C:\Users\master\AppData\Local\Temp\ccxO0czL.s 			page 34


 770 000e 80B2     		uxth	r0, r0
 771              	.LVL112:
 322:u8g2_lib/u8g2_font.c ****     case 1:
 772              		.loc 1 322 0
 773 0010 7047     		bx	lr
 774              	.L36:
 324:u8g2_lib/u8g2_font.c ****       break;
 775              		.loc 1 324 0
 776 0012 801A     		subs	r0, r0, r2
 777              	.LVL113:
 778 0014 80B2     		uxth	r0, r0
 779              	.LVL114:
 325:u8g2_lib/u8g2_font.c ****     case 2:
 780              		.loc 1 325 0
 781 0016 7047     		bx	lr
 782              	.L38:
 327:u8g2_lib/u8g2_font.c ****       break;
 783              		.loc 1 327 0
 784 0018 401A     		subs	r0, r0, r1
 785              	.LVL115:
 786 001a 80B2     		uxth	r0, r0
 787              	.LVL116:
 328:u8g2_lib/u8g2_font.c ****     default:
 788              		.loc 1 328 0
 789 001c 7047     		bx	lr
 790              	.L40:
 330:u8g2_lib/u8g2_font.c ****       break;      
 791              		.loc 1 330 0
 792 001e 1044     		add	r0, r0, r2
 793              	.LVL117:
 794 0020 80B2     		uxth	r0, r0
 795              	.LVL118:
 334:u8g2_lib/u8g2_font.c **** 
 796              		.loc 1 334 0
 797 0022 7047     		bx	lr
 798              		.cfi_endproc
 799              	.LFE12:
 801              		.section	.text.u8g2_font_decode_len,"ax",%progbits
 802              		.align	2
 803              		.global	u8g2_font_decode_len
 804              		.thumb
 805              		.thumb_func
 807              	u8g2_font_decode_len:
 808              	.LFB13:
 388:u8g2_lib/u8g2_font.c ****   uint8_t cnt;	/* total number of remaining pixels, which have to be drawn */
 809              		.loc 1 388 0
 810              		.cfi_startproc
 811              		@ args = 0, pretend = 0, frame = 16
 812              		@ frame_needed = 0, uses_anonymous_args = 0
 813              	.LVL119:
 814 0000 2DE9F04F 		push	{r4, r5, r6, r7, r8, r9, r10, fp, lr}
 815              	.LCFI6:
 816              		.cfi_def_cfa_offset 36
 817              		.cfi_offset 4, -36
 818              		.cfi_offset 5, -32
 819              		.cfi_offset 6, -28
 820              		.cfi_offset 7, -24
ARM GAS  C:\Users\master\AppData\Local\Temp\ccxO0czL.s 			page 35


 821              		.cfi_offset 8, -20
 822              		.cfi_offset 9, -16
 823              		.cfi_offset 10, -12
 824              		.cfi_offset 11, -8
 825              		.cfi_offset 14, -4
 826 0004 87B0     		sub	sp, sp, #28
 827              	.LCFI7:
 828              		.cfi_def_cfa_offset 64
 829 0006 0646     		mov	r6, r0
 830 0008 0C46     		mov	r4, r1
 831 000a 0592     		str	r2, [sp, #20]
 832              	.LVL120:
 405:u8g2_lib/u8g2_font.c ****   ly = decode->y;
 833              		.loc 1 405 0
 834 000c 90F868A0 		ldrb	r10, [r0, #104]	@ zero_extendqisi2
 835              	.LVL121:
 406:u8g2_lib/u8g2_font.c ****   
 836              		.loc 1 406 0
 837 0010 90F86980 		ldrb	r8, [r0, #105]	@ zero_extendqisi2
 838              	.LVL122:
 839              	.L46:
 411:u8g2_lib/u8g2_font.c ****     rem -= lx;
 840              		.loc 1 411 0
 841 0014 96F86A50 		ldrb	r5, [r6, #106]	@ zero_extendqisi2
 842              	.LVL123:
 412:u8g2_lib/u8g2_font.c ****     
 843              		.loc 1 412 0
 844 0018 CAEB0505 		rsb	r5, r10, r5
 845              	.LVL124:
 846 001c EDB2     		uxtb	r5, r5
 847              	.LVL125:
 417:u8g2_lib/u8g2_font.c ****       current = cnt;
 848              		.loc 1 417 0
 849 001e AC42     		cmp	r4, r5
 850 0020 01D3     		bcc	.L47
 416:u8g2_lib/u8g2_font.c ****     if ( cnt < rem )
 851              		.loc 1 416 0
 852 0022 0395     		str	r5, [sp, #12]
 853 0024 00E0     		b	.L42
 854              	.L47:
 418:u8g2_lib/u8g2_font.c ****     
 855              		.loc 1 418 0
 856 0026 0394     		str	r4, [sp, #12]
 857              	.L42:
 858              	.LVL126:
 426:u8g2_lib/u8g2_font.c **** 
 859              		.loc 1 426 0
 860 0028 B6F86690 		ldrh	r9, [r6, #102]
 861              	.LVL127:
 431:u8g2_lib/u8g2_font.c ****     y = u8g2_add_vector_y(y, lx, ly, decode->dir);
 862              		.loc 1 431 0
 863 002c 4FFA8AF1 		sxtb	r1, r10
 864 0030 4FFA88FB 		sxtb	fp, r8
 865 0034 96F87070 		ldrb	r7, [r6, #112]	@ zero_extendqisi2
 866 0038 3B46     		mov	r3, r7
 867 003a 5A46     		mov	r2, fp
 868 003c 0291     		str	r1, [sp, #8]
ARM GAS  C:\Users\master\AppData\Local\Temp\ccxO0czL.s 			page 36


 869 003e B6F86400 		ldrh	r0, [r6, #100]
 870 0042 FFF7FEFF 		bl	u8g2_add_vector_x
 871              	.LVL128:
 872 0046 0490     		str	r0, [sp, #16]
 873              	.LVL129:
 432:u8g2_lib/u8g2_font.c ****     
 874              		.loc 1 432 0
 875 0048 3B46     		mov	r3, r7
 876 004a 5A46     		mov	r2, fp
 877 004c 0299     		ldr	r1, [sp, #8]
 878 004e 4846     		mov	r0, r9
 879 0050 FFF7FEFF 		bl	u8g2_add_vector_y
 880              	.LVL130:
 442:u8g2_lib/u8g2_font.c ****     {
 881              		.loc 1 442 0
 882 0054 059B     		ldr	r3, [sp, #20]
 883 0056 63B1     		cbz	r3, .L43
 444:u8g2_lib/u8g2_font.c ****       u8g2_DrawHVLine(u8g2, 
 884              		.loc 1 444 0
 885 0058 96F86E30 		ldrb	r3, [r6, #110]	@ zero_extendqisi2
 886 005c 86F89230 		strb	r3, [r6, #146]
 445:u8g2_lib/u8g2_font.c **** 	x, 
 887              		.loc 1 445 0
 888 0060 0097     		str	r7, [sp]
 889 0062 BDF80C30 		ldrh	r3, [sp, #12]
 890 0066 0246     		mov	r2, r0
 891 0068 0499     		ldr	r1, [sp, #16]
 892 006a 3046     		mov	r0, r6
 893              	.LVL131:
 894 006c FFF7FEFF 		bl	u8g2_DrawHVLine
 895              	.LVL132:
 896 0070 0EE0     		b	.L44
 897              	.LVL133:
 898              	.L43:
 456:u8g2_lib/u8g2_font.c ****     {
 899              		.loc 1 456 0
 900 0072 96F86D30 		ldrb	r3, [r6, #109]	@ zero_extendqisi2
 901 0076 5BB9     		cbnz	r3, .L44
 458:u8g2_lib/u8g2_font.c ****       u8g2_DrawHVLine(u8g2, 
 902              		.loc 1 458 0
 903 0078 96F86F30 		ldrb	r3, [r6, #111]	@ zero_extendqisi2
 904 007c 86F89230 		strb	r3, [r6, #146]
 459:u8g2_lib/u8g2_font.c **** 	x, 
 905              		.loc 1 459 0
 906 0080 0097     		str	r7, [sp]
 907 0082 BDF80C30 		ldrh	r3, [sp, #12]
 908 0086 0246     		mov	r2, r0
 909 0088 0499     		ldr	r1, [sp, #16]
 910 008a 3046     		mov	r0, r6
 911              	.LVL134:
 912 008c FFF7FEFF 		bl	u8g2_DrawHVLine
 913              	.LVL135:
 914              	.L44:
 472:u8g2_lib/u8g2_font.c ****       break;
 915              		.loc 1 472 0
 916 0090 AC42     		cmp	r4, r5
 917 0092 08D3     		bcc	.L45
ARM GAS  C:\Users\master\AppData\Local\Temp\ccxO0czL.s 			page 37


 474:u8g2_lib/u8g2_font.c ****     lx = 0;
 918              		.loc 1 474 0
 919 0094 641B     		subs	r4, r4, r5
 920              	.LVL136:
 921 0096 E4B2     		uxtb	r4, r4
 922              	.LVL137:
 476:u8g2_lib/u8g2_font.c ****   }
 923              		.loc 1 476 0
 924 0098 08F10108 		add	r8, r8, #1
 925              	.LVL138:
 926 009c 5FFA88F8 		uxtb	r8, r8
 927              	.LVL139:
 475:u8g2_lib/u8g2_font.c ****     ly++;
 928              		.loc 1 475 0
 929 00a0 4FF0000A 		mov	r10, #0
 477:u8g2_lib/u8g2_font.c ****   lx += cnt;
 930              		.loc 1 477 0
 931 00a4 B6E7     		b	.L46
 932              	.LVL140:
 933              	.L45:
 478:u8g2_lib/u8g2_font.c ****   
 934              		.loc 1 478 0
 935 00a6 5444     		add	r4, r4, r10
 936              	.LVL141:
 480:u8g2_lib/u8g2_font.c ****   decode->y = ly;
 937              		.loc 1 480 0
 938 00a8 86F86840 		strb	r4, [r6, #104]
 481:u8g2_lib/u8g2_font.c ****   
 939              		.loc 1 481 0
 940 00ac 86F869B0 		strb	fp, [r6, #105]
 483:u8g2_lib/u8g2_font.c **** 
 941              		.loc 1 483 0
 942 00b0 07B0     		add	sp, sp, #28
 943              	.LCFI8:
 944              		.cfi_def_cfa_offset 36
 945              		@ sp needed
 946 00b2 BDE8F08F 		pop	{r4, r5, r6, r7, r8, r9, r10, fp, pc}
 947              		.cfi_endproc
 948              	.LFE13:
 950 00b6 00BF     		.section	.text.u8g2_font_decode_glyph,"ax",%progbits
 951              		.align	2
 952              		.global	u8g2_font_decode_glyph
 953              		.thumb
 954              		.thumb_func
 956              	u8g2_font_decode_glyph:
 957              	.LFB15:
 520:u8g2_lib/u8g2_font.c ****   uint8_t a, b;
 958              		.loc 1 520 0
 959              		.cfi_startproc
 960              		@ args = 0, pretend = 0, frame = 8
 961              		@ frame_needed = 0, uses_anonymous_args = 0
 962              	.LVL142:
 963 0000 2DE9F04F 		push	{r4, r5, r6, r7, r8, r9, r10, fp, lr}
 964              	.LCFI9:
 965              		.cfi_def_cfa_offset 36
 966              		.cfi_offset 4, -36
 967              		.cfi_offset 5, -32
ARM GAS  C:\Users\master\AppData\Local\Temp\ccxO0czL.s 			page 38


 968              		.cfi_offset 6, -28
 969              		.cfi_offset 7, -24
 970              		.cfi_offset 8, -20
 971              		.cfi_offset 9, -16
 972              		.cfi_offset 10, -12
 973              		.cfi_offset 11, -8
 974              		.cfi_offset 14, -4
 975 0004 85B0     		sub	sp, sp, #20
 976              	.LCFI10:
 977              		.cfi_def_cfa_offset 56
 978 0006 0446     		mov	r4, r0
 525:u8g2_lib/u8g2_font.c ****     
 979              		.loc 1 525 0
 980 0008 00F16005 		add	r5, r0, #96
 981              	.LVL143:
 527:u8g2_lib/u8g2_font.c ****   h = u8g2->font_decode.glyph_height;
 982              		.loc 1 527 0
 983 000c FFF7FEFF 		bl	u8g2_font_setup_decode
 984              	.LVL144:
 528:u8g2_lib/u8g2_font.c ****   
 985              		.loc 1 528 0
 986 0010 94F96B60 		ldrsb	r6, [r4, #107]
 987              	.LVL145:
 530:u8g2_lib/u8g2_font.c ****   y = u8g2_font_decode_get_signed_bits(decode, u8g2->font_info.bits_per_char_y);
 988              		.loc 1 530 0
 989 0014 94F87A10 		ldrb	r1, [r4, #122]	@ zero_extendqisi2
 990 0018 2846     		mov	r0, r5
 991 001a FFF7FEFF 		bl	u8g2_font_decode_get_signed_bits
 992              	.LVL146:
 993 001e 8346     		mov	fp, r0
 994              	.LVL147:
 531:u8g2_lib/u8g2_font.c ****   d = u8g2_font_decode_get_signed_bits(decode, u8g2->font_info.bits_per_delta_x);
 995              		.loc 1 531 0
 996 0020 94F87B10 		ldrb	r1, [r4, #123]	@ zero_extendqisi2
 997 0024 2846     		mov	r0, r5
 998 0026 FFF7FEFF 		bl	u8g2_font_decode_get_signed_bits
 999              	.LVL148:
 1000 002a 0746     		mov	r7, r0
 1001              	.LVL149:
 532:u8g2_lib/u8g2_font.c ****   
 1002              		.loc 1 532 0
 1003 002c 94F87C10 		ldrb	r1, [r4, #124]	@ zero_extendqisi2
 1004 0030 2846     		mov	r0, r5
 1005 0032 FFF7FEFF 		bl	u8g2_font_decode_get_signed_bits
 1006              	.LVL150:
 1007 0036 0390     		str	r0, [sp, #12]
 1008              	.LVL151:
 534:u8g2_lib/u8g2_font.c ****   {
 1009              		.loc 1 534 0
 1010 0038 94F96A90 		ldrsb	r9, [r4, #106]
 1011 003c B9F1000F 		cmp	r9, #0
 1012 0040 7CDD     		ble	.L50
 537:u8g2_lib/u8g2_font.c ****     decode->target_y = u8g2_add_vector_y(decode->target_y, x, -(h+y), decode->dir);
 1013              		.loc 1 537 0
 1014 0042 3744     		add	r7, r7, r6
 1015              	.LVL152:
 1016 0044 7F42     		negs	r7, r7
ARM GAS  C:\Users\master\AppData\Local\Temp\ccxO0czL.s 			page 39


 1017 0046 7FB2     		sxtb	r7, r7
 1018 0048 94F87080 		ldrb	r8, [r4, #112]	@ zero_extendqisi2
 1019 004c 4346     		mov	r3, r8
 1020 004e 3A46     		mov	r2, r7
 1021 0050 5946     		mov	r1, fp
 1022 0052 B4F86400 		ldrh	r0, [r4, #100]
 1023 0056 FFF7FEFF 		bl	u8g2_add_vector_x
 1024              	.LVL153:
 1025 005a 8246     		mov	r10, r0
 1026 005c A4F86400 		strh	r0, [r4, #100]	@ movhi
 538:u8g2_lib/u8g2_font.c ****     
 1027              		.loc 1 538 0
 1028 0060 4346     		mov	r3, r8
 1029 0062 3A46     		mov	r2, r7
 1030 0064 5946     		mov	r1, fp
 1031 0066 B4F86600 		ldrh	r0, [r4, #102]
 1032 006a FFF7FEFF 		bl	u8g2_add_vector_y
 1033              	.LVL154:
 1034 006e 0246     		mov	r2, r0
 1035 0070 A4F86600 		strh	r0, [r4, #102]	@ movhi
 1036              	.LVL155:
 1037              	.LBB3:
 557:u8g2_lib/u8g2_font.c ****       {
 1038              		.loc 1 557 0
 1039 0074 B8F1030F 		cmp	r8, #3
 1040 0078 30D8     		bhi	.L59
 1041 007a DFE808F0 		tbb	[pc, r8]
 1042              	.L53:
 1043 007e 02       		.byte	(.L52-.L53)/2
 1044 007f 08       		.byte	(.L54-.L53)/2
 1045 0080 14       		.byte	(.L55-.L53)/2
 1046 0081 24       		.byte	(.L56-.L53)/2
 1047              		.p2align 1
 1048              	.L52:
 560:u8g2_lib/u8g2_font.c **** 	    y1 += h;
 1049              		.loc 1 560 0
 1050 0082 0AEB0903 		add	r3, r10, r9
 1051 0086 9BB2     		uxth	r3, r3
 1052              	.LVL156:
 561:u8g2_lib/u8g2_font.c **** 	    break;
 1053              		.loc 1 561 0
 1054 0088 3044     		add	r0, r0, r6
 1055              	.LVL157:
 1056 008a 80B2     		uxth	r0, r0
 1057              	.LVL158:
 562:u8g2_lib/u8g2_font.c **** 	case 1:
 1058              		.loc 1 562 0
 1059 008c 27E0     		b	.L51
 1060              	.LVL159:
 1061              	.L54:
 564:u8g2_lib/u8g2_font.c **** 	    x0++;	/* shift down, because of assymetric boundaries for the interseciton test */
 1062              		.loc 1 564 0
 1063 008e C6EB0A01 		rsb	r1, r6, r10
 1064 0092 89B2     		uxth	r1, r1
 1065              	.LVL160:
 565:u8g2_lib/u8g2_font.c **** 	    x1++;
 1066              		.loc 1 565 0
ARM GAS  C:\Users\master\AppData\Local\Temp\ccxO0czL.s 			page 40


 1067 0094 0131     		adds	r1, r1, #1
 1068              	.LVL161:
 566:u8g2_lib/u8g2_font.c **** 	    y1 += decode->glyph_width;
 1069              		.loc 1 566 0
 1070 0096 0AF10103 		add	r3, r10, #1
 1071 009a 9BB2     		uxth	r3, r3
 1072              	.LVL162:
 567:u8g2_lib/u8g2_font.c **** 	    break;
 1073              		.loc 1 567 0
 1074 009c 4844     		add	r0, r0, r9
 1075              	.LVL163:
 1076 009e 80B2     		uxth	r0, r0
 1077              	.LVL164:
 565:u8g2_lib/u8g2_font.c **** 	    x1++;
 1078              		.loc 1 565 0
 1079 00a0 1FFA81FA 		uxth	r10, r1
 568:u8g2_lib/u8g2_font.c **** 	case 2:
 1080              		.loc 1 568 0
 1081 00a4 1BE0     		b	.L51
 1082              	.LVL165:
 1083              	.L55:
 570:u8g2_lib/u8g2_font.c **** 	    x0++;	/* shift down, because of assymetric boundaries for the interseciton test */
 1084              		.loc 1 570 0
 1085 00a6 C9EB0A01 		rsb	r1, r9, r10
 1086 00aa 89B2     		uxth	r1, r1
 1087              	.LVL166:
 571:u8g2_lib/u8g2_font.c **** 	    x1++;
 1088              		.loc 1 571 0
 1089 00ac 0131     		adds	r1, r1, #1
 1090              	.LVL167:
 572:u8g2_lib/u8g2_font.c **** 	    y0 -= h;
 1091              		.loc 1 572 0
 1092 00ae 0AF10103 		add	r3, r10, #1
 1093 00b2 9BB2     		uxth	r3, r3
 1094              	.LVL168:
 573:u8g2_lib/u8g2_font.c **** 	    y0++;	/* shift down, because of assymetric boundaries for the interseciton test */
 1095              		.loc 1 573 0
 1096 00b4 871B     		subs	r7, r0, r6
 1097 00b6 BFB2     		uxth	r7, r7
 1098              	.LVL169:
 574:u8g2_lib/u8g2_font.c **** 	    y1++;
 1099              		.loc 1 574 0
 1100 00b8 0137     		adds	r7, r7, #1
 1101              	.LVL170:
 575:u8g2_lib/u8g2_font.c **** 	    break;	  
 1102              		.loc 1 575 0
 1103 00ba 0132     		adds	r2, r2, #1
 1104 00bc 90B2     		uxth	r0, r2
 1105              	.LVL171:
 574:u8g2_lib/u8g2_font.c **** 	    y1++;
 1106              		.loc 1 574 0
 1107 00be BAB2     		uxth	r2, r7
 571:u8g2_lib/u8g2_font.c **** 	    x1++;
 1108              		.loc 1 571 0
 1109 00c0 1FFA81FA 		uxth	r10, r1
 576:u8g2_lib/u8g2_font.c **** 	case 3:
 1110              		.loc 1 576 0
ARM GAS  C:\Users\master\AppData\Local\Temp\ccxO0czL.s 			page 41


 1111 00c4 0BE0     		b	.L51
 1112              	.LVL172:
 1113              	.L56:
 578:u8g2_lib/u8g2_font.c **** 	    y0 -= decode->glyph_width;
 1114              		.loc 1 578 0
 1115 00c6 0AEB0603 		add	r3, r10, r6
 1116 00ca 9BB2     		uxth	r3, r3
 1117              	.LVL173:
 579:u8g2_lib/u8g2_font.c **** 	    y0++;	/* shift down, because of assymetric boundaries for the interseciton test */
 1118              		.loc 1 579 0
 1119 00cc C9EB0001 		rsb	r1, r9, r0
 1120 00d0 89B2     		uxth	r1, r1
 1121              	.LVL174:
 580:u8g2_lib/u8g2_font.c **** 	    y1++;
 1122              		.loc 1 580 0
 1123 00d2 0131     		adds	r1, r1, #1
 1124              	.LVL175:
 581:u8g2_lib/u8g2_font.c **** 	    break;	  
 1125              		.loc 1 581 0
 1126 00d4 0132     		adds	r2, r2, #1
 1127 00d6 90B2     		uxth	r0, r2
 1128              	.LVL176:
 580:u8g2_lib/u8g2_font.c **** 	    y1++;
 1129              		.loc 1 580 0
 1130 00d8 8AB2     		uxth	r2, r1
 582:u8g2_lib/u8g2_font.c ****       }
 1131              		.loc 1 582 0
 1132 00da 00E0     		b	.L51
 1133              	.LVL177:
 1134              	.L59:
 553:u8g2_lib/u8g2_font.c ****       y1 = y0;
 1135              		.loc 1 553 0
 1136 00dc 5346     		mov	r3, r10
 1137              	.LVL178:
 1138              	.L51:
 589:u8g2_lib/u8g2_font.c **** 	return d;
 1139              		.loc 1 589 0
 1140 00de 0090     		str	r0, [sp]
 1141 00e0 5146     		mov	r1, r10
 1142 00e2 2046     		mov	r0, r4
 1143              	.LVL179:
 1144 00e4 FFF7FEFF 		bl	u8g2_IsIntersection
 1145              	.LVL180:
 1146 00e8 40B3     		cbz	r0, .L50
 1147              	.LBE3:
 595:u8g2_lib/u8g2_font.c ****     decode->y = 0;
 1148              		.loc 1 595 0
 1149 00ea 0023     		movs	r3, #0
 1150 00ec 84F86830 		strb	r3, [r4, #104]
 596:u8g2_lib/u8g2_font.c ****     
 1151              		.loc 1 596 0
 1152 00f0 84F86930 		strb	r3, [r4, #105]
 1153              	.L58:
 601:u8g2_lib/u8g2_font.c ****       b = u8g2_font_decode_get_unsigned_bits(decode, u8g2->font_info.bits_per_1);
 1154              		.loc 1 601 0
 1155 00f4 94F87610 		ldrb	r1, [r4, #118]	@ zero_extendqisi2
 1156 00f8 2846     		mov	r0, r5
ARM GAS  C:\Users\master\AppData\Local\Temp\ccxO0czL.s 			page 42


 1157 00fa FFF7FEFF 		bl	u8g2_font_decode_get_unsigned_bits
 1158              	.LVL181:
 1159 00fe 8046     		mov	r8, r0
 1160              	.LVL182:
 602:u8g2_lib/u8g2_font.c ****       do
 1161              		.loc 1 602 0
 1162 0100 94F87710 		ldrb	r1, [r4, #119]	@ zero_extendqisi2
 1163 0104 2846     		mov	r0, r5
 1164 0106 FFF7FEFF 		bl	u8g2_font_decode_get_unsigned_bits
 1165              	.LVL183:
 1166 010a 0746     		mov	r7, r0
 1167              	.LVL184:
 1168              	.L57:
 605:u8g2_lib/u8g2_font.c **** 	u8g2_font_decode_len(u8g2, b, 1);
 1169              		.loc 1 605 0 discriminator 1
 1170 010c 0022     		movs	r2, #0
 1171 010e 4146     		mov	r1, r8
 1172 0110 2046     		mov	r0, r4
 1173 0112 FFF7FEFF 		bl	u8g2_font_decode_len
 1174              	.LVL185:
 606:u8g2_lib/u8g2_font.c ****       } while( u8g2_font_decode_get_unsigned_bits(decode, 1) != 0 );
 1175              		.loc 1 606 0 discriminator 1
 1176 0116 0122     		movs	r2, #1
 1177 0118 3946     		mov	r1, r7
 1178 011a 2046     		mov	r0, r4
 1179 011c FFF7FEFF 		bl	u8g2_font_decode_len
 1180              	.LVL186:
 607:u8g2_lib/u8g2_font.c **** 
 1181              		.loc 1 607 0 discriminator 1
 1182 0120 0121     		movs	r1, #1
 1183 0122 2846     		mov	r0, r5
 1184 0124 FFF7FEFF 		bl	u8g2_font_decode_get_unsigned_bits
 1185              	.LVL187:
 1186 0128 0028     		cmp	r0, #0
 1187 012a EFD1     		bne	.L57
 609:u8g2_lib/u8g2_font.c **** 	break;
 1188              		.loc 1 609 0
 1189 012c 94F96930 		ldrsb	r3, [r4, #105]
 1190 0130 9E42     		cmp	r6, r3
 1191 0132 DFDC     		bgt	.L58
 614:u8g2_lib/u8g2_font.c ****   }
 1192              		.loc 1 614 0
 1193 0134 94F86E30 		ldrb	r3, [r4, #110]	@ zero_extendqisi2
 1194 0138 84F89230 		strb	r3, [r4, #146]
 1195              	.LVL188:
 1196              	.L50:
 617:u8g2_lib/u8g2_font.c **** 
 1197              		.loc 1 617 0
 1198 013c 0398     		ldr	r0, [sp, #12]
 1199 013e 05B0     		add	sp, sp, #20
 1200              	.LCFI11:
 1201              		.cfi_def_cfa_offset 36
 1202              		@ sp needed
 1203 0140 BDE8F08F 		pop	{r4, r5, r6, r7, r8, r9, r10, fp, pc}
 1204              		.cfi_endproc
 1205              	.LFE15:
 1207              		.section	.text.u8g2_font_get_glyph_data,"ax",%progbits
ARM GAS  C:\Users\master\AppData\Local\Temp\ccxO0czL.s 			page 43


 1208              		.align	2
 1209              		.global	u8g2_font_get_glyph_data
 1210              		.thumb
 1211              		.thumb_func
 1213              	u8g2_font_get_glyph_data:
 1214              	.LFB16:
 628:u8g2_lib/u8g2_font.c ****   const uint8_t *font = u8g2->font;
 1215              		.loc 1 628 0
 1216              		.cfi_startproc
 1217              		@ args = 0, pretend = 0, frame = 0
 1218              		@ frame_needed = 0, uses_anonymous_args = 0
 1219              	.LVL189:
 1220 0000 70B5     		push	{r4, r5, r6, lr}
 1221              	.LCFI12:
 1222              		.cfi_def_cfa_offset 16
 1223              		.cfi_offset 4, -16
 1224              		.cfi_offset 5, -12
 1225              		.cfi_offset 6, -8
 1226              		.cfi_offset 14, -4
 629:u8g2_lib/u8g2_font.c ****   font += U8G2_FONT_DATA_STRUCT_SIZE;
 1227              		.loc 1 629 0
 1228 0002 846D     		ldr	r4, [r0, #88]
 1229              	.LVL190:
 630:u8g2_lib/u8g2_font.c **** 
 1230              		.loc 1 630 0
 1231 0004 1734     		adds	r4, r4, #23
 1232              	.LVL191:
 633:u8g2_lib/u8g2_font.c ****   {
 1233              		.loc 1 633 0
 1234 0006 FF29     		cmp	r1, #255
 1235 0008 13D8     		bhi	.L62
 635:u8g2_lib/u8g2_font.c ****     {
 1236              		.loc 1 635 0
 1237 000a 6029     		cmp	r1, #96
 1238 000c 03D9     		bls	.L63
 637:u8g2_lib/u8g2_font.c ****     }
 1239              		.loc 1 637 0
 1240 000e B0F88830 		ldrh	r3, [r0, #136]
 1241 0012 1C44     		add	r4, r4, r3
 1242              	.LVL192:
 1243 0014 04E0     		b	.L67
 1244              	.L63:
 639:u8g2_lib/u8g2_font.c ****     {
 1245              		.loc 1 639 0
 1246 0016 4029     		cmp	r1, #64
 1247 0018 02D9     		bls	.L67
 641:u8g2_lib/u8g2_font.c ****     }
 1248              		.loc 1 641 0
 1249 001a B0F88630 		ldrh	r3, [r0, #134]
 1250 001e 1C44     		add	r4, r4, r3
 1251              	.LVL193:
 1252              	.L67:
 646:u8g2_lib/u8g2_font.c **** 	break;
 1253              		.loc 1 646 0
 1254 0020 6378     		ldrb	r3, [r4, #1]	@ zero_extendqisi2
 1255 0022 1BB3     		cbz	r3, .L71
 648:u8g2_lib/u8g2_font.c ****       {
ARM GAS  C:\Users\master\AppData\Local\Temp\ccxO0czL.s 			page 44


 1256              		.loc 1 648 0
 1257 0024 2278     		ldrb	r2, [r4]	@ zero_extendqisi2
 1258 0026 9142     		cmp	r1, r2
 1259 0028 01D1     		bne	.L66
 650:u8g2_lib/u8g2_font.c ****       }
 1260              		.loc 1 650 0
 1261 002a A01C     		adds	r0, r4, #2
 1262              	.LVL194:
 1263 002c 70BD     		pop	{r4, r5, r6, pc}
 1264              	.LVL195:
 1265              	.L66:
 652:u8g2_lib/u8g2_font.c ****     }
 1266              		.loc 1 652 0
 1267 002e 1C44     		add	r4, r4, r3
 1268              	.LVL196:
 653:u8g2_lib/u8g2_font.c ****   }
 1269              		.loc 1 653 0
 1270 0030 F6E7     		b	.L67
 1271              	.L62:
 1272 0032 0E46     		mov	r6, r1
 1273              	.LBB4:
 670:u8g2_lib/u8g2_font.c ****     unicode_lookup_table = font; 
 1274              		.loc 1 670 0
 1275 0034 B0F88A30 		ldrh	r3, [r0, #138]
 1276 0038 1C44     		add	r4, r4, r3
 1277              	.LVL197:
 671:u8g2_lib/u8g2_font.c ****   
 1278              		.loc 1 671 0
 1279 003a 2546     		mov	r5, r4
 1280              	.LVL198:
 1281              	.L68:
 676:u8g2_lib/u8g2_font.c ****       e = u8g2_font_get_word(unicode_lookup_table, 2);
 1282              		.loc 1 676 0 discriminator 1
 1283 003c 0021     		movs	r1, #0
 1284 003e 2846     		mov	r0, r5
 1285 0040 FFF7FEFF 		bl	u8g2_font_get_word
 1286              	.LVL199:
 1287 0044 0444     		add	r4, r4, r0
 1288              	.LVL200:
 677:u8g2_lib/u8g2_font.c ****       unicode_lookup_table+=4;
 1289              		.loc 1 677 0 discriminator 1
 1290 0046 0221     		movs	r1, #2
 1291 0048 2846     		mov	r0, r5
 1292 004a FFF7FEFF 		bl	u8g2_font_get_word
 1293              	.LVL201:
 678:u8g2_lib/u8g2_font.c ****     } while( e < encoding );
 1294              		.loc 1 678 0 discriminator 1
 1295 004e 0435     		adds	r5, r5, #4
 1296              	.LVL202:
 679:u8g2_lib/u8g2_font.c ****     
 1297              		.loc 1 679 0 discriminator 1
 1298 0050 8642     		cmp	r6, r0
 1299 0052 F3D8     		bhi	.L68
 1300              	.LVL203:
 1301              	.L70:
 684:u8g2_lib/u8g2_font.c ****       e <<= 8;
 1302              		.loc 1 684 0
ARM GAS  C:\Users\master\AppData\Local\Temp\ccxO0czL.s 			page 45


 1303 0054 2278     		ldrb	r2, [r4]	@ zero_extendqisi2
 1304              	.LVL204:
 686:u8g2_lib/u8g2_font.c ****   
 1305              		.loc 1 686 0
 1306 0056 6378     		ldrb	r3, [r4, #1]	@ zero_extendqisi2
 1307              	.LVL205:
 694:u8g2_lib/u8g2_font.c **** 	break;
 1308              		.loc 1 694 0
 1309 0058 53EA0223 		orrs	r3, r3, r2, lsl #8
 1310              	.LVL206:
 1311 005c 08D0     		beq	.L72
 697:u8g2_lib/u8g2_font.c ****       {
 1312              		.loc 1 697 0
 1313 005e 9E42     		cmp	r6, r3
 1314 0060 01D1     		bne	.L69
 704:u8g2_lib/u8g2_font.c ****       }
 1315              		.loc 1 704 0
 1316 0062 E01C     		adds	r0, r4, #3
 1317 0064 70BD     		pop	{r4, r5, r6, pc}
 1318              	.LVL207:
 1319              	.L69:
 706:u8g2_lib/u8g2_font.c ****     }  
 1320              		.loc 1 706 0
 1321 0066 A378     		ldrb	r3, [r4, #2]	@ zero_extendqisi2
 1322 0068 1C44     		add	r4, r4, r3
 1323              	.LVL208:
 707:u8g2_lib/u8g2_font.c ****   }
 1324              		.loc 1 707 0
 1325 006a F3E7     		b	.L70
 1326              	.LVL209:
 1327              	.L71:
 1328              	.LBE4:
 711:u8g2_lib/u8g2_font.c **** }
 1329              		.loc 1 711 0
 1330 006c 0020     		movs	r0, #0
 1331              	.LVL210:
 1332 006e 70BD     		pop	{r4, r5, r6, pc}
 1333              	.LVL211:
 1334              	.L72:
 1335 0070 0020     		movs	r0, #0
 712:u8g2_lib/u8g2_font.c **** 
 1336              		.loc 1 712 0
 1337 0072 70BD     		pop	{r4, r5, r6, pc}
 1338              		.cfi_endproc
 1339              	.LFE16:
 1341              		.section	.text.u8g2_font_draw_glyph,"ax",%progbits
 1342              		.align	2
 1343              		.thumb
 1344              		.thumb_func
 1346              	u8g2_font_draw_glyph:
 1347              	.LFB17:
 715:u8g2_lib/u8g2_font.c ****   u8g2_uint_t dx = 0;
 1348              		.loc 1 715 0
 1349              		.cfi_startproc
 1350              		@ args = 0, pretend = 0, frame = 0
 1351              		@ frame_needed = 0, uses_anonymous_args = 0
 1352              	.LVL212:
ARM GAS  C:\Users\master\AppData\Local\Temp\ccxO0czL.s 			page 46


 1353 0000 10B5     		push	{r4, lr}
 1354              	.LCFI13:
 1355              		.cfi_def_cfa_offset 8
 1356              		.cfi_offset 4, -8
 1357              		.cfi_offset 14, -4
 1358 0002 0446     		mov	r4, r0
 1359              	.LVL213:
 717:u8g2_lib/u8g2_font.c ****   u8g2->font_decode.target_y = y;
 1360              		.loc 1 717 0
 1361 0004 A0F86410 		strh	r1, [r0, #100]	@ movhi
 718:u8g2_lib/u8g2_font.c ****   //u8g2->font_decode.is_transparent = is_transparent; this is already set
 1362              		.loc 1 718 0
 1363 0008 A0F86620 		strh	r2, [r0, #102]	@ movhi
 721:u8g2_lib/u8g2_font.c ****   if ( glyph_data != NULL )
 1364              		.loc 1 721 0
 1365 000c 1946     		mov	r1, r3
 1366              	.LVL214:
 1367 000e FFF7FEFF 		bl	u8g2_font_get_glyph_data
 1368              	.LVL215:
 722:u8g2_lib/u8g2_font.c ****   {
 1369              		.loc 1 722 0
 1370 0012 28B1     		cbz	r0, .L76
 1371 0014 0146     		mov	r1, r0
 724:u8g2_lib/u8g2_font.c ****   }
 1372              		.loc 1 724 0
 1373 0016 2046     		mov	r0, r4
 1374              	.LVL216:
 1375 0018 FFF7FEFF 		bl	u8g2_font_decode_glyph
 1376              	.LVL217:
 1377 001c 80B2     		uxth	r0, r0
 1378              	.LVL218:
 1379 001e 10BD     		pop	{r4, pc}
 1380              	.LVL219:
 1381              	.L76:
 716:u8g2_lib/u8g2_font.c ****   u8g2->font_decode.target_x = x;
 1382              		.loc 1 716 0
 1383 0020 0020     		movs	r0, #0
 1384              	.LVL220:
 727:u8g2_lib/u8g2_font.c **** 
 1385              		.loc 1 727 0
 1386 0022 10BD     		pop	{r4, pc}
 1387              		.cfi_endproc
 1388              	.LFE17:
 1390              		.section	.text.u8g2_is_all_valid,"ax",%progbits
 1391              		.align	2
 1392              		.thumb
 1393              		.thumb_func
 1395              	u8g2_is_all_valid:
 1396              	.LFB40:
1063:u8g2_lib/u8g2_font.c **** 
1064:u8g2_lib/u8g2_font.c **** void u8g2_SetFontPosCenter(u8g2_t *u8g2)
1065:u8g2_lib/u8g2_font.c **** {
1066:u8g2_lib/u8g2_font.c ****   u8g2->font_calc_vref = u8g2_font_calc_vref_center;
1067:u8g2_lib/u8g2_font.c **** }
1068:u8g2_lib/u8g2_font.c **** 
1069:u8g2_lib/u8g2_font.c **** /*===============================================*/
1070:u8g2_lib/u8g2_font.c **** 
ARM GAS  C:\Users\master\AppData\Local\Temp\ccxO0czL.s 			page 47


1071:u8g2_lib/u8g2_font.c **** void u8g2_SetFont(u8g2_t *u8g2, const uint8_t  *font)
1072:u8g2_lib/u8g2_font.c **** {
1073:u8g2_lib/u8g2_font.c ****   if ( u8g2->font != font )
1074:u8g2_lib/u8g2_font.c ****   {
1075:u8g2_lib/u8g2_font.c **** //#ifdef  __unix__
1076:u8g2_lib/u8g2_font.c **** //	u8g2->last_font_data = NULL;
1077:u8g2_lib/u8g2_font.c **** //	u8g2->last_unicode = 0x0ffff;
1078:u8g2_lib/u8g2_font.c **** //#endif 
1079:u8g2_lib/u8g2_font.c ****     u8g2->font = font;
1080:u8g2_lib/u8g2_font.c ****     u8g2_read_font_info(&(u8g2->font_info), font);
1081:u8g2_lib/u8g2_font.c ****     u8g2_UpdateRefHeight(u8g2);
1082:u8g2_lib/u8g2_font.c ****     /* u8g2_SetFontPosBaseline(u8g2); */ /* removed with issue 195 */
1083:u8g2_lib/u8g2_font.c ****   }
1084:u8g2_lib/u8g2_font.c **** }
1085:u8g2_lib/u8g2_font.c **** 
1086:u8g2_lib/u8g2_font.c **** /*===============================================*/
1087:u8g2_lib/u8g2_font.c **** 
1088:u8g2_lib/u8g2_font.c **** static uint8_t u8g2_is_all_valid(u8g2_t *u8g2, const char *str) U8G2_NOINLINE;
1089:u8g2_lib/u8g2_font.c **** static uint8_t u8g2_is_all_valid(u8g2_t *u8g2, const char *str)
1090:u8g2_lib/u8g2_font.c **** {
 1397              		.loc 1 1090 0
 1398              		.cfi_startproc
 1399              		@ args = 0, pretend = 0, frame = 0
 1400              		@ frame_needed = 0, uses_anonymous_args = 0
 1401              	.LVL221:
 1402 0000 38B5     		push	{r3, r4, r5, lr}
 1403              	.LCFI14:
 1404              		.cfi_def_cfa_offset 16
 1405              		.cfi_offset 3, -16
 1406              		.cfi_offset 4, -12
 1407              		.cfi_offset 5, -8
 1408              		.cfi_offset 14, -4
 1409 0002 0546     		mov	r5, r0
 1410 0004 0C46     		mov	r4, r1
1091:u8g2_lib/u8g2_font.c ****   uint16_t e;
1092:u8g2_lib/u8g2_font.c ****   u8x8_utf8_init(u8g2_GetU8x8(u8g2));
 1411              		.loc 1 1092 0
 1412 0006 FFF7FEFF 		bl	u8x8_utf8_init
 1413              	.LVL222:
 1414              	.L80:
1093:u8g2_lib/u8g2_font.c ****   for(;;)
1094:u8g2_lib/u8g2_font.c ****   {
1095:u8g2_lib/u8g2_font.c ****     e = u8g2->u8x8.next_cb(u8g2_GetU8x8(u8g2), (uint8_t)*str);
 1415              		.loc 1 1095 0
 1416 000a 6B68     		ldr	r3, [r5, #4]
 1417 000c 2178     		ldrb	r1, [r4]	@ zero_extendqisi2
 1418 000e 2846     		mov	r0, r5
 1419 0010 9847     		blx	r3
 1420              	.LVL223:
1096:u8g2_lib/u8g2_font.c ****     if ( e == 0x0ffff )
 1421              		.loc 1 1096 0
 1422 0012 4FF6FF73 		movw	r3, #65535
 1423 0016 9842     		cmp	r0, r3
 1424 0018 0BD0     		beq	.L81
1097:u8g2_lib/u8g2_font.c ****       break;
1098:u8g2_lib/u8g2_font.c ****     str++;
 1425              		.loc 1 1098 0
ARM GAS  C:\Users\master\AppData\Local\Temp\ccxO0czL.s 			page 48


 1426 001a 0134     		adds	r4, r4, #1
 1427              	.LVL224:
1099:u8g2_lib/u8g2_font.c ****     if ( e != 0x0fffe )
 1428              		.loc 1 1099 0
 1429 001c 4FF6FE73 		movw	r3, #65534
 1430 0020 9842     		cmp	r0, r3
 1431 0022 F2D0     		beq	.L80
1100:u8g2_lib/u8g2_font.c ****     {
1101:u8g2_lib/u8g2_font.c ****       if ( u8g2_font_get_glyph_data(u8g2, e) == NULL )
 1432              		.loc 1 1101 0
 1433 0024 0146     		mov	r1, r0
 1434 0026 2846     		mov	r0, r5
 1435              	.LVL225:
 1436 0028 FFF7FEFF 		bl	u8g2_font_get_glyph_data
 1437              	.LVL226:
 1438 002c 0028     		cmp	r0, #0
 1439 002e ECD1     		bne	.L80
 1440 0030 38BD     		pop	{r3, r4, r5, pc}
 1441              	.LVL227:
 1442              	.L81:
1102:u8g2_lib/u8g2_font.c **** 	return 0;
1103:u8g2_lib/u8g2_font.c ****     }
1104:u8g2_lib/u8g2_font.c ****   }
1105:u8g2_lib/u8g2_font.c ****   return 1;
 1443              		.loc 1 1105 0
 1444 0032 0120     		movs	r0, #1
 1445              	.LVL228:
1106:u8g2_lib/u8g2_font.c **** }
 1446              		.loc 1 1106 0
 1447 0034 38BD     		pop	{r3, r4, r5, pc}
 1448              		.cfi_endproc
 1449              	.LFE40:
 1451 0036 00BF     		.section	.text.u8g2_GetGlyphHorizontalProperties,"ax",%progbits
 1452              		.align	2
 1453              		.thumb
 1454              		.thumb_func
 1456              	u8g2_GetGlyphHorizontalProperties:
 1457              	.LFB43:
1107:u8g2_lib/u8g2_font.c **** 
1108:u8g2_lib/u8g2_font.c **** uint8_t u8g2_IsAllValidUTF8(u8g2_t *u8g2, const char *str)
1109:u8g2_lib/u8g2_font.c **** {
1110:u8g2_lib/u8g2_font.c ****   u8g2->u8x8.next_cb = u8x8_utf8_next;
1111:u8g2_lib/u8g2_font.c ****   return u8g2_is_all_valid(u8g2, str);
1112:u8g2_lib/u8g2_font.c **** }
1113:u8g2_lib/u8g2_font.c **** 
1114:u8g2_lib/u8g2_font.c **** 
1115:u8g2_lib/u8g2_font.c **** /* string calculation is stilll not 100% perfect as it addes the initial string offset to the overa
1116:u8g2_lib/u8g2_font.c **** static u8g2_uint_t u8g2_string_width(u8g2_t *u8g2, const char *str) U8G2_NOINLINE;
1117:u8g2_lib/u8g2_font.c **** static u8g2_uint_t u8g2_string_width(u8g2_t *u8g2, const char *str)
1118:u8g2_lib/u8g2_font.c **** {
1119:u8g2_lib/u8g2_font.c ****   uint16_t e;
1120:u8g2_lib/u8g2_font.c ****   u8g2_uint_t  w, dx;
1121:u8g2_lib/u8g2_font.c ****   
1122:u8g2_lib/u8g2_font.c ****   u8g2->font_decode.glyph_width = 0;
1123:u8g2_lib/u8g2_font.c ****   u8x8_utf8_init(u8g2_GetU8x8(u8g2));
1124:u8g2_lib/u8g2_font.c ****   
1125:u8g2_lib/u8g2_font.c ****   /* reset the total width to zero, this will be expanded during calculation */
ARM GAS  C:\Users\master\AppData\Local\Temp\ccxO0czL.s 			page 49


1126:u8g2_lib/u8g2_font.c ****   w = 0;
1127:u8g2_lib/u8g2_font.c ****   dx = 0;
1128:u8g2_lib/u8g2_font.c **** 
1129:u8g2_lib/u8g2_font.c ****   // printf("str=<%s>\n", str);
1130:u8g2_lib/u8g2_font.c **** 	
1131:u8g2_lib/u8g2_font.c ****   for(;;)
1132:u8g2_lib/u8g2_font.c ****   {
1133:u8g2_lib/u8g2_font.c ****     e = u8g2->u8x8.next_cb(u8g2_GetU8x8(u8g2), (uint8_t)*str);
1134:u8g2_lib/u8g2_font.c ****     if ( e == 0x0ffff )
1135:u8g2_lib/u8g2_font.c ****       break;
1136:u8g2_lib/u8g2_font.c ****     str++;
1137:u8g2_lib/u8g2_font.c ****     if ( e != 0x0fffe )
1138:u8g2_lib/u8g2_font.c ****     {
1139:u8g2_lib/u8g2_font.c ****       dx = u8g2_GetGlyphWidth(u8g2, e);		/* delta x value of the glyph */
1140:u8g2_lib/u8g2_font.c ****       w += dx;
1141:u8g2_lib/u8g2_font.c ****     }
1142:u8g2_lib/u8g2_font.c ****   }
1143:u8g2_lib/u8g2_font.c ****   
1144:u8g2_lib/u8g2_font.c ****   /* adjust the last glyph, check for issue #16: do not adjust if width is 0 */
1145:u8g2_lib/u8g2_font.c ****   if ( u8g2->font_decode.glyph_width != 0 )
1146:u8g2_lib/u8g2_font.c ****   {
1147:u8g2_lib/u8g2_font.c ****     w -= dx;
1148:u8g2_lib/u8g2_font.c ****     w += u8g2->font_decode.glyph_width;  /* the real pixel width of the glyph, sideeffect of GetGly
1149:u8g2_lib/u8g2_font.c ****     /* issue #46: we have to add the x offset also */
1150:u8g2_lib/u8g2_font.c ****     w += u8g2->glyph_x_offset;	/* this value is set as a side effect of u8g2_GetGlyphWidth() */
1151:u8g2_lib/u8g2_font.c ****   }
1152:u8g2_lib/u8g2_font.c ****   // printf("w=%d \n", w);
1153:u8g2_lib/u8g2_font.c ****   
1154:u8g2_lib/u8g2_font.c ****   return w;  
1155:u8g2_lib/u8g2_font.c **** }
1156:u8g2_lib/u8g2_font.c **** 
1157:u8g2_lib/u8g2_font.c **** static void u8g2_GetGlyphHorizontalProperties(u8g2_t *u8g2, uint16_t requested_encoding, uint8_t *w
1158:u8g2_lib/u8g2_font.c **** {
 1458              		.loc 1 1158 0
 1459              		.cfi_startproc
 1460              		@ args = 4, pretend = 0, frame = 0
 1461              		@ frame_needed = 0, uses_anonymous_args = 0
 1462              	.LVL229:
 1463 0000 70B5     		push	{r4, r5, r6, lr}
 1464              	.LCFI15:
 1465              		.cfi_def_cfa_offset 16
 1466              		.cfi_offset 4, -16
 1467              		.cfi_offset 5, -12
 1468              		.cfi_offset 6, -8
 1469              		.cfi_offset 14, -4
 1470 0002 0446     		mov	r4, r0
 1471 0004 1546     		mov	r5, r2
 1472 0006 1E46     		mov	r6, r3
1159:u8g2_lib/u8g2_font.c ****   const uint8_t *glyph_data = u8g2_font_get_glyph_data(u8g2, requested_encoding);
 1473              		.loc 1 1159 0
 1474 0008 FFF7FEFF 		bl	u8g2_font_get_glyph_data
 1475              	.LVL230:
1160:u8g2_lib/u8g2_font.c ****   if ( glyph_data == NULL )
 1476              		.loc 1 1160 0
 1477 000c D0B1     		cbz	r0, .L83
 1478 000e 0146     		mov	r1, r0
1161:u8g2_lib/u8g2_font.c ****     return; 
ARM GAS  C:\Users\master\AppData\Local\Temp\ccxO0czL.s 			page 50


1162:u8g2_lib/u8g2_font.c ****   
1163:u8g2_lib/u8g2_font.c ****   u8g2_font_setup_decode(u8g2, glyph_data);
 1479              		.loc 1 1163 0
 1480 0010 2046     		mov	r0, r4
 1481              	.LVL231:
 1482 0012 FFF7FEFF 		bl	u8g2_font_setup_decode
 1483              	.LVL232:
1164:u8g2_lib/u8g2_font.c ****   *w = u8g2->font_decode.glyph_width;
 1484              		.loc 1 1164 0
 1485 0016 94F96A30 		ldrsb	r3, [r4, #106]
 1486 001a 2B70     		strb	r3, [r5]
1165:u8g2_lib/u8g2_font.c ****   *ox =  u8g2_font_decode_get_signed_bits(&(u8g2->font_decode), u8g2->font_info.bits_per_char_x);
 1487              		.loc 1 1165 0
 1488 001c 04F16005 		add	r5, r4, #96
 1489              	.LVL233:
 1490 0020 94F87A10 		ldrb	r1, [r4, #122]	@ zero_extendqisi2
 1491 0024 2846     		mov	r0, r5
 1492 0026 FFF7FEFF 		bl	u8g2_font_decode_get_signed_bits
 1493              	.LVL234:
 1494 002a 3070     		strb	r0, [r6]
1166:u8g2_lib/u8g2_font.c ****   u8g2_font_decode_get_signed_bits(&(u8g2->font_decode), u8g2->font_info.bits_per_char_y);
 1495              		.loc 1 1166 0
 1496 002c 94F87B10 		ldrb	r1, [r4, #123]	@ zero_extendqisi2
 1497 0030 2846     		mov	r0, r5
 1498 0032 FFF7FEFF 		bl	u8g2_font_decode_get_signed_bits
 1499              	.LVL235:
1167:u8g2_lib/u8g2_font.c ****   *dx = u8g2_font_decode_get_signed_bits(&(u8g2->font_decode), u8g2->font_info.bits_per_delta_x);
 1500              		.loc 1 1167 0
 1501 0036 94F87C10 		ldrb	r1, [r4, #124]	@ zero_extendqisi2
 1502 003a 2846     		mov	r0, r5
 1503 003c FFF7FEFF 		bl	u8g2_font_decode_get_signed_bits
 1504              	.LVL236:
 1505 0040 049B     		ldr	r3, [sp, #16]
 1506 0042 1870     		strb	r0, [r3]
 1507              	.L83:
 1508 0044 70BD     		pop	{r4, r5, r6, pc}
 1509              		.cfi_endproc
 1510              	.LFE43:
 1512 0046 00BF     		.section	.text.u8g2_calculate_exact_string_width,"ax",%progbits
 1513              		.align	2
 1514              		.thumb
 1515              		.thumb_func
 1517              	u8g2_calculate_exact_string_width:
 1518              	.LFB45:
1168:u8g2_lib/u8g2_font.c **** }
1169:u8g2_lib/u8g2_font.c **** 
1170:u8g2_lib/u8g2_font.c **** /* u8g compatible GetStrX function */
1171:u8g2_lib/u8g2_font.c **** int8_t u8g2_GetStrX(u8g2_t *u8g2, const char *s)
1172:u8g2_lib/u8g2_font.c **** {
1173:u8g2_lib/u8g2_font.c ****   uint8_t w;
1174:u8g2_lib/u8g2_font.c ****   int8_t ox, dx;
1175:u8g2_lib/u8g2_font.c ****   u8g2_GetGlyphHorizontalProperties(u8g2, *s, &w, &ox, &dx);
1176:u8g2_lib/u8g2_font.c ****   return ox;
1177:u8g2_lib/u8g2_font.c **** }
1178:u8g2_lib/u8g2_font.c **** 
1179:u8g2_lib/u8g2_font.c **** 
1180:u8g2_lib/u8g2_font.c **** 
ARM GAS  C:\Users\master\AppData\Local\Temp\ccxO0czL.s 			page 51


1181:u8g2_lib/u8g2_font.c **** static u8g2_uint_t u8g2_calculate_exact_string_width(u8g2_t *u8g2, const char *str)
1182:u8g2_lib/u8g2_font.c **** {
 1519              		.loc 1 1182 0
 1520              		.cfi_startproc
 1521              		@ args = 0, pretend = 0, frame = 8
 1522              		@ frame_needed = 0, uses_anonymous_args = 0
 1523              	.LVL237:
 1524 0000 70B5     		push	{r4, r5, r6, lr}
 1525              	.LCFI16:
 1526              		.cfi_def_cfa_offset 16
 1527              		.cfi_offset 4, -16
 1528              		.cfi_offset 5, -12
 1529              		.cfi_offset 6, -8
 1530              		.cfi_offset 14, -4
 1531 0002 84B0     		sub	sp, sp, #16
 1532              	.LCFI17:
 1533              		.cfi_def_cfa_offset 32
 1534 0004 0446     		mov	r4, r0
 1535 0006 0D46     		mov	r5, r1
 1536              	.LVL238:
 1537              	.L87:
1183:u8g2_lib/u8g2_font.c **** 
1184:u8g2_lib/u8g2_font.c ****   u8g2_uint_t  w;
1185:u8g2_lib/u8g2_font.c ****   uint16_t enc;
1186:u8g2_lib/u8g2_font.c ****   uint8_t gw; 
1187:u8g2_lib/u8g2_font.c ****   int8_t ox, dx;
1188:u8g2_lib/u8g2_font.c ****   
1189:u8g2_lib/u8g2_font.c ****   /* reset the total minimal width to zero, this will be expanded during calculation */
1190:u8g2_lib/u8g2_font.c ****   w = 0;
1191:u8g2_lib/u8g2_font.c ****     
1192:u8g2_lib/u8g2_font.c ****   
1193:u8g2_lib/u8g2_font.c ****   /* check for empty string, width is already 0 */
1194:u8g2_lib/u8g2_font.c ****   do
1195:u8g2_lib/u8g2_font.c ****   {
1196:u8g2_lib/u8g2_font.c ****     enc = u8g2->u8x8.next_cb(u8g2_GetU8x8(u8g2), (uint8_t)*str);
 1538              		.loc 1 1196 0 discriminator 1
 1539 0008 6368     		ldr	r3, [r4, #4]
 1540 000a 15F8011B 		ldrb	r1, [r5], #1	@ zero_extendqisi2
 1541              	.LVL239:
 1542 000e 2046     		mov	r0, r4
 1543 0010 9847     		blx	r3
 1544              	.LVL240:
1197:u8g2_lib/u8g2_font.c ****     str++;
1198:u8g2_lib/u8g2_font.c ****   } while( enc == 0x0fffe );
 1545              		.loc 1 1198 0 discriminator 1
 1546 0012 4FF6FE73 		movw	r3, #65534
 1547 0016 9842     		cmp	r0, r3
 1548 0018 F6D0     		beq	.L87
1199:u8g2_lib/u8g2_font.c ****   
1200:u8g2_lib/u8g2_font.c ****   if ( enc== 0x0ffff )
 1549              		.loc 1 1200 0
 1550 001a 4FF6FF73 		movw	r3, #65535
 1551 001e 9842     		cmp	r0, r3
 1552 0020 3BD0     		beq	.L93
1201:u8g2_lib/u8g2_font.c ****      return w;
1202:u8g2_lib/u8g2_font.c ****   
1203:u8g2_lib/u8g2_font.c ****   /* get the glyph information of the first char. This must be valid, because we already checked fo
ARM GAS  C:\Users\master\AppData\Local\Temp\ccxO0czL.s 			page 52


1204:u8g2_lib/u8g2_font.c ****   /* if *s is not inside the font, then the cached parameters of the glyph are all zero */
1205:u8g2_lib/u8g2_font.c ****   u8g2_GetGlyphHorizontalProperties(u8g2, enc, &gw, &ox, &dx);  
 1553              		.loc 1 1205 0
 1554 0022 0DF10D03 		add	r3, sp, #13
 1555 0026 0093     		str	r3, [sp]
 1556 0028 0DF10E03 		add	r3, sp, #14
 1557 002c 0DF10F02 		add	r2, sp, #15
 1558 0030 0146     		mov	r1, r0
 1559 0032 2046     		mov	r0, r4
 1560              	.LVL241:
 1561 0034 FFF7FEFF 		bl	u8g2_GetGlyphHorizontalProperties
 1562              	.LVL242:
1206:u8g2_lib/u8g2_font.c **** 
1207:u8g2_lib/u8g2_font.c ****   /* strlen(s) == 1:       width = width(s[0]) */
1208:u8g2_lib/u8g2_font.c ****   /* strlen(s) == 2:       width = - offx(s[0]) + deltax(s[0]) + offx(s[1]) + width(s[1]) */
1209:u8g2_lib/u8g2_font.c ****   /* strlen(s) == 3:       width = - offx(s[0]) + deltax(s[0]) + deltax(s[1]) + offx(s[2]) + width(
1210:u8g2_lib/u8g2_font.c ****   
1211:u8g2_lib/u8g2_font.c ****   /* assume that the string has size 2 or more, than start with negative offset-x */
1212:u8g2_lib/u8g2_font.c ****   /* for string with size 1, this will be nullified after the loop */
1213:u8g2_lib/u8g2_font.c ****   w = -ox;  
 1563              		.loc 1 1213 0
 1564 0038 9DF90E30 		ldrsb	r3, [sp, #14]
 1565 003c 5B42     		negs	r3, r3
 1566 003e 9EB2     		uxth	r6, r3
 1567              	.LVL243:
 1568              	.L89:
1214:u8g2_lib/u8g2_font.c ****   for(;;)
1215:u8g2_lib/u8g2_font.c ****   {
1216:u8g2_lib/u8g2_font.c ****     
1217:u8g2_lib/u8g2_font.c ****     /* check and stop if the end of the string is reached */
1218:u8g2_lib/u8g2_font.c ****     do
1219:u8g2_lib/u8g2_font.c ****     {
1220:u8g2_lib/u8g2_font.c ****       enc = u8g2->u8x8.next_cb(u8g2_GetU8x8(u8g2), (uint8_t)*str);
 1569              		.loc 1 1220 0 discriminator 1
 1570 0040 6368     		ldr	r3, [r4, #4]
 1571 0042 15F8011B 		ldrb	r1, [r5], #1	@ zero_extendqisi2
 1572              	.LVL244:
 1573 0046 2046     		mov	r0, r4
 1574 0048 9847     		blx	r3
 1575              	.LVL245:
1221:u8g2_lib/u8g2_font.c ****       str++;
1222:u8g2_lib/u8g2_font.c ****     } while( enc == 0x0fffe );
 1576              		.loc 1 1222 0 discriminator 1
 1577 004a 4FF6FE73 		movw	r3, #65534
 1578 004e 9842     		cmp	r0, r3
 1579 0050 F6D0     		beq	.L89
1223:u8g2_lib/u8g2_font.c ****     if ( enc== 0x0ffff )
 1580              		.loc 1 1223 0
 1581 0052 4FF6FF73 		movw	r3, #65535
 1582 0056 9842     		cmp	r0, r3
 1583 0058 0FD0     		beq	.L91
1224:u8g2_lib/u8g2_font.c ****       break;
1225:u8g2_lib/u8g2_font.c **** 
1226:u8g2_lib/u8g2_font.c ****     u8g2_GetGlyphHorizontalProperties(u8g2, enc, &gw, &ox, &dx);  
 1584              		.loc 1 1226 0
 1585 005a 0DF10D03 		add	r3, sp, #13
 1586 005e 0093     		str	r3, [sp]
ARM GAS  C:\Users\master\AppData\Local\Temp\ccxO0czL.s 			page 53


 1587 0060 0DF10E03 		add	r3, sp, #14
 1588 0064 0DF10F02 		add	r2, sp, #15
 1589 0068 0146     		mov	r1, r0
 1590 006a 2046     		mov	r0, r4
 1591              	.LVL246:
 1592 006c FFF7FEFF 		bl	u8g2_GetGlyphHorizontalProperties
 1593              	.LVL247:
1227:u8g2_lib/u8g2_font.c ****     
1228:u8g2_lib/u8g2_font.c ****     /* if there are still more characters, add the delta to the next glyph */
1229:u8g2_lib/u8g2_font.c ****     w += dx;    
 1594              		.loc 1 1229 0
 1595 0070 9DF90D30 		ldrsb	r3, [sp, #13]
 1596 0074 3344     		add	r3, r3, r6
 1597 0076 9EB2     		uxth	r6, r3
 1598              	.LVL248:
1230:u8g2_lib/u8g2_font.c ****   }
 1599              		.loc 1 1230 0
 1600 0078 E2E7     		b	.L89
 1601              	.LVL249:
 1602              	.L91:
1231:u8g2_lib/u8g2_font.c ****   
1232:u8g2_lib/u8g2_font.c ****   /* finally calculate the width of the last char */
1233:u8g2_lib/u8g2_font.c ****   /* here is another exception, if the last char is a black, use the dx value instead */
1234:u8g2_lib/u8g2_font.c ****   if ( enc != ' ' )
 1603              		.loc 1 1234 0
 1604 007a 2028     		cmp	r0, #32
 1605 007c 08D0     		beq	.L92
1235:u8g2_lib/u8g2_font.c ****   {
1236:u8g2_lib/u8g2_font.c ****     /* if g was not updated in the for loop (strlen() == 1), then the initial offset x gets removed
1237:u8g2_lib/u8g2_font.c ****     w += gw;
 1606              		.loc 1 1237 0
 1607 007e 9DF80F00 		ldrb	r0, [sp, #15]	@ zero_extendqisi2
 1608              	.LVL250:
 1609 0082 3318     		adds	r3, r6, r0
 1610              	.LVL251:
1238:u8g2_lib/u8g2_font.c ****     w += ox;
 1611              		.loc 1 1238 0
 1612 0084 9DF90E00 		ldrsb	r0, [sp, #14]
 1613 0088 10FA83F0 		uxtah	r0, r0, r3
 1614 008c 80B2     		uxth	r0, r0
 1615              	.LVL252:
 1616 008e 05E0     		b	.L88
 1617              	.LVL253:
 1618              	.L92:
1239:u8g2_lib/u8g2_font.c ****   }
1240:u8g2_lib/u8g2_font.c ****   else
1241:u8g2_lib/u8g2_font.c ****   {
1242:u8g2_lib/u8g2_font.c ****     w += dx;
 1619              		.loc 1 1242 0
 1620 0090 9DF90D30 		ldrsb	r3, [sp, #13]
 1621 0094 3344     		add	r3, r3, r6
 1622 0096 98B2     		uxth	r0, r3
 1623              	.LVL254:
 1624 0098 00E0     		b	.L88
 1625              	.LVL255:
 1626              	.L93:
1201:u8g2_lib/u8g2_font.c ****   
ARM GAS  C:\Users\master\AppData\Local\Temp\ccxO0czL.s 			page 54


 1627              		.loc 1 1201 0
 1628 009a 0020     		movs	r0, #0
 1629              	.LVL256:
 1630              	.L88:
1243:u8g2_lib/u8g2_font.c ****   }
1244:u8g2_lib/u8g2_font.c ****   
1245:u8g2_lib/u8g2_font.c ****   
1246:u8g2_lib/u8g2_font.c ****   return w;
1247:u8g2_lib/u8g2_font.c **** 	
1248:u8g2_lib/u8g2_font.c **** }
 1631              		.loc 1 1248 0
 1632 009c 04B0     		add	sp, sp, #16
 1633              	.LCFI18:
 1634              		.cfi_def_cfa_offset 16
 1635              		@ sp needed
 1636 009e 70BD     		pop	{r4, r5, r6, pc}
 1637              		.cfi_endproc
 1638              	.LFE45:
 1640              		.section	.text.u8g2_IsGlyph,"ax",%progbits
 1641              		.align	2
 1642              		.global	u8g2_IsGlyph
 1643              		.thumb
 1644              		.thumb_func
 1646              	u8g2_IsGlyph:
 1647              	.LFB18:
 732:u8g2_lib/u8g2_font.c ****   /* updated to new code */
 1648              		.loc 1 732 0
 1649              		.cfi_startproc
 1650              		@ args = 0, pretend = 0, frame = 0
 1651              		@ frame_needed = 0, uses_anonymous_args = 0
 1652              	.LVL257:
 1653 0000 08B5     		push	{r3, lr}
 1654              	.LCFI19:
 1655              		.cfi_def_cfa_offset 8
 1656              		.cfi_offset 3, -8
 1657              		.cfi_offset 14, -4
 734:u8g2_lib/u8g2_font.c ****     return 1;
 1658              		.loc 1 734 0
 1659 0002 FFF7FEFF 		bl	u8g2_font_get_glyph_data
 1660              	.LVL258:
 1661 0006 08B1     		cbz	r0, .L97
 735:u8g2_lib/u8g2_font.c ****   return 0;
 1662              		.loc 1 735 0
 1663 0008 0120     		movs	r0, #1
 1664 000a 08BD     		pop	{r3, pc}
 1665              	.L97:
 736:u8g2_lib/u8g2_font.c **** }
 1666              		.loc 1 736 0
 1667 000c 0020     		movs	r0, #0
 737:u8g2_lib/u8g2_font.c **** 
 1668              		.loc 1 737 0
 1669 000e 08BD     		pop	{r3, pc}
 1670              		.cfi_endproc
 1671              	.LFE18:
 1673              		.section	.text.u8g2_GetGlyphWidth,"ax",%progbits
 1674              		.align	2
 1675              		.global	u8g2_GetGlyphWidth
ARM GAS  C:\Users\master\AppData\Local\Temp\ccxO0czL.s 			page 55


 1676              		.thumb
 1677              		.thumb_func
 1679              	u8g2_GetGlyphWidth:
 1680              	.LFB19:
 741:u8g2_lib/u8g2_font.c ****   const uint8_t *glyph_data = u8g2_font_get_glyph_data(u8g2, requested_encoding);
 1681              		.loc 1 741 0
 1682              		.cfi_startproc
 1683              		@ args = 0, pretend = 0, frame = 0
 1684              		@ frame_needed = 0, uses_anonymous_args = 0
 1685              	.LVL259:
 1686 0000 38B5     		push	{r3, r4, r5, lr}
 1687              	.LCFI20:
 1688              		.cfi_def_cfa_offset 16
 1689              		.cfi_offset 3, -16
 1690              		.cfi_offset 4, -12
 1691              		.cfi_offset 5, -8
 1692              		.cfi_offset 14, -4
 1693 0002 0446     		mov	r4, r0
 742:u8g2_lib/u8g2_font.c ****   if ( glyph_data == NULL )
 1694              		.loc 1 742 0
 1695 0004 FFF7FEFF 		bl	u8g2_font_get_glyph_data
 1696              	.LVL260:
 743:u8g2_lib/u8g2_font.c ****     return 0; 
 1697              		.loc 1 743 0
 1698 0008 B8B1     		cbz	r0, .L101
 1699 000a 0146     		mov	r1, r0
 746:u8g2_lib/u8g2_font.c ****   u8g2->glyph_x_offset = u8g2_font_decode_get_signed_bits(&(u8g2->font_decode), u8g2->font_info.bit
 1700              		.loc 1 746 0
 1701 000c 2046     		mov	r0, r4
 1702              	.LVL261:
 1703 000e FFF7FEFF 		bl	u8g2_font_setup_decode
 1704              	.LVL262:
 747:u8g2_lib/u8g2_font.c ****   u8g2_font_decode_get_signed_bits(&(u8g2->font_decode), u8g2->font_info.bits_per_char_y);
 1705              		.loc 1 747 0
 1706 0012 04F16005 		add	r5, r4, #96
 1707 0016 94F87A10 		ldrb	r1, [r4, #122]	@ zero_extendqisi2
 1708 001a 2846     		mov	r0, r5
 1709 001c FFF7FEFF 		bl	u8g2_font_decode_get_signed_bits
 1710              	.LVL263:
 1711 0020 84F89000 		strb	r0, [r4, #144]
 748:u8g2_lib/u8g2_font.c ****   
 1712              		.loc 1 748 0
 1713 0024 94F87B10 		ldrb	r1, [r4, #123]	@ zero_extendqisi2
 1714 0028 2846     		mov	r0, r5
 1715 002a FFF7FEFF 		bl	u8g2_font_decode_get_signed_bits
 1716              	.LVL264:
 752:u8g2_lib/u8g2_font.c **** }
 1717              		.loc 1 752 0
 1718 002e 94F87C10 		ldrb	r1, [r4, #124]	@ zero_extendqisi2
 1719 0032 2846     		mov	r0, r5
 1720 0034 FFF7FEFF 		bl	u8g2_font_decode_get_signed_bits
 1721              	.LVL265:
 1722 0038 38BD     		pop	{r3, r4, r5, pc}
 1723              	.LVL266:
 1724              	.L101:
 744:u8g2_lib/u8g2_font.c ****   
 1725              		.loc 1 744 0
ARM GAS  C:\Users\master\AppData\Local\Temp\ccxO0czL.s 			page 56


 1726 003a 0020     		movs	r0, #0
 1727              	.LVL267:
 753:u8g2_lib/u8g2_font.c **** 
 1728              		.loc 1 753 0
 1729 003c 38BD     		pop	{r3, r4, r5, pc}
 1730              		.cfi_endproc
 1731              	.LFE19:
 1733 003e 00BF     		.section	.text.u8g2_string_width,"ax",%progbits
 1734              		.align	2
 1735              		.thumb
 1736              		.thumb_func
 1738              	u8g2_string_width:
 1739              	.LFB42:
1118:u8g2_lib/u8g2_font.c ****   uint16_t e;
 1740              		.loc 1 1118 0
 1741              		.cfi_startproc
 1742              		@ args = 0, pretend = 0, frame = 0
 1743              		@ frame_needed = 0, uses_anonymous_args = 0
 1744              	.LVL268:
 1745 0000 F8B5     		push	{r3, r4, r5, r6, r7, lr}
 1746              	.LCFI21:
 1747              		.cfi_def_cfa_offset 24
 1748              		.cfi_offset 3, -24
 1749              		.cfi_offset 4, -20
 1750              		.cfi_offset 5, -16
 1751              		.cfi_offset 6, -12
 1752              		.cfi_offset 7, -8
 1753              		.cfi_offset 14, -4
 1754 0002 0546     		mov	r5, r0
 1755 0004 0C46     		mov	r4, r1
1122:u8g2_lib/u8g2_font.c ****   u8x8_utf8_init(u8g2_GetU8x8(u8g2));
 1756              		.loc 1 1122 0
 1757 0006 0026     		movs	r6, #0
 1758 0008 80F86A60 		strb	r6, [r0, #106]
1123:u8g2_lib/u8g2_font.c ****   
 1759              		.loc 1 1123 0
 1760 000c FFF7FEFF 		bl	u8x8_utf8_init
 1761              	.LVL269:
1127:u8g2_lib/u8g2_font.c **** 
 1762              		.loc 1 1127 0
 1763 0010 3746     		mov	r7, r6
 1764              	.LVL270:
 1765              	.L104:
1133:u8g2_lib/u8g2_font.c ****     if ( e == 0x0ffff )
 1766              		.loc 1 1133 0
 1767 0012 6B68     		ldr	r3, [r5, #4]
 1768 0014 2178     		ldrb	r1, [r4]	@ zero_extendqisi2
 1769 0016 2846     		mov	r0, r5
 1770 0018 9847     		blx	r3
 1771              	.LVL271:
1134:u8g2_lib/u8g2_font.c ****       break;
 1772              		.loc 1 1134 0
 1773 001a 4FF6FF73 		movw	r3, #65535
 1774 001e 9842     		cmp	r0, r3
 1775 0020 0CD0     		beq	.L105
1136:u8g2_lib/u8g2_font.c ****     if ( e != 0x0fffe )
 1776              		.loc 1 1136 0
ARM GAS  C:\Users\master\AppData\Local\Temp\ccxO0czL.s 			page 57


 1777 0022 0134     		adds	r4, r4, #1
 1778              	.LVL272:
1137:u8g2_lib/u8g2_font.c ****     {
 1779              		.loc 1 1137 0
 1780 0024 4FF6FE73 		movw	r3, #65534
 1781 0028 9842     		cmp	r0, r3
 1782 002a F2D0     		beq	.L104
1139:u8g2_lib/u8g2_font.c ****       w += dx;
 1783              		.loc 1 1139 0
 1784 002c 0146     		mov	r1, r0
 1785 002e 2846     		mov	r0, r5
 1786              	.LVL273:
 1787 0030 FFF7FEFF 		bl	u8g2_GetGlyphWidth
 1788              	.LVL274:
 1789 0034 87B2     		uxth	r7, r0
 1790              	.LVL275:
1140:u8g2_lib/u8g2_font.c ****     }
 1791              		.loc 1 1140 0
 1792 0036 3E44     		add	r6, r6, r7
 1793              	.LVL276:
 1794 0038 B6B2     		uxth	r6, r6
 1795              	.LVL277:
 1796 003a EAE7     		b	.L104
 1797              	.LVL278:
 1798              	.L105:
1145:u8g2_lib/u8g2_font.c ****   {
 1799              		.loc 1 1145 0
 1800 003c 95F96A30 		ldrsb	r3, [r5, #106]
 1801 0040 3BB1     		cbz	r3, .L107
1147:u8g2_lib/u8g2_font.c ****     w += u8g2->font_decode.glyph_width;  /* the real pixel width of the glyph, sideeffect of GetGly
 1802              		.loc 1 1147 0
 1803 0042 F61B     		subs	r6, r6, r7
 1804              	.LVL279:
1148:u8g2_lib/u8g2_font.c ****     /* issue #46: we have to add the x offset also */
 1805              		.loc 1 1148 0
 1806 0044 13FA86F6 		uxtah	r6, r3, r6
 1807              	.LVL280:
1150:u8g2_lib/u8g2_font.c ****   }
 1808              		.loc 1 1150 0
 1809 0048 95F99030 		ldrsb	r3, [r5, #144]
 1810 004c 13FA86F6 		uxtah	r6, r3, r6
 1811              	.LVL281:
 1812 0050 B6B2     		uxth	r6, r6
 1813              	.LVL282:
 1814              	.L107:
1155:u8g2_lib/u8g2_font.c **** 
 1815              		.loc 1 1155 0
 1816 0052 3046     		mov	r0, r6
 1817              	.LVL283:
 1818 0054 F8BD     		pop	{r3, r4, r5, r6, r7, pc}
 1819              		.cfi_endproc
 1820              	.LFE42:
 1822 0056 00BF     		.section	.text.u8g2_SetFontMode,"ax",%progbits
 1823              		.align	2
 1824              		.global	u8g2_SetFontMode
 1825              		.thumb
 1826              		.thumb_func
ARM GAS  C:\Users\master\AppData\Local\Temp\ccxO0czL.s 			page 58


 1828              	u8g2_SetFontMode:
 1829              	.LFB20:
 764:u8g2_lib/u8g2_font.c ****   u8g2->font_decode.is_transparent = is_transparent;		// new font procedures
 1830              		.loc 1 764 0
 1831              		.cfi_startproc
 1832              		@ args = 0, pretend = 0, frame = 0
 1833              		@ frame_needed = 0, uses_anonymous_args = 0
 1834              		@ link register save eliminated.
 1835              	.LVL284:
 765:u8g2_lib/u8g2_font.c **** }
 1836              		.loc 1 765 0
 1837 0000 80F86D10 		strb	r1, [r0, #109]
 1838 0004 7047     		bx	lr
 1839              		.cfi_endproc
 1840              	.LFE20:
 1842 0006 00BF     		.section	.text.u8g2_DrawGlyph,"ax",%progbits
 1843              		.align	2
 1844              		.global	u8g2_DrawGlyph
 1845              		.thumb
 1846              		.thumb_func
 1848              	u8g2_DrawGlyph:
 1849              	.LFB21:
 769:u8g2_lib/u8g2_font.c **** #ifdef U8G2_WITH_FONT_ROTATION
 1850              		.loc 1 769 0
 1851              		.cfi_startproc
 1852              		@ args = 0, pretend = 0, frame = 0
 1853              		@ frame_needed = 0, uses_anonymous_args = 0
 1854              	.LVL285:
 1855 0000 F8B5     		push	{r3, r4, r5, r6, r7, lr}
 1856              	.LCFI22:
 1857              		.cfi_def_cfa_offset 24
 1858              		.cfi_offset 3, -24
 1859              		.cfi_offset 4, -20
 1860              		.cfi_offset 5, -16
 1861              		.cfi_offset 6, -12
 1862              		.cfi_offset 7, -8
 1863              		.cfi_offset 14, -4
 1864 0002 0446     		mov	r4, r0
 1865 0004 0D46     		mov	r5, r1
 1866 0006 1646     		mov	r6, r2
 1867 0008 1F46     		mov	r7, r3
 771:u8g2_lib/u8g2_font.c ****   {
 1868              		.loc 1 771 0
 1869 000a 90F87030 		ldrb	r3, [r0, #112]	@ zero_extendqisi2
 1870              	.LVL286:
 1871 000e 032B     		cmp	r3, #3
 1872 0010 16D8     		bhi	.L111
 1873 0012 DFE803F0 		tbb	[pc, r3]
 1874              	.LVL287:
 1875              	.L113:
 1876 0016 02       		.byte	(.L112-.L113)/2
 1877 0017 07       		.byte	(.L114-.L113)/2
 1878 0018 0C       		.byte	(.L115-.L113)/2
 1879 0019 11       		.byte	(.L116-.L113)/2
 1880              		.p2align 1
 1881              	.L112:
 774:u8g2_lib/u8g2_font.c ****       break;
ARM GAS  C:\Users\master\AppData\Local\Temp\ccxO0czL.s 			page 59


 1882              		.loc 1 774 0
 1883 001a C36D     		ldr	r3, [r0, #92]
 1884 001c 9847     		blx	r3
 1885              	.LVL288:
 1886 001e 3044     		add	r0, r0, r6
 1887 0020 86B2     		uxth	r6, r0
 1888              	.LVL289:
 775:u8g2_lib/u8g2_font.c ****     case 1:
 1889              		.loc 1 775 0
 1890 0022 0DE0     		b	.L111
 1891              	.LVL290:
 1892              	.L114:
 777:u8g2_lib/u8g2_font.c ****       break;
 1893              		.loc 1 777 0
 1894 0024 C36D     		ldr	r3, [r0, #92]
 1895 0026 9847     		blx	r3
 1896              	.LVL291:
 1897 0028 281A     		subs	r0, r5, r0
 1898 002a 85B2     		uxth	r5, r0
 1899              	.LVL292:
 778:u8g2_lib/u8g2_font.c ****     case 2:
 1900              		.loc 1 778 0
 1901 002c 08E0     		b	.L111
 1902              	.LVL293:
 1903              	.L115:
 780:u8g2_lib/u8g2_font.c ****       break;
 1904              		.loc 1 780 0
 1905 002e C36D     		ldr	r3, [r0, #92]
 1906 0030 9847     		blx	r3
 1907              	.LVL294:
 1908 0032 301A     		subs	r0, r6, r0
 1909 0034 86B2     		uxth	r6, r0
 1910              	.LVL295:
 781:u8g2_lib/u8g2_font.c ****     case 3:
 1911              		.loc 1 781 0
 1912 0036 03E0     		b	.L111
 1913              	.LVL296:
 1914              	.L116:
 783:u8g2_lib/u8g2_font.c ****       break;
 1915              		.loc 1 783 0
 1916 0038 C36D     		ldr	r3, [r0, #92]
 1917 003a 9847     		blx	r3
 1918              	.LVL297:
 1919 003c 2844     		add	r0, r0, r5
 1920 003e 85B2     		uxth	r5, r0
 1921              	.LVL298:
 1922              	.L111:
 789:u8g2_lib/u8g2_font.c **** }
 1923              		.loc 1 789 0
 1924 0040 3B46     		mov	r3, r7
 1925 0042 3246     		mov	r2, r6
 1926 0044 2946     		mov	r1, r5
 1927 0046 2046     		mov	r0, r4
 1928 0048 FFF7FEFF 		bl	u8g2_font_draw_glyph
 1929              	.LVL299:
 790:u8g2_lib/u8g2_font.c **** 
 1930              		.loc 1 790 0
ARM GAS  C:\Users\master\AppData\Local\Temp\ccxO0czL.s 			page 60


 1931 004c F8BD     		pop	{r3, r4, r5, r6, r7, pc}
 1932              		.cfi_endproc
 1933              	.LFE21:
 1935 004e 00BF     		.section	.text.u8g2_draw_string,"ax",%progbits
 1936              		.align	2
 1937              		.thumb
 1938              		.thumb_func
 1940              	u8g2_draw_string:
 1941              	.LFB22:
 794:u8g2_lib/u8g2_font.c ****   uint16_t e;
 1942              		.loc 1 794 0
 1943              		.cfi_startproc
 1944              		@ args = 0, pretend = 0, frame = 0
 1945              		@ frame_needed = 0, uses_anonymous_args = 0
 1946              	.LVL300:
 1947 0000 2DE9F041 		push	{r4, r5, r6, r7, r8, lr}
 1948              	.LCFI23:
 1949              		.cfi_def_cfa_offset 24
 1950              		.cfi_offset 4, -24
 1951              		.cfi_offset 5, -20
 1952              		.cfi_offset 6, -16
 1953              		.cfi_offset 7, -12
 1954              		.cfi_offset 8, -8
 1955              		.cfi_offset 14, -4
 1956 0004 0446     		mov	r4, r0
 1957 0006 0F46     		mov	r7, r1
 1958 0008 1646     		mov	r6, r2
 1959 000a 1D46     		mov	r5, r3
 797:u8g2_lib/u8g2_font.c ****   sum = 0;
 1960              		.loc 1 797 0
 1961 000c FFF7FEFF 		bl	u8x8_utf8_init
 1962              	.LVL301:
 798:u8g2_lib/u8g2_font.c ****   for(;;)
 1963              		.loc 1 798 0
 1964 0010 4FF00008 		mov	r8, #0
 1965              	.LVL302:
 1966              	.L119:
 801:u8g2_lib/u8g2_font.c ****     if ( e == 0x0ffff )
 1967              		.loc 1 801 0
 1968 0014 6368     		ldr	r3, [r4, #4]
 1969 0016 2978     		ldrb	r1, [r5]	@ zero_extendqisi2
 1970 0018 2046     		mov	r0, r4
 1971 001a 9847     		blx	r3
 1972              	.LVL303:
 802:u8g2_lib/u8g2_font.c ****       break;
 1973              		.loc 1 802 0
 1974 001c 4FF6FF73 		movw	r3, #65535
 1975 0020 9842     		cmp	r0, r3
 1976 0022 21D0     		beq	.L120
 804:u8g2_lib/u8g2_font.c ****     if ( e != 0x0fffe )
 1977              		.loc 1 804 0
 1978 0024 0135     		adds	r5, r5, #1
 1979              	.LVL304:
 805:u8g2_lib/u8g2_font.c ****     {
 1980              		.loc 1 805 0
 1981 0026 4FF6FE73 		movw	r3, #65534
 1982 002a 9842     		cmp	r0, r3
ARM GAS  C:\Users\master\AppData\Local\Temp\ccxO0czL.s 			page 61


 1983 002c F2D0     		beq	.L119
 807:u8g2_lib/u8g2_font.c ****     
 1984              		.loc 1 807 0
 1985 002e 0346     		mov	r3, r0
 1986 0030 3246     		mov	r2, r6
 1987 0032 3946     		mov	r1, r7
 1988 0034 2046     		mov	r0, r4
 1989              	.LVL305:
 1990 0036 FFF7FEFF 		bl	u8g2_DrawGlyph
 1991              	.LVL306:
 810:u8g2_lib/u8g2_font.c ****       {
 1992              		.loc 1 810 0
 1993 003a 94F87030 		ldrb	r3, [r4, #112]	@ zero_extendqisi2
 1994 003e 032B     		cmp	r3, #3
 1995 0040 0ED8     		bhi	.L122
 1996 0042 DFE803F0 		tbb	[pc, r3]
 1997              	.L124:
 1998 0046 02       		.byte	(.L123-.L124)/2
 1999 0047 05       		.byte	(.L125-.L124)/2
 2000 0048 08       		.byte	(.L126-.L124)/2
 2001 0049 0B       		.byte	(.L127-.L124)/2
 2002              		.p2align 1
 2003              	.L123:
 813:u8g2_lib/u8g2_font.c **** 	  break;
 2004              		.loc 1 813 0
 2005 004a 0744     		add	r7, r7, r0
 2006              	.LVL307:
 2007 004c BFB2     		uxth	r7, r7
 2008              	.LVL308:
 814:u8g2_lib/u8g2_font.c **** 	case 1:
 2009              		.loc 1 814 0
 2010 004e 07E0     		b	.L122
 2011              	.L125:
 816:u8g2_lib/u8g2_font.c **** 	  break;
 2012              		.loc 1 816 0
 2013 0050 0644     		add	r6, r6, r0
 2014              	.LVL309:
 2015 0052 B6B2     		uxth	r6, r6
 2016              	.LVL310:
 817:u8g2_lib/u8g2_font.c **** 	case 2:
 2017              		.loc 1 817 0
 2018 0054 04E0     		b	.L122
 2019              	.L126:
 819:u8g2_lib/u8g2_font.c **** 	  break;
 2020              		.loc 1 819 0
 2021 0056 3F1A     		subs	r7, r7, r0
 2022              	.LVL311:
 2023 0058 BFB2     		uxth	r7, r7
 2024              	.LVL312:
 820:u8g2_lib/u8g2_font.c **** 	case 3:
 2025              		.loc 1 820 0
 2026 005a 01E0     		b	.L122
 2027              	.L127:
 822:u8g2_lib/u8g2_font.c **** 	  break;
 2028              		.loc 1 822 0
 2029 005c 361A     		subs	r6, r6, r0
 2030              	.LVL313:
ARM GAS  C:\Users\master\AppData\Local\Temp\ccxO0czL.s 			page 62


 2031 005e B6B2     		uxth	r6, r6
 2032              	.LVL314:
 2033              	.L122:
 836:u8g2_lib/u8g2_font.c ****     }
 2034              		.loc 1 836 0
 2035 0060 4044     		add	r0, r0, r8
 2036              	.LVL315:
 2037 0062 1FFA80F8 		uxth	r8, r0
 2038              	.LVL316:
 2039 0066 D5E7     		b	.L119
 2040              	.LVL317:
 2041              	.L120:
 840:u8g2_lib/u8g2_font.c **** 
 2042              		.loc 1 840 0
 2043 0068 4046     		mov	r0, r8
 2044              	.LVL318:
 2045 006a BDE8F081 		pop	{r4, r5, r6, r7, r8, pc}
 2046              		.cfi_endproc
 2047              	.LFE22:
 2049 006e 00BF     		.section	.text.u8g2_DrawStr,"ax",%progbits
 2050              		.align	2
 2051              		.global	u8g2_DrawStr
 2052              		.thumb
 2053              		.thumb_func
 2055              	u8g2_DrawStr:
 2056              	.LFB23:
 843:u8g2_lib/u8g2_font.c ****   u8g2->u8x8.next_cb = u8x8_ascii_next;
 2057              		.loc 1 843 0
 2058              		.cfi_startproc
 2059              		@ args = 0, pretend = 0, frame = 0
 2060              		@ frame_needed = 0, uses_anonymous_args = 0
 2061              	.LVL319:
 2062 0000 10B5     		push	{r4, lr}
 2063              	.LCFI24:
 2064              		.cfi_def_cfa_offset 8
 2065              		.cfi_offset 4, -8
 2066              		.cfi_offset 14, -4
 844:u8g2_lib/u8g2_font.c ****   return u8g2_draw_string(u8g2, x, y, str);
 2067              		.loc 1 844 0
 2068 0002 024C     		ldr	r4, .L131
 2069 0004 4460     		str	r4, [r0, #4]
 845:u8g2_lib/u8g2_font.c **** }
 2070              		.loc 1 845 0
 2071 0006 FFF7FEFF 		bl	u8g2_draw_string
 2072              	.LVL320:
 846:u8g2_lib/u8g2_font.c **** 
 2073              		.loc 1 846 0
 2074 000a 10BD     		pop	{r4, pc}
 2075              	.L132:
 2076              		.align	2
 2077              	.L131:
 2078 000c 00000000 		.word	u8x8_ascii_next
 2079              		.cfi_endproc
 2080              	.LFE23:
 2082              		.section	.text.u8g2_DrawUTF8,"ax",%progbits
 2083              		.align	2
 2084              		.global	u8g2_DrawUTF8
ARM GAS  C:\Users\master\AppData\Local\Temp\ccxO0czL.s 			page 63


 2085              		.thumb
 2086              		.thumb_func
 2088              	u8g2_DrawUTF8:
 2089              	.LFB24:
 859:u8g2_lib/u8g2_font.c ****   u8g2->u8x8.next_cb = u8x8_utf8_next;
 2090              		.loc 1 859 0
 2091              		.cfi_startproc
 2092              		@ args = 0, pretend = 0, frame = 0
 2093              		@ frame_needed = 0, uses_anonymous_args = 0
 2094              	.LVL321:
 2095 0000 10B5     		push	{r4, lr}
 2096              	.LCFI25:
 2097              		.cfi_def_cfa_offset 8
 2098              		.cfi_offset 4, -8
 2099              		.cfi_offset 14, -4
 860:u8g2_lib/u8g2_font.c ****   return u8g2_draw_string(u8g2, x, y, str);
 2100              		.loc 1 860 0
 2101 0002 024C     		ldr	r4, .L135
 2102 0004 4460     		str	r4, [r0, #4]
 861:u8g2_lib/u8g2_font.c **** }
 2103              		.loc 1 861 0
 2104 0006 FFF7FEFF 		bl	u8g2_draw_string
 2105              	.LVL322:
 862:u8g2_lib/u8g2_font.c **** 
 2106              		.loc 1 862 0
 2107 000a 10BD     		pop	{r4, pc}
 2108              	.L136:
 2109              		.align	2
 2110              	.L135:
 2111 000c 00000000 		.word	u8x8_utf8_next
 2112              		.cfi_endproc
 2113              	.LFE24:
 2115              		.section	.text.u8g2_DrawExtendedUTF8,"ax",%progbits
 2116              		.align	2
 2117              		.global	u8g2_DrawExtendedUTF8
 2118              		.thumb
 2119              		.thumb_func
 2121              	u8g2_DrawExtendedUTF8:
 2122              	.LFB25:
 867:u8g2_lib/u8g2_font.c ****   u8g2->u8x8.next_cb = u8x8_utf8_next;
 2123              		.loc 1 867 0
 2124              		.cfi_startproc
 2125              		@ args = 8, pretend = 0, frame = 8
 2126              		@ frame_needed = 0, uses_anonymous_args = 0
 2127              	.LVL323:
 2128 0000 2DE9F04F 		push	{r4, r5, r6, r7, r8, r9, r10, fp, lr}
 2129              	.LCFI26:
 2130              		.cfi_def_cfa_offset 36
 2131              		.cfi_offset 4, -36
 2132              		.cfi_offset 5, -32
 2133              		.cfi_offset 6, -28
 2134              		.cfi_offset 7, -24
 2135              		.cfi_offset 8, -20
 2136              		.cfi_offset 9, -16
 2137              		.cfi_offset 10, -12
 2138              		.cfi_offset 11, -8
 2139              		.cfi_offset 14, -4
ARM GAS  C:\Users\master\AppData\Local\Temp\ccxO0czL.s 			page 64


 2140 0004 83B0     		sub	sp, sp, #12
 2141              	.LCFI27:
 2142              		.cfi_def_cfa_offset 48
 2143 0006 8146     		mov	r9, r0
 2144 0008 0F46     		mov	r7, r1
 2145 000a 0192     		str	r2, [sp, #4]
 2146 000c 9B46     		mov	fp, r3
 2147 000e DDF834A0 		ldr	r10, [sp, #52]
 868:u8g2_lib/u8g2_font.c ****   uint16_t e_prev = 0x0ffff;
 2148              		.loc 1 868 0
 2149 0012 274B     		ldr	r3, .L145
 2150              	.LVL324:
 2151 0014 4360     		str	r3, [r0, #4]
 2152              	.LVL325:
 872:u8g2_lib/u8g2_font.c ****   sum = 0;
 2153              		.loc 1 872 0
 2154 0016 FFF7FEFF 		bl	u8x8_utf8_init
 2155              	.LVL326:
 873:u8g2_lib/u8g2_font.c ****   for(;;)
 2156              		.loc 1 873 0
 2157 001a 0025     		movs	r5, #0
 869:u8g2_lib/u8g2_font.c ****   uint16_t e;
 2158              		.loc 1 869 0
 2159 001c 4FF6FF78 		movw	r8, #65535
 2160              	.LVL327:
 2161              	.L138:
 876:u8g2_lib/u8g2_font.c ****     if ( e == 0x0ffff )
 2162              		.loc 1 876 0
 2163 0020 D9F80430 		ldr	r3, [r9, #4]
 2164 0024 9AF80010 		ldrb	r1, [r10]	@ zero_extendqisi2
 2165 0028 4846     		mov	r0, r9
 2166 002a 9847     		blx	r3
 2167              	.LVL328:
 2168 002c 0446     		mov	r4, r0
 2169              	.LVL329:
 877:u8g2_lib/u8g2_font.c ****       break;
 2170              		.loc 1 877 0
 2171 002e 4FF6FF73 		movw	r3, #65535
 2172 0032 9842     		cmp	r0, r3
 2173 0034 38D0     		beq	.L139
 879:u8g2_lib/u8g2_font.c ****     if ( e != 0x0fffe )
 2174              		.loc 1 879 0
 2175 0036 0AF1010A 		add	r10, r10, #1
 2176              	.LVL330:
 880:u8g2_lib/u8g2_font.c ****     {
 2177              		.loc 1 880 0
 2178 003a 4FF6FE73 		movw	r3, #65534
 2179 003e 9842     		cmp	r0, r3
 2180 0040 EED0     		beq	.L138
 882:u8g2_lib/u8g2_font.c **** 	    
 2181              		.loc 1 882 0
 2182 0042 0146     		mov	r1, r0
 2183 0044 4846     		mov	r0, r9
 2184              	.LVL331:
 2185 0046 FFF7FEFF 		bl	u8g2_GetGlyphWidth
 2186              	.LVL332:
 2187 004a 86B2     		uxth	r6, r0
ARM GAS  C:\Users\master\AppData\Local\Temp\ccxO0czL.s 			page 65


 2188              	.LVL333:
 884:u8g2_lib/u8g2_font.c ****       {
 2189              		.loc 1 884 0
 2190 004c BBF1000F 		cmp	fp, #0
 2191 0050 0DD0     		beq	.L141
 886:u8g2_lib/u8g2_font.c **** 	delta -= k;
 2192              		.loc 1 886 0
 2193 0052 4346     		mov	r3, r8
 2194 0054 2246     		mov	r2, r4
 2195 0056 0C99     		ldr	r1, [sp, #48]
 2196 0058 4846     		mov	r0, r9
 2197 005a FFF7FEFF 		bl	u8g2_GetKerning
 2198              	.LVL334:
 2199 005e 1FFA80F8 		uxth	r8, r0
 2200              	.LVL335:
 887:u8g2_lib/u8g2_font.c **** 	x -= delta;
 2201              		.loc 1 887 0
 2202 0062 C8EB0606 		rsb	r6, r8, r6
 2203              	.LVL336:
 2204 0066 B6B2     		uxth	r6, r6
 2205              	.LVL337:
 888:u8g2_lib/u8g2_font.c ****       }
 2206              		.loc 1 888 0
 2207 0068 BF1B     		subs	r7, r7, r6
 2208              	.LVL338:
 2209 006a BFB2     		uxth	r7, r7
 2210              	.LVL339:
 2211 006c 0AE0     		b	.L142
 2212              	.LVL340:
 2213              	.L141:
 892:u8g2_lib/u8g2_font.c **** 	delta -= k;
 2214              		.loc 1 892 0
 2215 006e 2346     		mov	r3, r4
 2216 0070 4246     		mov	r2, r8
 2217 0072 0C99     		ldr	r1, [sp, #48]
 2218 0074 4846     		mov	r0, r9
 2219 0076 FFF7FEFF 		bl	u8g2_GetKerning
 2220              	.LVL341:
 2221 007a 1FFA80F8 		uxth	r8, r0
 2222              	.LVL342:
 893:u8g2_lib/u8g2_font.c ****       }
 2223              		.loc 1 893 0
 2224 007e C8EB0606 		rsb	r6, r8, r6
 2225              	.LVL343:
 2226 0082 B6B2     		uxth	r6, r6
 2227              	.LVL344:
 2228              	.L142:
 897:u8g2_lib/u8g2_font.c ****       if ( to_left )
 2229              		.loc 1 897 0
 2230 0084 2346     		mov	r3, r4
 2231 0086 019A     		ldr	r2, [sp, #4]
 2232 0088 3946     		mov	r1, r7
 2233 008a 4846     		mov	r0, r9
 2234 008c FFF7FEFF 		bl	u8g2_DrawGlyph
 2235              	.LVL345:
 898:u8g2_lib/u8g2_font.c ****       {
 2236              		.loc 1 898 0
ARM GAS  C:\Users\master\AppData\Local\Temp\ccxO0czL.s 			page 66


 2237 0090 BBF1000F 		cmp	fp, #0
 2238 0094 04D1     		bne	.L143
 903:u8g2_lib/u8g2_font.c **** 	x -= k;
 2239              		.loc 1 903 0
 2240 0096 3744     		add	r7, r7, r6
 2241              	.LVL346:
 2242 0098 BFB2     		uxth	r7, r7
 2243              	.LVL347:
 904:u8g2_lib/u8g2_font.c ****       }
 2244              		.loc 1 904 0
 2245 009a C8EB0707 		rsb	r7, r8, r7
 2246              	.LVL348:
 2247 009e BFB2     		uxth	r7, r7
 2248              	.LVL349:
 2249              	.L143:
 907:u8g2_lib/u8g2_font.c ****     }
 2250              		.loc 1 907 0
 2251 00a0 3544     		add	r5, r5, r6
 2252              	.LVL350:
 2253 00a2 ADB2     		uxth	r5, r5
 2254              	.LVL351:
 895:u8g2_lib/u8g2_font.c **** 
 2255              		.loc 1 895 0
 2256 00a4 A046     		mov	r8, r4
 2257              	.LVL352:
 2258 00a6 BBE7     		b	.L138
 2259              	.LVL353:
 2260              	.L139:
 911:u8g2_lib/u8g2_font.c **** 
 2261              		.loc 1 911 0
 2262 00a8 2846     		mov	r0, r5
 2263              	.LVL354:
 2264 00aa 03B0     		add	sp, sp, #12
 2265              	.LCFI28:
 2266              		.cfi_def_cfa_offset 36
 2267              		@ sp needed
 2268 00ac BDE8F08F 		pop	{r4, r5, r6, r7, r8, r9, r10, fp, pc}
 2269              	.LVL355:
 2270              	.L146:
 2271              		.align	2
 2272              	.L145:
 2273 00b0 00000000 		.word	u8x8_utf8_next
 2274              		.cfi_endproc
 2275              	.LFE25:
 2277              		.section	.text.u8g2_DrawExtUTF8,"ax",%progbits
 2278              		.align	2
 2279              		.global	u8g2_DrawExtUTF8
 2280              		.thumb
 2281              		.thumb_func
 2283              	u8g2_DrawExtUTF8:
 2284              	.LFB26:
 914:u8g2_lib/u8g2_font.c ****   u8g2->u8x8.next_cb = u8x8_utf8_next;
 2285              		.loc 1 914 0
 2286              		.cfi_startproc
 2287              		@ args = 8, pretend = 0, frame = 8
 2288              		@ frame_needed = 0, uses_anonymous_args = 0
 2289              	.LVL356:
ARM GAS  C:\Users\master\AppData\Local\Temp\ccxO0czL.s 			page 67


 2290 0000 2DE9F04F 		push	{r4, r5, r6, r7, r8, r9, r10, fp, lr}
 2291              	.LCFI29:
 2292              		.cfi_def_cfa_offset 36
 2293              		.cfi_offset 4, -36
 2294              		.cfi_offset 5, -32
 2295              		.cfi_offset 6, -28
 2296              		.cfi_offset 7, -24
 2297              		.cfi_offset 8, -20
 2298              		.cfi_offset 9, -16
 2299              		.cfi_offset 10, -12
 2300              		.cfi_offset 11, -8
 2301              		.cfi_offset 14, -4
 2302 0004 83B0     		sub	sp, sp, #12
 2303              	.LCFI30:
 2304              		.cfi_def_cfa_offset 48
 2305 0006 0646     		mov	r6, r0
 2306 0008 8846     		mov	r8, r1
 2307 000a 0192     		str	r2, [sp, #4]
 2308 000c 9B46     		mov	fp, r3
 2309 000e 0D9F     		ldr	r7, [sp, #52]
 915:u8g2_lib/u8g2_font.c ****   uint16_t e_prev = 0x0ffff;
 2310              		.loc 1 915 0
 2311 0010 244B     		ldr	r3, .L155
 2312              	.LVL357:
 2313 0012 4360     		str	r3, [r0, #4]
 2314              	.LVL358:
 919:u8g2_lib/u8g2_font.c ****   sum = 0;
 2315              		.loc 1 919 0
 2316 0014 FFF7FEFF 		bl	u8x8_utf8_init
 2317              	.LVL359:
 920:u8g2_lib/u8g2_font.c ****   for(;;)
 2318              		.loc 1 920 0
 2319 0018 4FF00009 		mov	r9, #0
 916:u8g2_lib/u8g2_font.c ****   uint16_t e;
 2320              		.loc 1 916 0
 2321 001c 4FF6FF7A 		movw	r10, #65535
 2322              	.LVL360:
 2323              	.L148:
 923:u8g2_lib/u8g2_font.c ****     if ( e == 0x0ffff )
 2324              		.loc 1 923 0
 2325 0020 7368     		ldr	r3, [r6, #4]
 2326 0022 3978     		ldrb	r1, [r7]	@ zero_extendqisi2
 2327 0024 3046     		mov	r0, r6
 2328 0026 9847     		blx	r3
 2329              	.LVL361:
 2330 0028 0446     		mov	r4, r0
 2331              	.LVL362:
 924:u8g2_lib/u8g2_font.c ****       break;
 2332              		.loc 1 924 0
 2333 002a 4FF6FF73 		movw	r3, #65535
 2334 002e 9842     		cmp	r0, r3
 2335 0030 34D0     		beq	.L149
 926:u8g2_lib/u8g2_font.c ****     if ( e != 0x0fffe )
 2336              		.loc 1 926 0
 2337 0032 0137     		adds	r7, r7, #1
 2338              	.LVL363:
 927:u8g2_lib/u8g2_font.c ****     {
ARM GAS  C:\Users\master\AppData\Local\Temp\ccxO0czL.s 			page 68


 2339              		.loc 1 927 0
 2340 0034 4FF6FE73 		movw	r3, #65534
 2341 0038 9842     		cmp	r0, r3
 2342 003a F1D0     		beq	.L148
 929:u8g2_lib/u8g2_font.c **** 	    
 2343              		.loc 1 929 0
 2344 003c 0146     		mov	r1, r0
 2345 003e 3046     		mov	r0, r6
 2346              	.LVL364:
 2347 0040 FFF7FEFF 		bl	u8g2_GetGlyphWidth
 2348              	.LVL365:
 2349 0044 85B2     		uxth	r5, r0
 2350              	.LVL366:
 931:u8g2_lib/u8g2_font.c ****       {
 2351              		.loc 1 931 0
 2352 0046 BBF1000F 		cmp	fp, #0
 2353 004a 0DD0     		beq	.L151
 933:u8g2_lib/u8g2_font.c **** 	delta -= k;
 2354              		.loc 1 933 0
 2355 004c 5346     		mov	r3, r10
 2356 004e 2246     		mov	r2, r4
 2357 0050 0C99     		ldr	r1, [sp, #48]
 2358 0052 3046     		mov	r0, r6
 2359 0054 FFF7FEFF 		bl	u8g2_GetKerningByTable
 2360              	.LVL367:
 2361 0058 80B2     		uxth	r0, r0
 2362              	.LVL368:
 934:u8g2_lib/u8g2_font.c **** 	x -= delta;
 2363              		.loc 1 934 0
 2364 005a 2D1A     		subs	r5, r5, r0
 2365              	.LVL369:
 2366 005c ADB2     		uxth	r5, r5
 2367              	.LVL370:
 935:u8g2_lib/u8g2_font.c ****       }
 2368              		.loc 1 935 0
 2369 005e C5EB0808 		rsb	r8, r5, r8
 2370              	.LVL371:
 2371 0062 1FFA88F8 		uxth	r8, r8
 2372              	.LVL372:
 2373 0066 08E0     		b	.L152
 2374              	.LVL373:
 2375              	.L151:
 939:u8g2_lib/u8g2_font.c **** 	delta -= k;
 2376              		.loc 1 939 0
 2377 0068 2346     		mov	r3, r4
 2378 006a 5246     		mov	r2, r10
 2379 006c 0C99     		ldr	r1, [sp, #48]
 2380 006e 3046     		mov	r0, r6
 2381 0070 FFF7FEFF 		bl	u8g2_GetKerningByTable
 2382              	.LVL374:
 2383 0074 80B2     		uxth	r0, r0
 2384              	.LVL375:
 940:u8g2_lib/u8g2_font.c ****       }
 2385              		.loc 1 940 0
 2386 0076 2D1A     		subs	r5, r5, r0
 2387              	.LVL376:
 2388 0078 ADB2     		uxth	r5, r5
ARM GAS  C:\Users\master\AppData\Local\Temp\ccxO0czL.s 			page 69


 2389              	.LVL377:
 2390              	.L152:
 944:u8g2_lib/u8g2_font.c ****       {
 2391              		.loc 1 944 0
 2392 007a BBF1000F 		cmp	fp, #0
 2393 007e 02D1     		bne	.L153
 949:u8g2_lib/u8g2_font.c ****       }
 2394              		.loc 1 949 0
 2395 0080 A844     		add	r8, r8, r5
 2396              	.LVL378:
 2397 0082 1FFA88F8 		uxth	r8, r8
 2398              	.LVL379:
 2399              	.L153:
 951:u8g2_lib/u8g2_font.c ****       if ( to_left )
 2400              		.loc 1 951 0
 2401 0086 2346     		mov	r3, r4
 2402 0088 019A     		ldr	r2, [sp, #4]
 2403 008a 4146     		mov	r1, r8
 2404 008c 3046     		mov	r0, r6
 2405              	.LVL380:
 2406 008e FFF7FEFF 		bl	u8g2_DrawGlyph
 2407              	.LVL381:
 961:u8g2_lib/u8g2_font.c ****     }
 2408              		.loc 1 961 0
 2409 0092 A944     		add	r9, r9, r5
 2410              	.LVL382:
 2411 0094 1FFA89F9 		uxth	r9, r9
 2412              	.LVL383:
 942:u8g2_lib/u8g2_font.c **** 
 2413              		.loc 1 942 0
 2414 0098 A246     		mov	r10, r4
 2415 009a C1E7     		b	.L148
 2416              	.LVL384:
 2417              	.L149:
 965:u8g2_lib/u8g2_font.c **** 
 2418              		.loc 1 965 0
 2419 009c 4846     		mov	r0, r9
 2420              	.LVL385:
 2421 009e 03B0     		add	sp, sp, #12
 2422              	.LCFI31:
 2423              		.cfi_def_cfa_offset 36
 2424              		@ sp needed
 2425 00a0 BDE8F08F 		pop	{r4, r5, r6, r7, r8, r9, r10, fp, pc}
 2426              	.LVL386:
 2427              	.L156:
 2428              		.align	2
 2429              	.L155:
 2430 00a4 00000000 		.word	u8x8_utf8_next
 2431              		.cfi_endproc
 2432              	.LFE26:
 2434              		.section	.text.u8g2_UpdateRefHeight,"ax",%progbits
 2435              		.align	2
 2436              		.global	u8g2_UpdateRefHeight
 2437              		.thumb
 2438              		.thumb_func
 2440              	u8g2_UpdateRefHeight:
 2441              	.LFB27:
ARM GAS  C:\Users\master\AppData\Local\Temp\ccxO0czL.s 			page 70


 974:u8g2_lib/u8g2_font.c ****   if ( u8g2->font == NULL )
 2442              		.loc 1 974 0
 2443              		.cfi_startproc
 2444              		@ args = 0, pretend = 0, frame = 0
 2445              		@ frame_needed = 0, uses_anonymous_args = 0
 2446              		@ link register save eliminated.
 2447              	.LVL387:
 975:u8g2_lib/u8g2_font.c ****     return;
 2448              		.loc 1 975 0
 2449 0000 836D     		ldr	r3, [r0, #88]
 2450 0002 43B3     		cbz	r3, .L164
 977:u8g2_lib/u8g2_font.c ****   u8g2->font_ref_descent = u8g2->font_info.descent_g;
 2451              		.loc 1 977 0
 2452 0004 90F98110 		ldrsb	r1, [r0, #129]
 2453 0008 80F88E10 		strb	r1, [r0, #142]
 978:u8g2_lib/u8g2_font.c ****   if ( u8g2->font_height_mode == U8G2_FONT_HEIGHT_MODE_TEXT )
 2454              		.loc 1 978 0
 2455 000c 90F98220 		ldrsb	r2, [r0, #130]
 2456 0010 80F88F20 		strb	r2, [r0, #143]
 979:u8g2_lib/u8g2_font.c ****   {
 2457              		.loc 1 979 0
 2458 0014 90F88D30 		ldrb	r3, [r0, #141]	@ zero_extendqisi2
 2459 0018 EBB1     		cbz	r3, .L164
 982:u8g2_lib/u8g2_font.c ****   {
 2460              		.loc 1 982 0
 2461 001a 012B     		cmp	r3, #1
 2462 001c 0CD1     		bne	.L159
 984:u8g2_lib/u8g2_font.c ****       u8g2->font_ref_ascent = u8g2->font_info.ascent_para;
 2463              		.loc 1 984 0
 2464 001e 90F98330 		ldrsb	r3, [r0, #131]
 2465 0022 9942     		cmp	r1, r3
 2466 0024 01DA     		bge	.L160
 985:u8g2_lib/u8g2_font.c ****     if ( u8g2->font_ref_descent > u8g2->font_info.descent_para )
 2467              		.loc 1 985 0
 2468 0026 80F88E30 		strb	r3, [r0, #142]
 2469              	.L160:
 986:u8g2_lib/u8g2_font.c ****       u8g2->font_ref_descent = u8g2->font_info.descent_para;
 2470              		.loc 1 986 0
 2471 002a 90F98430 		ldrsb	r3, [r0, #132]
 2472 002e 9A42     		cmp	r2, r3
 2473 0030 11DD     		ble	.L164
 987:u8g2_lib/u8g2_font.c ****   }
 2474              		.loc 1 987 0
 2475 0032 80F88F30 		strb	r3, [r0, #143]
 2476 0036 7047     		bx	lr
 2477              	.L159:
 974:u8g2_lib/u8g2_font.c ****   if ( u8g2->font == NULL )
 2478              		.loc 1 974 0
 2479 0038 30B4     		push	{r4, r5}
 2480              	.LCFI32:
 2481              		.cfi_def_cfa_offset 8
 2482              		.cfi_offset 4, -8
 2483              		.cfi_offset 5, -4
 991:u8g2_lib/u8g2_font.c ****       u8g2->font_ref_ascent = u8g2->font_info.max_char_height+u8g2->font_info.y_offset;
 2484              		.loc 1 991 0
 2485 003a 90F97E40 		ldrsb	r4, [r0, #126]
 2486 003e 90F98030 		ldrsb	r3, [r0, #128]
ARM GAS  C:\Users\master\AppData\Local\Temp\ccxO0czL.s 			page 71


 2487 0042 E518     		adds	r5, r4, r3
 2488 0044 A942     		cmp	r1, r5
 2489 0046 01DA     		bge	.L161
 992:u8g2_lib/u8g2_font.c ****     if ( u8g2->font_ref_descent > u8g2->font_info.y_offset )
 2490              		.loc 1 992 0
 2491 0048 80F88E50 		strb	r5, [r0, #142]
 2492              	.L161:
 993:u8g2_lib/u8g2_font.c ****       u8g2->font_ref_descent = u8g2->font_info.y_offset;
 2493              		.loc 1 993 0
 2494 004c 9A42     		cmp	r2, r3
 2495 004e 01DD     		ble	.L157
 994:u8g2_lib/u8g2_font.c ****   }  
 2496              		.loc 1 994 0
 2497 0050 80F88F30 		strb	r3, [r0, #143]
 2498              	.L157:
 996:u8g2_lib/u8g2_font.c **** 
 2499              		.loc 1 996 0
 2500 0054 30BC     		pop	{r4, r5}
 2501              	.LCFI33:
 2502              		.cfi_restore 5
 2503              		.cfi_restore 4
 2504              		.cfi_def_cfa_offset 0
 2505              	.L164:
 2506 0056 7047     		bx	lr
 2507              		.cfi_endproc
 2508              	.LFE27:
 2510              		.section	.text.u8g2_SetFontRefHeightText,"ax",%progbits
 2511              		.align	2
 2512              		.global	u8g2_SetFontRefHeightText
 2513              		.thumb
 2514              		.thumb_func
 2516              	u8g2_SetFontRefHeightText:
 2517              	.LFB28:
 999:u8g2_lib/u8g2_font.c ****   u8g2->font_height_mode = U8G2_FONT_HEIGHT_MODE_TEXT;
 2518              		.loc 1 999 0
 2519              		.cfi_startproc
 2520              		@ args = 0, pretend = 0, frame = 0
 2521              		@ frame_needed = 0, uses_anonymous_args = 0
 2522              	.LVL388:
 2523 0000 08B5     		push	{r3, lr}
 2524              	.LCFI34:
 2525              		.cfi_def_cfa_offset 8
 2526              		.cfi_offset 3, -8
 2527              		.cfi_offset 14, -4
1000:u8g2_lib/u8g2_font.c ****   u8g2_UpdateRefHeight(u8g2);
 2528              		.loc 1 1000 0
 2529 0002 0022     		movs	r2, #0
 2530 0004 80F88D20 		strb	r2, [r0, #141]
1001:u8g2_lib/u8g2_font.c **** }
 2531              		.loc 1 1001 0
 2532 0008 FFF7FEFF 		bl	u8g2_UpdateRefHeight
 2533              	.LVL389:
 2534 000c 08BD     		pop	{r3, pc}
 2535              		.cfi_endproc
 2536              	.LFE28:
 2538 000e 00BF     		.section	.text.u8g2_SetFontRefHeightExtendedText,"ax",%progbits
 2539              		.align	2
ARM GAS  C:\Users\master\AppData\Local\Temp\ccxO0czL.s 			page 72


 2540              		.global	u8g2_SetFontRefHeightExtendedText
 2541              		.thumb
 2542              		.thumb_func
 2544              	u8g2_SetFontRefHeightExtendedText:
 2545              	.LFB29:
1005:u8g2_lib/u8g2_font.c ****   u8g2->font_height_mode = U8G2_FONT_HEIGHT_MODE_XTEXT;
 2546              		.loc 1 1005 0
 2547              		.cfi_startproc
 2548              		@ args = 0, pretend = 0, frame = 0
 2549              		@ frame_needed = 0, uses_anonymous_args = 0
 2550              	.LVL390:
 2551 0000 08B5     		push	{r3, lr}
 2552              	.LCFI35:
 2553              		.cfi_def_cfa_offset 8
 2554              		.cfi_offset 3, -8
 2555              		.cfi_offset 14, -4
1006:u8g2_lib/u8g2_font.c ****   u8g2_UpdateRefHeight(u8g2);
 2556              		.loc 1 1006 0
 2557 0002 0123     		movs	r3, #1
 2558 0004 80F88D30 		strb	r3, [r0, #141]
1007:u8g2_lib/u8g2_font.c **** }
 2559              		.loc 1 1007 0
 2560 0008 FFF7FEFF 		bl	u8g2_UpdateRefHeight
 2561              	.LVL391:
 2562 000c 08BD     		pop	{r3, pc}
 2563              		.cfi_endproc
 2564              	.LFE29:
 2566 000e 00BF     		.section	.text.u8g2_SetFontRefHeightAll,"ax",%progbits
 2567              		.align	2
 2568              		.global	u8g2_SetFontRefHeightAll
 2569              		.thumb
 2570              		.thumb_func
 2572              	u8g2_SetFontRefHeightAll:
 2573              	.LFB30:
1011:u8g2_lib/u8g2_font.c ****   u8g2->font_height_mode = U8G2_FONT_HEIGHT_MODE_ALL;
 2574              		.loc 1 1011 0
 2575              		.cfi_startproc
 2576              		@ args = 0, pretend = 0, frame = 0
 2577              		@ frame_needed = 0, uses_anonymous_args = 0
 2578              	.LVL392:
 2579 0000 08B5     		push	{r3, lr}
 2580              	.LCFI36:
 2581              		.cfi_def_cfa_offset 8
 2582              		.cfi_offset 3, -8
 2583              		.cfi_offset 14, -4
1012:u8g2_lib/u8g2_font.c ****   u8g2_UpdateRefHeight(u8g2);
 2584              		.loc 1 1012 0
 2585 0002 0223     		movs	r3, #2
 2586 0004 80F88D30 		strb	r3, [r0, #141]
1013:u8g2_lib/u8g2_font.c **** }
 2587              		.loc 1 1013 0
 2588 0008 FFF7FEFF 		bl	u8g2_UpdateRefHeight
 2589              	.LVL393:
 2590 000c 08BD     		pop	{r3, pc}
 2591              		.cfi_endproc
 2592              	.LFE30:
 2594 000e 00BF     		.section	.text.u8g2_SetFontPosBaseline,"ax",%progbits
ARM GAS  C:\Users\master\AppData\Local\Temp\ccxO0czL.s 			page 73


 2595              		.align	2
 2596              		.global	u8g2_SetFontPosBaseline
 2597              		.thumb
 2598              		.thumb_func
 2600              	u8g2_SetFontPosBaseline:
 2601              	.LFB32:
1025:u8g2_lib/u8g2_font.c ****   u8g2->font_calc_vref = u8g2_font_calc_vref_font;
 2602              		.loc 1 1025 0
 2603              		.cfi_startproc
 2604              		@ args = 0, pretend = 0, frame = 0
 2605              		@ frame_needed = 0, uses_anonymous_args = 0
 2606              		@ link register save eliminated.
 2607              	.LVL394:
1026:u8g2_lib/u8g2_font.c **** }
 2608              		.loc 1 1026 0
 2609 0000 014B     		ldr	r3, .L172
 2610 0002 C365     		str	r3, [r0, #92]
 2611 0004 7047     		bx	lr
 2612              	.L173:
 2613 0006 00BF     		.align	2
 2614              	.L172:
 2615 0008 00000000 		.word	u8g2_font_calc_vref_font
 2616              		.cfi_endproc
 2617              	.LFE32:
 2619              		.section	.text.u8g2_SetFontPosBottom,"ax",%progbits
 2620              		.align	2
 2621              		.global	u8g2_SetFontPosBottom
 2622              		.thumb
 2623              		.thumb_func
 2625              	u8g2_SetFontPosBottom:
 2626              	.LFB34:
1036:u8g2_lib/u8g2_font.c ****   u8g2->font_calc_vref = u8g2_font_calc_vref_bottom;
 2627              		.loc 1 1036 0
 2628              		.cfi_startproc
 2629              		@ args = 0, pretend = 0, frame = 0
 2630              		@ frame_needed = 0, uses_anonymous_args = 0
 2631              		@ link register save eliminated.
 2632              	.LVL395:
1037:u8g2_lib/u8g2_font.c **** }
 2633              		.loc 1 1037 0
 2634 0000 014B     		ldr	r3, .L175
 2635 0002 C365     		str	r3, [r0, #92]
 2636 0004 7047     		bx	lr
 2637              	.L176:
 2638 0006 00BF     		.align	2
 2639              	.L175:
 2640 0008 00000000 		.word	u8g2_font_calc_vref_bottom
 2641              		.cfi_endproc
 2642              	.LFE34:
 2644              		.section	.text.u8g2_SetFontPosTop,"ax",%progbits
 2645              		.align	2
 2646              		.global	u8g2_SetFontPosTop
 2647              		.thumb
 2648              		.thumb_func
 2650              	u8g2_SetFontPosTop:
 2651              	.LFB36:
1050:u8g2_lib/u8g2_font.c ****   u8g2->font_calc_vref = u8g2_font_calc_vref_top;
ARM GAS  C:\Users\master\AppData\Local\Temp\ccxO0czL.s 			page 74


 2652              		.loc 1 1050 0
 2653              		.cfi_startproc
 2654              		@ args = 0, pretend = 0, frame = 0
 2655              		@ frame_needed = 0, uses_anonymous_args = 0
 2656              		@ link register save eliminated.
 2657              	.LVL396:
1051:u8g2_lib/u8g2_font.c **** }
 2658              		.loc 1 1051 0
 2659 0000 014B     		ldr	r3, .L178
 2660 0002 C365     		str	r3, [r0, #92]
 2661 0004 7047     		bx	lr
 2662              	.L179:
 2663 0006 00BF     		.align	2
 2664              	.L178:
 2665 0008 00000000 		.word	u8g2_font_calc_vref_top
 2666              		.cfi_endproc
 2667              	.LFE36:
 2669              		.section	.text.u8g2_SetFontPosCenter,"ax",%progbits
 2670              		.align	2
 2671              		.global	u8g2_SetFontPosCenter
 2672              		.thumb
 2673              		.thumb_func
 2675              	u8g2_SetFontPosCenter:
 2676              	.LFB38:
1065:u8g2_lib/u8g2_font.c ****   u8g2->font_calc_vref = u8g2_font_calc_vref_center;
 2677              		.loc 1 1065 0
 2678              		.cfi_startproc
 2679              		@ args = 0, pretend = 0, frame = 0
 2680              		@ frame_needed = 0, uses_anonymous_args = 0
 2681              		@ link register save eliminated.
 2682              	.LVL397:
1066:u8g2_lib/u8g2_font.c **** }
 2683              		.loc 1 1066 0
 2684 0000 014B     		ldr	r3, .L181
 2685 0002 C365     		str	r3, [r0, #92]
 2686 0004 7047     		bx	lr
 2687              	.L182:
 2688 0006 00BF     		.align	2
 2689              	.L181:
 2690 0008 00000000 		.word	u8g2_font_calc_vref_center
 2691              		.cfi_endproc
 2692              	.LFE38:
 2694              		.section	.text.u8g2_SetFont,"ax",%progbits
 2695              		.align	2
 2696              		.global	u8g2_SetFont
 2697              		.thumb
 2698              		.thumb_func
 2700              	u8g2_SetFont:
 2701              	.LFB39:
1072:u8g2_lib/u8g2_font.c ****   if ( u8g2->font != font )
 2702              		.loc 1 1072 0
 2703              		.cfi_startproc
 2704              		@ args = 0, pretend = 0, frame = 0
 2705              		@ frame_needed = 0, uses_anonymous_args = 0
 2706              	.LVL398:
1073:u8g2_lib/u8g2_font.c ****   {
 2707              		.loc 1 1073 0
ARM GAS  C:\Users\master\AppData\Local\Temp\ccxO0czL.s 			page 75


 2708 0000 836D     		ldr	r3, [r0, #88]
 2709 0002 8B42     		cmp	r3, r1
 2710 0004 09D0     		beq	.L186
1072:u8g2_lib/u8g2_font.c ****   if ( u8g2->font != font )
 2711              		.loc 1 1072 0
 2712 0006 10B5     		push	{r4, lr}
 2713              	.LCFI37:
 2714              		.cfi_def_cfa_offset 8
 2715              		.cfi_offset 4, -8
 2716              		.cfi_offset 14, -4
 2717 0008 0446     		mov	r4, r0
1079:u8g2_lib/u8g2_font.c ****     u8g2_read_font_info(&(u8g2->font_info), font);
 2718              		.loc 1 1079 0
 2719 000a 8165     		str	r1, [r0, #88]
1080:u8g2_lib/u8g2_font.c ****     u8g2_UpdateRefHeight(u8g2);
 2720              		.loc 1 1080 0
 2721 000c 7430     		adds	r0, r0, #116
 2722              	.LVL399:
 2723 000e FFF7FEFF 		bl	u8g2_read_font_info
 2724              	.LVL400:
1081:u8g2_lib/u8g2_font.c ****     /* u8g2_SetFontPosBaseline(u8g2); */ /* removed with issue 195 */
 2725              		.loc 1 1081 0
 2726 0012 2046     		mov	r0, r4
 2727 0014 FFF7FEFF 		bl	u8g2_UpdateRefHeight
 2728              	.LVL401:
 2729 0018 10BD     		pop	{r4, pc}
 2730              	.LVL402:
 2731              	.L186:
 2732              	.LCFI38:
 2733              		.cfi_def_cfa_offset 0
 2734              		.cfi_restore 4
 2735              		.cfi_restore 14
 2736 001a 7047     		bx	lr
 2737              		.cfi_endproc
 2738              	.LFE39:
 2740              		.section	.text.u8g2_IsAllValidUTF8,"ax",%progbits
 2741              		.align	2
 2742              		.global	u8g2_IsAllValidUTF8
 2743              		.thumb
 2744              		.thumb_func
 2746              	u8g2_IsAllValidUTF8:
 2747              	.LFB41:
1109:u8g2_lib/u8g2_font.c ****   u8g2->u8x8.next_cb = u8x8_utf8_next;
 2748              		.loc 1 1109 0
 2749              		.cfi_startproc
 2750              		@ args = 0, pretend = 0, frame = 0
 2751              		@ frame_needed = 0, uses_anonymous_args = 0
 2752              	.LVL403:
 2753 0000 08B5     		push	{r3, lr}
 2754              	.LCFI39:
 2755              		.cfi_def_cfa_offset 8
 2756              		.cfi_offset 3, -8
 2757              		.cfi_offset 14, -4
1110:u8g2_lib/u8g2_font.c ****   return u8g2_is_all_valid(u8g2, str);
 2758              		.loc 1 1110 0
 2759 0002 024B     		ldr	r3, .L189
 2760 0004 4360     		str	r3, [r0, #4]
ARM GAS  C:\Users\master\AppData\Local\Temp\ccxO0czL.s 			page 76


1111:u8g2_lib/u8g2_font.c **** }
 2761              		.loc 1 1111 0
 2762 0006 FFF7FEFF 		bl	u8g2_is_all_valid
 2763              	.LVL404:
1112:u8g2_lib/u8g2_font.c **** 
 2764              		.loc 1 1112 0
 2765 000a 08BD     		pop	{r3, pc}
 2766              	.L190:
 2767              		.align	2
 2768              	.L189:
 2769 000c 00000000 		.word	u8x8_utf8_next
 2770              		.cfi_endproc
 2771              	.LFE41:
 2773              		.section	.text.u8g2_GetStrX,"ax",%progbits
 2774              		.align	2
 2775              		.global	u8g2_GetStrX
 2776              		.thumb
 2777              		.thumb_func
 2779              	u8g2_GetStrX:
 2780              	.LFB44:
1172:u8g2_lib/u8g2_font.c ****   uint8_t w;
 2781              		.loc 1 1172 0
 2782              		.cfi_startproc
 2783              		@ args = 0, pretend = 0, frame = 8
 2784              		@ frame_needed = 0, uses_anonymous_args = 0
 2785              	.LVL405:
 2786 0000 00B5     		push	{lr}
 2787              	.LCFI40:
 2788              		.cfi_def_cfa_offset 4
 2789              		.cfi_offset 14, -4
 2790 0002 85B0     		sub	sp, sp, #20
 2791              	.LCFI41:
 2792              		.cfi_def_cfa_offset 24
1175:u8g2_lib/u8g2_font.c ****   return ox;
 2793              		.loc 1 1175 0
 2794 0004 0978     		ldrb	r1, [r1]	@ zero_extendqisi2
 2795              	.LVL406:
 2796 0006 0DF10D03 		add	r3, sp, #13
 2797 000a 0093     		str	r3, [sp]
 2798 000c 0DF10E03 		add	r3, sp, #14
 2799 0010 0DF10F02 		add	r2, sp, #15
 2800 0014 FFF7FEFF 		bl	u8g2_GetGlyphHorizontalProperties
 2801              	.LVL407:
1177:u8g2_lib/u8g2_font.c **** 
 2802              		.loc 1 1177 0
 2803 0018 9DF90E00 		ldrsb	r0, [sp, #14]
 2804 001c 05B0     		add	sp, sp, #20
 2805              	.LCFI42:
 2806              		.cfi_def_cfa_offset 4
 2807              		@ sp needed
 2808 001e 5DF804FB 		ldr	pc, [sp], #4
 2809              		.cfi_endproc
 2810              	.LFE44:
 2812 0022 00BF     		.section	.text.u8g2_GetStrWidth,"ax",%progbits
 2813              		.align	2
 2814              		.global	u8g2_GetStrWidth
 2815              		.thumb
ARM GAS  C:\Users\master\AppData\Local\Temp\ccxO0czL.s 			page 77


 2816              		.thumb_func
 2818              	u8g2_GetStrWidth:
 2819              	.LFB46:
1249:u8g2_lib/u8g2_font.c **** 
1250:u8g2_lib/u8g2_font.c **** 
1251:u8g2_lib/u8g2_font.c **** 
1252:u8g2_lib/u8g2_font.c **** 
1253:u8g2_lib/u8g2_font.c **** 
1254:u8g2_lib/u8g2_font.c **** u8g2_uint_t u8g2_GetStrWidth(u8g2_t *u8g2, const char *s)
1255:u8g2_lib/u8g2_font.c **** {
 2820              		.loc 1 1255 0
 2821              		.cfi_startproc
 2822              		@ args = 0, pretend = 0, frame = 0
 2823              		@ frame_needed = 0, uses_anonymous_args = 0
 2824              	.LVL408:
 2825 0000 08B5     		push	{r3, lr}
 2826              	.LCFI43:
 2827              		.cfi_def_cfa_offset 8
 2828              		.cfi_offset 3, -8
 2829              		.cfi_offset 14, -4
1256:u8g2_lib/u8g2_font.c ****   u8g2->u8x8.next_cb = u8x8_ascii_next;
 2830              		.loc 1 1256 0
 2831 0002 024B     		ldr	r3, .L195
 2832 0004 4360     		str	r3, [r0, #4]
1257:u8g2_lib/u8g2_font.c ****   return u8g2_string_width(u8g2, s);
 2833              		.loc 1 1257 0
 2834 0006 FFF7FEFF 		bl	u8g2_string_width
 2835              	.LVL409:
1258:u8g2_lib/u8g2_font.c **** }
 2836              		.loc 1 1258 0
 2837 000a 08BD     		pop	{r3, pc}
 2838              	.L196:
 2839              		.align	2
 2840              	.L195:
 2841 000c 00000000 		.word	u8x8_ascii_next
 2842              		.cfi_endproc
 2843              	.LFE46:
 2845              		.section	.text.u8g2_GetExactStrWidth,"ax",%progbits
 2846              		.align	2
 2847              		.global	u8g2_GetExactStrWidth
 2848              		.thumb
 2849              		.thumb_func
 2851              	u8g2_GetExactStrWidth:
 2852              	.LFB47:
1259:u8g2_lib/u8g2_font.c **** 
1260:u8g2_lib/u8g2_font.c **** u8g2_uint_t u8g2_GetExactStrWidth(u8g2_t *u8g2, const char *s)
1261:u8g2_lib/u8g2_font.c **** {
 2853              		.loc 1 1261 0
 2854              		.cfi_startproc
 2855              		@ args = 0, pretend = 0, frame = 0
 2856              		@ frame_needed = 0, uses_anonymous_args = 0
 2857              	.LVL410:
 2858 0000 08B5     		push	{r3, lr}
 2859              	.LCFI44:
 2860              		.cfi_def_cfa_offset 8
 2861              		.cfi_offset 3, -8
 2862              		.cfi_offset 14, -4
ARM GAS  C:\Users\master\AppData\Local\Temp\ccxO0czL.s 			page 78


1262:u8g2_lib/u8g2_font.c ****   u8g2->u8x8.next_cb = u8x8_ascii_next;
 2863              		.loc 1 1262 0
 2864 0002 024B     		ldr	r3, .L199
 2865 0004 4360     		str	r3, [r0, #4]
1263:u8g2_lib/u8g2_font.c ****   return u8g2_calculate_exact_string_width(u8g2, s);
 2866              		.loc 1 1263 0
 2867 0006 FFF7FEFF 		bl	u8g2_calculate_exact_string_width
 2868              	.LVL411:
1264:u8g2_lib/u8g2_font.c **** }
 2869              		.loc 1 1264 0
 2870 000a 08BD     		pop	{r3, pc}
 2871              	.L200:
 2872              		.align	2
 2873              	.L199:
 2874 000c 00000000 		.word	u8x8_ascii_next
 2875              		.cfi_endproc
 2876              	.LFE47:
 2878              		.section	.text.u8g2_GetUTF8Width,"ax",%progbits
 2879              		.align	2
 2880              		.global	u8g2_GetUTF8Width
 2881              		.thumb
 2882              		.thumb_func
 2884              	u8g2_GetUTF8Width:
 2885              	.LFB48:
1265:u8g2_lib/u8g2_font.c **** 
1266:u8g2_lib/u8g2_font.c **** /*
1267:u8g2_lib/u8g2_font.c **** source: https://en.wikipedia.org/wiki/UTF-8
1268:u8g2_lib/u8g2_font.c **** Bits	from 		to			bytes	Byte 1 		Byte 2 		Byte 3 		Byte 4 		Byte 5 		Byte 6
1269:u8g2_lib/u8g2_font.c ****   7 	U+0000 		U+007F 		1 		0xxxxxxx
1270:u8g2_lib/u8g2_font.c **** 11 	U+0080 		U+07FF 		2 		110xxxxx 	10xxxxxx
1271:u8g2_lib/u8g2_font.c **** 16 	U+0800 		U+FFFF 		3 		1110xxxx 	10xxxxxx 	10xxxxxx
1272:u8g2_lib/u8g2_font.c **** 21 	U+10000 	U+1FFFFF 	4 		11110xxx 	10xxxxxx 	10xxxxxx 	10xxxxxx
1273:u8g2_lib/u8g2_font.c **** 26 	U+200000 	U+3FFFFFF 	5 		111110xx 	10xxxxxx 	10xxxxxx 	10xxxxxx 	10xxxxxx
1274:u8g2_lib/u8g2_font.c **** 31 	U+4000000 	U+7FFFFFFF 	6 		1111110x 	10xxxxxx 	10xxxxxx 	10xxxxxx 	10xxxxxx 	10xxxxxx  
1275:u8g2_lib/u8g2_font.c **** */
1276:u8g2_lib/u8g2_font.c **** u8g2_uint_t u8g2_GetUTF8Width(u8g2_t *u8g2, const char *str)
1277:u8g2_lib/u8g2_font.c **** {
 2886              		.loc 1 1277 0
 2887              		.cfi_startproc
 2888              		@ args = 0, pretend = 0, frame = 0
 2889              		@ frame_needed = 0, uses_anonymous_args = 0
 2890              	.LVL412:
 2891 0000 08B5     		push	{r3, lr}
 2892              	.LCFI45:
 2893              		.cfi_def_cfa_offset 8
 2894              		.cfi_offset 3, -8
 2895              		.cfi_offset 14, -4
1278:u8g2_lib/u8g2_font.c ****   u8g2->u8x8.next_cb = u8x8_utf8_next;
 2896              		.loc 1 1278 0
 2897 0002 024B     		ldr	r3, .L203
 2898 0004 4360     		str	r3, [r0, #4]
1279:u8g2_lib/u8g2_font.c ****   return u8g2_string_width(u8g2, str);
 2899              		.loc 1 1279 0
 2900 0006 FFF7FEFF 		bl	u8g2_string_width
 2901              	.LVL413:
1280:u8g2_lib/u8g2_font.c **** }
 2902              		.loc 1 1280 0
ARM GAS  C:\Users\master\AppData\Local\Temp\ccxO0czL.s 			page 79


 2903 000a 08BD     		pop	{r3, pc}
 2904              	.L204:
 2905              		.align	2
 2906              	.L203:
 2907 000c 00000000 		.word	u8x8_utf8_next
 2908              		.cfi_endproc
 2909              	.LFE48:
 2911              		.section	.text.u8g2_SetFontDirection,"ax",%progbits
 2912              		.align	2
 2913              		.global	u8g2_SetFontDirection
 2914              		.thumb
 2915              		.thumb_func
 2917              	u8g2_SetFontDirection:
 2918              	.LFB49:
1281:u8g2_lib/u8g2_font.c **** 
1282:u8g2_lib/u8g2_font.c **** 
1283:u8g2_lib/u8g2_font.c **** 
1284:u8g2_lib/u8g2_font.c **** void u8g2_SetFontDirection(u8g2_t *u8g2, uint8_t dir)
1285:u8g2_lib/u8g2_font.c **** {
 2919              		.loc 1 1285 0
 2920              		.cfi_startproc
 2921              		@ args = 0, pretend = 0, frame = 0
 2922              		@ frame_needed = 0, uses_anonymous_args = 0
 2923              		@ link register save eliminated.
 2924              	.LVL414:
1286:u8g2_lib/u8g2_font.c **** #ifdef U8G2_WITH_FONT_ROTATION  
1287:u8g2_lib/u8g2_font.c ****   u8g2->font_decode.dir = dir;
 2925              		.loc 1 1287 0
 2926 0000 80F87010 		strb	r1, [r0, #112]
 2927 0004 7047     		bx	lr
 2928              		.cfi_endproc
 2929              	.LFE49:
 2931 0006 00BF     		.text
 2932              	.Letext0:
 2933              		.file 2 "c:\\program files (x86)\\gnu tools arm embedded\\5.4 2016q3\\arm-none-eabi\\include\\mach
 2934              		.file 3 "c:\\program files (x86)\\gnu tools arm embedded\\5.4 2016q3\\arm-none-eabi\\include\\sys\
 2935              		.file 4 "c:\\program files (x86)\\gnu tools arm embedded\\5.4 2016q3\\lib\\gcc\\arm-none-eabi\\5.4
 2936              		.file 5 "u8g2_lib/u8x8.h"
 2937              		.file 6 "u8g2_lib/u8g2.h"
ARM GAS  C:\Users\master\AppData\Local\Temp\ccxO0czL.s 			page 80

