ARM GAS  C:\Users\master\AppData\Local\Temp\cczWtrGk.s 			page 1


   1              		.syntax unified
   2              		.cpu cortex-m4
   3              		.eabi_attribute 27, 1
   4              		.eabi_attribute 28, 1
   5              		.fpu fpv4-sp-d16
   6              		.eabi_attribute 20, 1
   7              		.eabi_attribute 21, 1
   8              		.eabi_attribute 23, 3
   9              		.eabi_attribute 24, 1
  10              		.eabi_attribute 25, 1
  11              		.eabi_attribute 26, 1
  12              		.eabi_attribute 30, 1
  13              		.eabi_attribute 34, 1
  14              		.eabi_attribute 18, 4
  15              		.thumb
  16              		.syntax unified
  17              		.file	"u8g2_bitmap.c"
  18              		.text
  19              	.Ltext0:
  20              		.cfi_sections	.debug_frame
  21              		.section	.text.u8g2_SetBitmapMode,"ax",%progbits
  22              		.align	2
  23              		.global	u8g2_SetBitmapMode
  24              		.thumb
  25              		.thumb_func
  27              	u8g2_SetBitmapMode:
  28              	.LFB0:
  29              		.file 1 "u8g2_lib/u8g2_bitmap.c"
   1:u8g2_lib/u8g2_bitmap.c **** /*
   2:u8g2_lib/u8g2_bitmap.c **** 
   3:u8g2_lib/u8g2_bitmap.c ****   u8g2_bitmap.c
   4:u8g2_lib/u8g2_bitmap.c **** 
   5:u8g2_lib/u8g2_bitmap.c ****   Universal 8bit Graphics Library (https://github.com/olikraus/u8g2/)
   6:u8g2_lib/u8g2_bitmap.c **** 
   7:u8g2_lib/u8g2_bitmap.c ****   Copyright (c) 2016, olikraus@gmail.com
   8:u8g2_lib/u8g2_bitmap.c ****   All rights reserved.
   9:u8g2_lib/u8g2_bitmap.c **** 
  10:u8g2_lib/u8g2_bitmap.c ****   Redistribution and use in source and binary forms, with or without modification, 
  11:u8g2_lib/u8g2_bitmap.c ****   are permitted provided that the following conditions are met:
  12:u8g2_lib/u8g2_bitmap.c **** 
  13:u8g2_lib/u8g2_bitmap.c ****   * Redistributions of source code must retain the above copyright notice, this list 
  14:u8g2_lib/u8g2_bitmap.c ****     of conditions and the following disclaimer.
  15:u8g2_lib/u8g2_bitmap.c ****     
  16:u8g2_lib/u8g2_bitmap.c ****   * Redistributions in binary form must reproduce the above copyright notice, this 
  17:u8g2_lib/u8g2_bitmap.c ****     list of conditions and the following disclaimer in the documentation and/or other 
  18:u8g2_lib/u8g2_bitmap.c ****     materials provided with the distribution.
  19:u8g2_lib/u8g2_bitmap.c **** 
  20:u8g2_lib/u8g2_bitmap.c ****   THIS SOFTWARE IS PROVIDED BY THE COPYRIGHT HOLDERS AND 
  21:u8g2_lib/u8g2_bitmap.c ****   CONTRIBUTORS "AS IS" AND ANY EXPRESS OR IMPLIED WARRANTIES, 
  22:u8g2_lib/u8g2_bitmap.c ****   INCLUDING, BUT NOT LIMITED TO, THE IMPLIED WARRANTIES OF 
  23:u8g2_lib/u8g2_bitmap.c ****   MERCHANTABILITY AND FITNESS FOR A PARTICULAR PURPOSE ARE 
  24:u8g2_lib/u8g2_bitmap.c ****   DISCLAIMED. IN NO EVENT SHALL THE COPYRIGHT HOLDER OR 
  25:u8g2_lib/u8g2_bitmap.c ****   CONTRIBUTORS BE LIABLE FOR ANY DIRECT, INDIRECT, INCIDENTAL, 
  26:u8g2_lib/u8g2_bitmap.c ****   SPECIAL, EXEMPLARY, OR CONSEQUENTIAL DAMAGES (INCLUDING, BUT 
  27:u8g2_lib/u8g2_bitmap.c ****   NOT LIMITED TO, PROCUREMENT OF SUBSTITUTE GOODS OR SERVICES; 
  28:u8g2_lib/u8g2_bitmap.c ****   LOSS OF USE, DATA, OR PROFITS; OR BUSINESS INTERRUPTION) HOWEVER 
  29:u8g2_lib/u8g2_bitmap.c ****   CAUSED AND ON ANY THEORY OF LIABILITY, WHETHER IN CONTRACT, 
ARM GAS  C:\Users\master\AppData\Local\Temp\cczWtrGk.s 			page 2


  30:u8g2_lib/u8g2_bitmap.c ****   STRICT LIABILITY, OR TORT (INCLUDING NEGLIGENCE OR OTHERWISE) 
  31:u8g2_lib/u8g2_bitmap.c ****   ARISING IN ANY WAY OUT OF THE USE OF THIS SOFTWARE, EVEN IF 
  32:u8g2_lib/u8g2_bitmap.c ****   ADVISED OF THE POSSIBILITY OF SUCH DAMAGE.  
  33:u8g2_lib/u8g2_bitmap.c **** 
  34:u8g2_lib/u8g2_bitmap.c **** */
  35:u8g2_lib/u8g2_bitmap.c **** 
  36:u8g2_lib/u8g2_bitmap.c **** #include "u8g2.h"
  37:u8g2_lib/u8g2_bitmap.c **** 
  38:u8g2_lib/u8g2_bitmap.c **** 
  39:u8g2_lib/u8g2_bitmap.c **** void u8g2_SetBitmapMode(u8g2_t *u8g2, uint8_t is_transparent) {
  30              		.loc 1 39 0
  31              		.cfi_startproc
  32              		@ args = 0, pretend = 0, frame = 0
  33              		@ frame_needed = 0, uses_anonymous_args = 0
  34              		@ link register save eliminated.
  35              	.LVL0:
  40:u8g2_lib/u8g2_bitmap.c ****   u8g2->bitmap_transparency = is_transparent;
  36              		.loc 1 40 0
  37 0000 80F89110 		strb	r1, [r0, #145]
  38 0004 7047     		bx	lr
  39              		.cfi_endproc
  40              	.LFE0:
  42 0006 00BF     		.section	.text.u8g2_DrawHorizontalBitmap,"ax",%progbits
  43              		.align	2
  44              		.global	u8g2_DrawHorizontalBitmap
  45              		.thumb
  46              		.thumb_func
  48              	u8g2_DrawHorizontalBitmap:
  49              	.LFB1:
  41:u8g2_lib/u8g2_bitmap.c **** }
  42:u8g2_lib/u8g2_bitmap.c **** 
  43:u8g2_lib/u8g2_bitmap.c **** /*
  44:u8g2_lib/u8g2_bitmap.c ****   x,y 	Position on the display
  45:u8g2_lib/u8g2_bitmap.c ****   len		Length of bitmap line in pixel. Note: This differs from u8glib which had a bytecount here.
  46:u8g2_lib/u8g2_bitmap.c ****   b		Pointer to the bitmap line.
  47:u8g2_lib/u8g2_bitmap.c ****   Only draw pixels which are set.
  48:u8g2_lib/u8g2_bitmap.c **** */
  49:u8g2_lib/u8g2_bitmap.c **** 
  50:u8g2_lib/u8g2_bitmap.c **** void u8g2_DrawHorizontalBitmap(u8g2_t *u8g2, u8g2_uint_t x, u8g2_uint_t y, u8g2_uint_t len, const u
  51:u8g2_lib/u8g2_bitmap.c **** {
  50              		.loc 1 51 0
  51              		.cfi_startproc
  52              		@ args = 4, pretend = 0, frame = 0
  53              		@ frame_needed = 0, uses_anonymous_args = 0
  54              	.LVL1:
  55 0000 2DE9F04F 		push	{r4, r5, r6, r7, r8, r9, r10, fp, lr}
  56              	.LCFI0:
  57              		.cfi_def_cfa_offset 36
  58              		.cfi_offset 4, -36
  59              		.cfi_offset 5, -32
  60              		.cfi_offset 6, -28
  61              		.cfi_offset 7, -24
  62              		.cfi_offset 8, -20
  63              		.cfi_offset 9, -16
  64              		.cfi_offset 10, -12
  65              		.cfi_offset 11, -8
  66              		.cfi_offset 14, -4
ARM GAS  C:\Users\master\AppData\Local\Temp\cczWtrGk.s 			page 3


  67 0004 83B0     		sub	sp, sp, #12
  68              	.LCFI1:
  69              		.cfi_def_cfa_offset 48
  70 0006 8046     		mov	r8, r0
  71 0008 0D46     		mov	r5, r1
  72 000a 9146     		mov	r9, r2
  73 000c 1C46     		mov	r4, r3
  74 000e 0C9F     		ldr	r7, [sp, #48]
  52:u8g2_lib/u8g2_bitmap.c ****   uint8_t mask;
  53:u8g2_lib/u8g2_bitmap.c ****   uint8_t color = u8g2->draw_color;
  75              		.loc 1 53 0
  76 0010 90F892A0 		ldrb	r10, [r0, #146]	@ zero_extendqisi2
  77              	.LVL2:
  54:u8g2_lib/u8g2_bitmap.c ****   uint8_t ncolor = (color == 0 ? 1 : 0);
  55:u8g2_lib/u8g2_bitmap.c **** 
  56:u8g2_lib/u8g2_bitmap.c **** #ifdef U8G2_WITH_INTERSECTION
  57:u8g2_lib/u8g2_bitmap.c ****   if ( u8g2_IsIntersection(u8g2, x, y, x+len, y+1) == 0 ) 
  78              		.loc 1 57 0
  79 0014 CB18     		adds	r3, r1, r3
  80              	.LVL3:
  81 0016 561C     		adds	r6, r2, #1
  82 0018 B6B2     		uxth	r6, r6
  83 001a 0096     		str	r6, [sp]
  84 001c 9BB2     		uxth	r3, r3
  85 001e FFF7FEFF 		bl	u8g2_IsIntersection
  86              	.LVL4:
  87 0022 58B3     		cbz	r0, .L2
  88 0024 BAFA8AFB 		clz	fp, r10
  89              	.LVL5:
  90 0028 4FEA5B1B 		lsr	fp, fp, #5
  91              	.LVL6:
  92 002c 8026     		movs	r6, #128
  93 002e 21E0     		b	.L4
  94              	.LVL7:
  95              	.L8:
  58:u8g2_lib/u8g2_bitmap.c ****     return;
  59:u8g2_lib/u8g2_bitmap.c **** #endif /* U8G2_WITH_INTERSECTION */
  60:u8g2_lib/u8g2_bitmap.c ****   
  61:u8g2_lib/u8g2_bitmap.c ****   mask = 128;
  62:u8g2_lib/u8g2_bitmap.c ****   while(len > 0)
  63:u8g2_lib/u8g2_bitmap.c ****   {
  64:u8g2_lib/u8g2_bitmap.c ****     if ( *b & mask ) {
  96              		.loc 1 64 0
  97 0030 3B78     		ldrb	r3, [r7]	@ zero_extendqisi2
  98 0032 1E42     		tst	r6, r3
  99 0034 0AD0     		beq	.L5
  65:u8g2_lib/u8g2_bitmap.c ****       u8g2->draw_color = color;
 100              		.loc 1 65 0
 101 0036 88F892A0 		strb	r10, [r8, #146]
  66:u8g2_lib/u8g2_bitmap.c ****       u8g2_DrawHVLine(u8g2, x, y, 1, 0);
 102              		.loc 1 66 0
 103 003a 0023     		movs	r3, #0
 104 003c 0093     		str	r3, [sp]
 105 003e 0123     		movs	r3, #1
 106 0040 4A46     		mov	r2, r9
 107 0042 2946     		mov	r1, r5
 108 0044 4046     		mov	r0, r8
ARM GAS  C:\Users\master\AppData\Local\Temp\cczWtrGk.s 			page 4


 109 0046 FFF7FEFF 		bl	u8g2_DrawHVLine
 110              	.LVL8:
 111 004a 0BE0     		b	.L6
 112              	.L5:
  67:u8g2_lib/u8g2_bitmap.c ****     } else if ( u8g2->bitmap_transparency == 0 ) {
 113              		.loc 1 67 0
 114 004c 98F89130 		ldrb	r3, [r8, #145]	@ zero_extendqisi2
 115 0050 43B9     		cbnz	r3, .L6
  68:u8g2_lib/u8g2_bitmap.c ****       u8g2->draw_color = ncolor;
 116              		.loc 1 68 0
 117 0052 88F892B0 		strb	fp, [r8, #146]
  69:u8g2_lib/u8g2_bitmap.c ****       u8g2_DrawHVLine(u8g2, x, y, 1, 0);
 118              		.loc 1 69 0
 119 0056 0093     		str	r3, [sp]
 120 0058 0123     		movs	r3, #1
 121 005a 4A46     		mov	r2, r9
 122 005c 2946     		mov	r1, r5
 123 005e 4046     		mov	r0, r8
 124 0060 FFF7FEFF 		bl	u8g2_DrawHVLine
 125              	.LVL9:
 126              	.L6:
  70:u8g2_lib/u8g2_bitmap.c ****     }
  71:u8g2_lib/u8g2_bitmap.c **** 
  72:u8g2_lib/u8g2_bitmap.c ****     x++;
 127              		.loc 1 72 0
 128 0064 0135     		adds	r5, r5, #1
 129              	.LVL10:
 130 0066 ADB2     		uxth	r5, r5
 131              	.LVL11:
  73:u8g2_lib/u8g2_bitmap.c ****     mask >>= 1;
  74:u8g2_lib/u8g2_bitmap.c ****     if ( mask == 0 )
 132              		.loc 1 74 0
 133 0068 7608     		lsrs	r6, r6, #1
 134              	.LVL12:
 135 006a 01D1     		bne	.L7
 136              	.LVL13:
  75:u8g2_lib/u8g2_bitmap.c ****     {
  76:u8g2_lib/u8g2_bitmap.c ****       mask = 128;
  77:u8g2_lib/u8g2_bitmap.c ****       b++;
 137              		.loc 1 77 0
 138 006c 0137     		adds	r7, r7, #1
 139              	.LVL14:
  76:u8g2_lib/u8g2_bitmap.c ****       b++;
 140              		.loc 1 76 0
 141 006e 8026     		movs	r6, #128
 142              	.LVL15:
 143              	.L7:
  78:u8g2_lib/u8g2_bitmap.c ****     }
  79:u8g2_lib/u8g2_bitmap.c ****     len--;
 144              		.loc 1 79 0
 145 0070 013C     		subs	r4, r4, #1
 146              	.LVL16:
 147 0072 A4B2     		uxth	r4, r4
 148              	.LVL17:
 149              	.L4:
  62:u8g2_lib/u8g2_bitmap.c ****   {
 150              		.loc 1 62 0
ARM GAS  C:\Users\master\AppData\Local\Temp\cczWtrGk.s 			page 5


 151 0074 002C     		cmp	r4, #0
 152 0076 DBD1     		bne	.L8
  80:u8g2_lib/u8g2_bitmap.c ****   }
  81:u8g2_lib/u8g2_bitmap.c ****   u8g2->draw_color = color;
 153              		.loc 1 81 0
 154 0078 88F892A0 		strb	r10, [r8, #146]
 155              	.LVL18:
 156              	.L2:
  82:u8g2_lib/u8g2_bitmap.c **** }
 157              		.loc 1 82 0
 158 007c 03B0     		add	sp, sp, #12
 159              	.LCFI2:
 160              		.cfi_def_cfa_offset 36
 161              		@ sp needed
 162 007e BDE8F08F 		pop	{r4, r5, r6, r7, r8, r9, r10, fp, pc}
 163              		.cfi_endproc
 164              	.LFE1:
 166 0082 00BF     		.section	.text.u8g2_DrawBitmap,"ax",%progbits
 167              		.align	2
 168              		.global	u8g2_DrawBitmap
 169              		.thumb
 170              		.thumb_func
 172              	u8g2_DrawBitmap:
 173              	.LFB2:
  83:u8g2_lib/u8g2_bitmap.c **** 
  84:u8g2_lib/u8g2_bitmap.c **** 
  85:u8g2_lib/u8g2_bitmap.c **** /* u8glib compatible bitmap draw function */
  86:u8g2_lib/u8g2_bitmap.c **** void u8g2_DrawBitmap(u8g2_t *u8g2, u8g2_uint_t x, u8g2_uint_t y, u8g2_uint_t cnt, u8g2_uint_t h, co
  87:u8g2_lib/u8g2_bitmap.c **** {
 174              		.loc 1 87 0
 175              		.cfi_startproc
 176              		@ args = 8, pretend = 0, frame = 0
 177              		@ frame_needed = 0, uses_anonymous_args = 0
 178              	.LVL19:
 179 0000 2DE9F047 		push	{r4, r5, r6, r7, r8, r9, r10, lr}
 180              	.LCFI3:
 181              		.cfi_def_cfa_offset 32
 182              		.cfi_offset 4, -32
 183              		.cfi_offset 5, -28
 184              		.cfi_offset 6, -24
 185              		.cfi_offset 7, -20
 186              		.cfi_offset 8, -16
 187              		.cfi_offset 9, -12
 188              		.cfi_offset 10, -8
 189              		.cfi_offset 14, -4
 190 0004 82B0     		sub	sp, sp, #8
 191              	.LCFI4:
 192              		.cfi_def_cfa_offset 40
 193 0006 8246     		mov	r10, r0
 194 0008 8846     		mov	r8, r1
 195 000a 1546     		mov	r5, r2
 196 000c 9946     		mov	r9, r3
 197 000e BDF82840 		ldrh	r4, [sp, #40]
 198 0012 0B9E     		ldr	r6, [sp, #44]
 199              	.LVL20:
  88:u8g2_lib/u8g2_bitmap.c ****   u8g2_uint_t w;
  89:u8g2_lib/u8g2_bitmap.c ****   w = cnt;
ARM GAS  C:\Users\master\AppData\Local\Temp\cczWtrGk.s 			page 6


  90:u8g2_lib/u8g2_bitmap.c ****   w *= 8;
 200              		.loc 1 90 0
 201 0014 DF00     		lsls	r7, r3, #3
 202 0016 BFB2     		uxth	r7, r7
 203              	.LVL21:
  91:u8g2_lib/u8g2_bitmap.c **** #ifdef U8G2_WITH_INTERSECTION
  92:u8g2_lib/u8g2_bitmap.c ****   if ( u8g2_IsIntersection(u8g2, x, y, x+w, y+h) == 0 ) 
 204              		.loc 1 92 0
 205 0018 07EB010E 		add	lr, r7, r1
 206 001c 1319     		adds	r3, r2, r4
 207              	.LVL22:
 208 001e 9BB2     		uxth	r3, r3
 209 0020 0093     		str	r3, [sp]
 210 0022 1FFA8EF3 		uxth	r3, lr
 211 0026 FFF7FEFF 		bl	u8g2_IsIntersection
 212              	.LVL23:
 213 002a 60B9     		cbnz	r0, .L12
 214 002c 0DE0     		b	.L10
 215              	.LVL24:
 216              	.L13:
  93:u8g2_lib/u8g2_bitmap.c ****     return;
  94:u8g2_lib/u8g2_bitmap.c **** #endif /* U8G2_WITH_INTERSECTION */
  95:u8g2_lib/u8g2_bitmap.c ****   
  96:u8g2_lib/u8g2_bitmap.c ****   while( h > 0 )
  97:u8g2_lib/u8g2_bitmap.c ****   {
  98:u8g2_lib/u8g2_bitmap.c ****     u8g2_DrawHorizontalBitmap(u8g2, x, y, w, bitmap);
 217              		.loc 1 98 0
 218 002e 0096     		str	r6, [sp]
 219 0030 3B46     		mov	r3, r7
 220 0032 2A46     		mov	r2, r5
 221 0034 4146     		mov	r1, r8
 222 0036 5046     		mov	r0, r10
 223 0038 FFF7FEFF 		bl	u8g2_DrawHorizontalBitmap
 224              	.LVL25:
  99:u8g2_lib/u8g2_bitmap.c ****     bitmap += cnt;
 225              		.loc 1 99 0
 226 003c 4E44     		add	r6, r6, r9
 227              	.LVL26:
 100:u8g2_lib/u8g2_bitmap.c ****     y++;
 228              		.loc 1 100 0
 229 003e 0135     		adds	r5, r5, #1
 230              	.LVL27:
 231 0040 ADB2     		uxth	r5, r5
 232              	.LVL28:
 101:u8g2_lib/u8g2_bitmap.c ****     h--;
 233              		.loc 1 101 0
 234 0042 013C     		subs	r4, r4, #1
 235              	.LVL29:
 236 0044 A4B2     		uxth	r4, r4
 237              	.LVL30:
 238              	.L12:
  96:u8g2_lib/u8g2_bitmap.c ****   {
 239              		.loc 1 96 0
 240 0046 002C     		cmp	r4, #0
 241 0048 F1D1     		bne	.L13
 242              	.LVL31:
 243              	.L10:
ARM GAS  C:\Users\master\AppData\Local\Temp\cczWtrGk.s 			page 7


 102:u8g2_lib/u8g2_bitmap.c ****   }
 103:u8g2_lib/u8g2_bitmap.c **** }
 244              		.loc 1 103 0
 245 004a 02B0     		add	sp, sp, #8
 246              	.LCFI5:
 247              		.cfi_def_cfa_offset 32
 248              		@ sp needed
 249 004c BDE8F087 		pop	{r4, r5, r6, r7, r8, r9, r10, pc}
 250              		.cfi_endproc
 251              	.LFE2:
 253              		.section	.text.u8g2_DrawHXBM,"ax",%progbits
 254              		.align	2
 255              		.global	u8g2_DrawHXBM
 256              		.thumb
 257              		.thumb_func
 259              	u8g2_DrawHXBM:
 260              	.LFB3:
 104:u8g2_lib/u8g2_bitmap.c **** 
 105:u8g2_lib/u8g2_bitmap.c **** 
 106:u8g2_lib/u8g2_bitmap.c **** 
 107:u8g2_lib/u8g2_bitmap.c **** void u8g2_DrawHXBM(u8g2_t *u8g2, u8g2_uint_t x, u8g2_uint_t y, u8g2_uint_t len, const uint8_t *b)
 108:u8g2_lib/u8g2_bitmap.c **** {
 261              		.loc 1 108 0
 262              		.cfi_startproc
 263              		@ args = 4, pretend = 0, frame = 0
 264              		@ frame_needed = 0, uses_anonymous_args = 0
 265              	.LVL32:
 266 0000 2DE9F04F 		push	{r4, r5, r6, r7, r8, r9, r10, fp, lr}
 267              	.LCFI6:
 268              		.cfi_def_cfa_offset 36
 269              		.cfi_offset 4, -36
 270              		.cfi_offset 5, -32
 271              		.cfi_offset 6, -28
 272              		.cfi_offset 7, -24
 273              		.cfi_offset 8, -20
 274              		.cfi_offset 9, -16
 275              		.cfi_offset 10, -12
 276              		.cfi_offset 11, -8
 277              		.cfi_offset 14, -4
 278 0004 83B0     		sub	sp, sp, #12
 279              	.LCFI7:
 280              		.cfi_def_cfa_offset 48
 281 0006 8046     		mov	r8, r0
 282 0008 0E46     		mov	r6, r1
 283 000a 9146     		mov	r9, r2
 284 000c 1D46     		mov	r5, r3
 285 000e 0C9F     		ldr	r7, [sp, #48]
 109:u8g2_lib/u8g2_bitmap.c ****   uint8_t mask;
 110:u8g2_lib/u8g2_bitmap.c ****   uint8_t color = u8g2->draw_color;
 286              		.loc 1 110 0
 287 0010 90F892A0 		ldrb	r10, [r0, #146]	@ zero_extendqisi2
 288              	.LVL33:
 111:u8g2_lib/u8g2_bitmap.c ****   uint8_t ncolor = (color == 0 ? 1 : 0);
 112:u8g2_lib/u8g2_bitmap.c **** #ifdef U8G2_WITH_INTERSECTION
 113:u8g2_lib/u8g2_bitmap.c ****   if ( u8g2_IsIntersection(u8g2, x, y, x+len, y+1) == 0 ) 
 289              		.loc 1 113 0
 290 0014 CB18     		adds	r3, r1, r3
ARM GAS  C:\Users\master\AppData\Local\Temp\cczWtrGk.s 			page 8


 291              	.LVL34:
 292 0016 541C     		adds	r4, r2, #1
 293 0018 A4B2     		uxth	r4, r4
 294 001a 0094     		str	r4, [sp]
 295 001c 9BB2     		uxth	r3, r3
 296 001e FFF7FEFF 		bl	u8g2_IsIntersection
 297              	.LVL35:
 298 0022 68B3     		cbz	r0, .L15
 299 0024 BAFA8AFB 		clz	fp, r10
 300              	.LVL36:
 301 0028 4FEA5B1B 		lsr	fp, fp, #5
 302              	.LVL37:
 303 002c 0124     		movs	r4, #1
 304 002e 23E0     		b	.L17
 305              	.LVL38:
 306              	.L21:
 114:u8g2_lib/u8g2_bitmap.c ****     return;
 115:u8g2_lib/u8g2_bitmap.c **** #endif /* U8G2_WITH_INTERSECTION */
 116:u8g2_lib/u8g2_bitmap.c ****   
 117:u8g2_lib/u8g2_bitmap.c ****   mask = 1;
 118:u8g2_lib/u8g2_bitmap.c ****   while(len > 0) {
 119:u8g2_lib/u8g2_bitmap.c ****     if ( *b & mask ) {
 307              		.loc 1 119 0
 308 0030 3B78     		ldrb	r3, [r7]	@ zero_extendqisi2
 309 0032 1C42     		tst	r4, r3
 310 0034 0AD0     		beq	.L18
 120:u8g2_lib/u8g2_bitmap.c ****       u8g2->draw_color = color;
 311              		.loc 1 120 0
 312 0036 88F892A0 		strb	r10, [r8, #146]
 121:u8g2_lib/u8g2_bitmap.c ****       u8g2_DrawHVLine(u8g2, x, y, 1, 0);
 313              		.loc 1 121 0
 314 003a 0023     		movs	r3, #0
 315 003c 0093     		str	r3, [sp]
 316 003e 0123     		movs	r3, #1
 317 0040 4A46     		mov	r2, r9
 318 0042 3146     		mov	r1, r6
 319 0044 4046     		mov	r0, r8
 320 0046 FFF7FEFF 		bl	u8g2_DrawHVLine
 321              	.LVL39:
 322 004a 0BE0     		b	.L19
 323              	.L18:
 122:u8g2_lib/u8g2_bitmap.c ****     } else if ( u8g2->bitmap_transparency == 0 ) {
 324              		.loc 1 122 0
 325 004c 98F89130 		ldrb	r3, [r8, #145]	@ zero_extendqisi2
 326 0050 43B9     		cbnz	r3, .L19
 123:u8g2_lib/u8g2_bitmap.c ****       u8g2->draw_color = ncolor;
 327              		.loc 1 123 0
 328 0052 88F892B0 		strb	fp, [r8, #146]
 124:u8g2_lib/u8g2_bitmap.c ****       u8g2_DrawHVLine(u8g2, x, y, 1, 0);
 329              		.loc 1 124 0
 330 0056 0093     		str	r3, [sp]
 331 0058 0123     		movs	r3, #1
 332 005a 4A46     		mov	r2, r9
 333 005c 3146     		mov	r1, r6
 334 005e 4046     		mov	r0, r8
 335 0060 FFF7FEFF 		bl	u8g2_DrawHVLine
 336              	.LVL40:
ARM GAS  C:\Users\master\AppData\Local\Temp\cczWtrGk.s 			page 9


 337              	.L19:
 125:u8g2_lib/u8g2_bitmap.c ****     }
 126:u8g2_lib/u8g2_bitmap.c ****     x++;
 338              		.loc 1 126 0
 339 0064 0136     		adds	r6, r6, #1
 340              	.LVL41:
 341 0066 B6B2     		uxth	r6, r6
 342              	.LVL42:
 127:u8g2_lib/u8g2_bitmap.c ****     mask <<= 1;
 343              		.loc 1 127 0
 344 0068 6400     		lsls	r4, r4, #1
 345              	.LVL43:
 128:u8g2_lib/u8g2_bitmap.c ****     if ( mask == 0 )
 346              		.loc 1 128 0
 347 006a 14F0FF04 		ands	r4, r4, #255
 348              	.LVL44:
 349 006e 01D1     		bne	.L20
 350              	.LVL45:
 129:u8g2_lib/u8g2_bitmap.c ****     {
 130:u8g2_lib/u8g2_bitmap.c ****       mask = 1;
 131:u8g2_lib/u8g2_bitmap.c ****       b++;
 351              		.loc 1 131 0
 352 0070 0137     		adds	r7, r7, #1
 353              	.LVL46:
 130:u8g2_lib/u8g2_bitmap.c ****       b++;
 354              		.loc 1 130 0
 355 0072 0124     		movs	r4, #1
 356              	.LVL47:
 357              	.L20:
 132:u8g2_lib/u8g2_bitmap.c ****     }
 133:u8g2_lib/u8g2_bitmap.c ****     len--;
 358              		.loc 1 133 0
 359 0074 013D     		subs	r5, r5, #1
 360              	.LVL48:
 361 0076 ADB2     		uxth	r5, r5
 362              	.LVL49:
 363              	.L17:
 118:u8g2_lib/u8g2_bitmap.c ****     if ( *b & mask ) {
 364              		.loc 1 118 0
 365 0078 002D     		cmp	r5, #0
 366 007a D9D1     		bne	.L21
 134:u8g2_lib/u8g2_bitmap.c ****   }
 135:u8g2_lib/u8g2_bitmap.c ****   u8g2->draw_color = color;
 367              		.loc 1 135 0
 368 007c 88F892A0 		strb	r10, [r8, #146]
 369              	.LVL50:
 370              	.L15:
 136:u8g2_lib/u8g2_bitmap.c **** }
 371              		.loc 1 136 0
 372 0080 03B0     		add	sp, sp, #12
 373              	.LCFI8:
 374              		.cfi_def_cfa_offset 36
 375              		@ sp needed
 376 0082 BDE8F08F 		pop	{r4, r5, r6, r7, r8, r9, r10, fp, pc}
 377              		.cfi_endproc
 378              	.LFE3:
 380 0086 00BF     		.section	.text.u8g2_DrawXBM,"ax",%progbits
ARM GAS  C:\Users\master\AppData\Local\Temp\cczWtrGk.s 			page 10


 381              		.align	2
 382              		.global	u8g2_DrawXBM
 383              		.thumb
 384              		.thumb_func
 386              	u8g2_DrawXBM:
 387              	.LFB4:
 137:u8g2_lib/u8g2_bitmap.c **** 
 138:u8g2_lib/u8g2_bitmap.c **** 
 139:u8g2_lib/u8g2_bitmap.c **** void u8g2_DrawXBM(u8g2_t *u8g2, u8g2_uint_t x, u8g2_uint_t y, u8g2_uint_t w, u8g2_uint_t h, const u
 140:u8g2_lib/u8g2_bitmap.c **** {
 388              		.loc 1 140 0
 389              		.cfi_startproc
 390              		@ args = 8, pretend = 0, frame = 0
 391              		@ frame_needed = 0, uses_anonymous_args = 0
 392              	.LVL51:
 393 0000 2DE9F047 		push	{r4, r5, r6, r7, r8, r9, r10, lr}
 394              	.LCFI9:
 395              		.cfi_def_cfa_offset 32
 396              		.cfi_offset 4, -32
 397              		.cfi_offset 5, -28
 398              		.cfi_offset 6, -24
 399              		.cfi_offset 7, -20
 400              		.cfi_offset 8, -16
 401              		.cfi_offset 9, -12
 402              		.cfi_offset 10, -8
 403              		.cfi_offset 14, -4
 404 0004 82B0     		sub	sp, sp, #8
 405              	.LCFI10:
 406              		.cfi_def_cfa_offset 40
 407 0006 8246     		mov	r10, r0
 408 0008 8946     		mov	r9, r1
 409 000a 1546     		mov	r5, r2
 410 000c 1F46     		mov	r7, r3
 411 000e BDF82840 		ldrh	r4, [sp, #40]
 412 0012 0B9E     		ldr	r6, [sp, #44]
 413              	.LVL52:
 141:u8g2_lib/u8g2_bitmap.c ****   u8g2_uint_t blen;
 142:u8g2_lib/u8g2_bitmap.c ****   blen = w;
 143:u8g2_lib/u8g2_bitmap.c ****   blen += 7;
 414              		.loc 1 143 0
 415 0014 03F10708 		add	r8, r3, #7
 416              	.LVL53:
 144:u8g2_lib/u8g2_bitmap.c ****   blen >>= 3;
 417              		.loc 1 144 0
 418 0018 C8F3CC08 		ubfx	r8, r8, #3, #13
 419              	.LVL54:
 145:u8g2_lib/u8g2_bitmap.c **** #ifdef U8G2_WITH_INTERSECTION
 146:u8g2_lib/u8g2_bitmap.c ****   if ( u8g2_IsIntersection(u8g2, x, y, x+w, y+h) == 0 ) 
 420              		.loc 1 146 0
 421 001c 03EB010E 		add	lr, r3, r1
 422 0020 1319     		adds	r3, r2, r4
 423              	.LVL55:
 424 0022 9BB2     		uxth	r3, r3
 425 0024 0093     		str	r3, [sp]
 426 0026 1FFA8EF3 		uxth	r3, lr
 427 002a FFF7FEFF 		bl	u8g2_IsIntersection
 428              	.LVL56:
ARM GAS  C:\Users\master\AppData\Local\Temp\cczWtrGk.s 			page 11


 429 002e 60B9     		cbnz	r0, .L25
 430 0030 0DE0     		b	.L23
 431              	.LVL57:
 432              	.L26:
 147:u8g2_lib/u8g2_bitmap.c ****     return;
 148:u8g2_lib/u8g2_bitmap.c **** #endif /* U8G2_WITH_INTERSECTION */
 149:u8g2_lib/u8g2_bitmap.c ****   
 150:u8g2_lib/u8g2_bitmap.c ****   while( h > 0 )
 151:u8g2_lib/u8g2_bitmap.c ****   {
 152:u8g2_lib/u8g2_bitmap.c ****     u8g2_DrawHXBM(u8g2, x, y, w, bitmap);
 433              		.loc 1 152 0
 434 0032 0096     		str	r6, [sp]
 435 0034 3B46     		mov	r3, r7
 436 0036 2A46     		mov	r2, r5
 437 0038 4946     		mov	r1, r9
 438 003a 5046     		mov	r0, r10
 439 003c FFF7FEFF 		bl	u8g2_DrawHXBM
 440              	.LVL58:
 153:u8g2_lib/u8g2_bitmap.c ****     bitmap += blen;
 441              		.loc 1 153 0
 442 0040 4644     		add	r6, r6, r8
 443              	.LVL59:
 154:u8g2_lib/u8g2_bitmap.c ****     y++;
 444              		.loc 1 154 0
 445 0042 0135     		adds	r5, r5, #1
 446              	.LVL60:
 447 0044 ADB2     		uxth	r5, r5
 448              	.LVL61:
 155:u8g2_lib/u8g2_bitmap.c ****     h--;
 449              		.loc 1 155 0
 450 0046 013C     		subs	r4, r4, #1
 451              	.LVL62:
 452 0048 A4B2     		uxth	r4, r4
 453              	.LVL63:
 454              	.L25:
 150:u8g2_lib/u8g2_bitmap.c ****   {
 455              		.loc 1 150 0
 456 004a 002C     		cmp	r4, #0
 457 004c F1D1     		bne	.L26
 458              	.LVL64:
 459              	.L23:
 156:u8g2_lib/u8g2_bitmap.c ****   }
 157:u8g2_lib/u8g2_bitmap.c **** }
 460              		.loc 1 157 0
 461 004e 02B0     		add	sp, sp, #8
 462              	.LCFI11:
 463              		.cfi_def_cfa_offset 32
 464              		@ sp needed
 465 0050 BDE8F087 		pop	{r4, r5, r6, r7, r8, r9, r10, pc}
 466              		.cfi_endproc
 467              	.LFE4:
 469              		.section	.text.u8g2_DrawHXBMP,"ax",%progbits
 470              		.align	2
 471              		.global	u8g2_DrawHXBMP
 472              		.thumb
 473              		.thumb_func
 475              	u8g2_DrawHXBMP:
ARM GAS  C:\Users\master\AppData\Local\Temp\cczWtrGk.s 			page 12


 476              	.LFB5:
 158:u8g2_lib/u8g2_bitmap.c **** 
 159:u8g2_lib/u8g2_bitmap.c **** 
 160:u8g2_lib/u8g2_bitmap.c **** 
 161:u8g2_lib/u8g2_bitmap.c **** 
 162:u8g2_lib/u8g2_bitmap.c **** 
 163:u8g2_lib/u8g2_bitmap.c **** 
 164:u8g2_lib/u8g2_bitmap.c **** void u8g2_DrawHXBMP(u8g2_t *u8g2, u8g2_uint_t x, u8g2_uint_t y, u8g2_uint_t len, const uint8_t *b)
 165:u8g2_lib/u8g2_bitmap.c **** {
 477              		.loc 1 165 0
 478              		.cfi_startproc
 479              		@ args = 4, pretend = 0, frame = 0
 480              		@ frame_needed = 0, uses_anonymous_args = 0
 481              	.LVL65:
 482 0000 2DE9F04F 		push	{r4, r5, r6, r7, r8, r9, r10, fp, lr}
 483              	.LCFI12:
 484              		.cfi_def_cfa_offset 36
 485              		.cfi_offset 4, -36
 486              		.cfi_offset 5, -32
 487              		.cfi_offset 6, -28
 488              		.cfi_offset 7, -24
 489              		.cfi_offset 8, -20
 490              		.cfi_offset 9, -16
 491              		.cfi_offset 10, -12
 492              		.cfi_offset 11, -8
 493              		.cfi_offset 14, -4
 494 0004 83B0     		sub	sp, sp, #12
 495              	.LCFI13:
 496              		.cfi_def_cfa_offset 48
 497 0006 8046     		mov	r8, r0
 498 0008 0E46     		mov	r6, r1
 499 000a 9146     		mov	r9, r2
 500 000c 1D46     		mov	r5, r3
 501 000e 0C9F     		ldr	r7, [sp, #48]
 166:u8g2_lib/u8g2_bitmap.c ****   uint8_t mask;
 167:u8g2_lib/u8g2_bitmap.c ****   uint8_t color = u8g2->draw_color;
 502              		.loc 1 167 0
 503 0010 90F892A0 		ldrb	r10, [r0, #146]	@ zero_extendqisi2
 504              	.LVL66:
 168:u8g2_lib/u8g2_bitmap.c ****   uint8_t ncolor = (color == 0 ? 1 : 0);
 169:u8g2_lib/u8g2_bitmap.c **** #ifdef U8G2_WITH_INTERSECTION
 170:u8g2_lib/u8g2_bitmap.c ****   if ( u8g2_IsIntersection(u8g2, x, y, x+len, y+1) == 0 ) 
 505              		.loc 1 170 0
 506 0014 CB18     		adds	r3, r1, r3
 507              	.LVL67:
 508 0016 541C     		adds	r4, r2, #1
 509 0018 A4B2     		uxth	r4, r4
 510 001a 0094     		str	r4, [sp]
 511 001c 9BB2     		uxth	r3, r3
 512 001e FFF7FEFF 		bl	u8g2_IsIntersection
 513              	.LVL68:
 514 0022 68B3     		cbz	r0, .L28
 515 0024 BAFA8AFB 		clz	fp, r10
 516              	.LVL69:
 517 0028 4FEA5B1B 		lsr	fp, fp, #5
 518              	.LVL70:
 519 002c 0124     		movs	r4, #1
ARM GAS  C:\Users\master\AppData\Local\Temp\cczWtrGk.s 			page 13


 520 002e 23E0     		b	.L30
 521              	.LVL71:
 522              	.L34:
 171:u8g2_lib/u8g2_bitmap.c ****     return;
 172:u8g2_lib/u8g2_bitmap.c **** #endif /* U8G2_WITH_INTERSECTION */
 173:u8g2_lib/u8g2_bitmap.c ****   
 174:u8g2_lib/u8g2_bitmap.c ****   mask = 1;
 175:u8g2_lib/u8g2_bitmap.c ****   while(len > 0)
 176:u8g2_lib/u8g2_bitmap.c ****   {
 177:u8g2_lib/u8g2_bitmap.c ****     if( u8x8_pgm_read(b) & mask ) {
 523              		.loc 1 177 0
 524 0030 3B78     		ldrb	r3, [r7]	@ zero_extendqisi2
 525 0032 1C42     		tst	r4, r3
 526 0034 0AD0     		beq	.L31
 178:u8g2_lib/u8g2_bitmap.c ****       u8g2->draw_color = color;
 527              		.loc 1 178 0
 528 0036 88F892A0 		strb	r10, [r8, #146]
 179:u8g2_lib/u8g2_bitmap.c ****       u8g2_DrawHVLine(u8g2, x, y, 1, 0);
 529              		.loc 1 179 0
 530 003a 0023     		movs	r3, #0
 531 003c 0093     		str	r3, [sp]
 532 003e 0123     		movs	r3, #1
 533 0040 4A46     		mov	r2, r9
 534 0042 3146     		mov	r1, r6
 535 0044 4046     		mov	r0, r8
 536 0046 FFF7FEFF 		bl	u8g2_DrawHVLine
 537              	.LVL72:
 538 004a 0BE0     		b	.L32
 539              	.L31:
 180:u8g2_lib/u8g2_bitmap.c ****     } else if( u8g2->bitmap_transparency == 0 ) {
 540              		.loc 1 180 0
 541 004c 98F89130 		ldrb	r3, [r8, #145]	@ zero_extendqisi2
 542 0050 43B9     		cbnz	r3, .L32
 181:u8g2_lib/u8g2_bitmap.c ****       u8g2->draw_color = ncolor;
 543              		.loc 1 181 0
 544 0052 88F892B0 		strb	fp, [r8, #146]
 182:u8g2_lib/u8g2_bitmap.c ****       u8g2_DrawHVLine(u8g2, x, y, 1, 0);
 545              		.loc 1 182 0
 546 0056 0093     		str	r3, [sp]
 547 0058 0123     		movs	r3, #1
 548 005a 4A46     		mov	r2, r9
 549 005c 3146     		mov	r1, r6
 550 005e 4046     		mov	r0, r8
 551 0060 FFF7FEFF 		bl	u8g2_DrawHVLine
 552              	.LVL73:
 553              	.L32:
 183:u8g2_lib/u8g2_bitmap.c ****     }
 184:u8g2_lib/u8g2_bitmap.c ****    
 185:u8g2_lib/u8g2_bitmap.c ****     x++;
 554              		.loc 1 185 0
 555 0064 0136     		adds	r6, r6, #1
 556              	.LVL74:
 557 0066 B6B2     		uxth	r6, r6
 558              	.LVL75:
 186:u8g2_lib/u8g2_bitmap.c ****     mask <<= 1;
 559              		.loc 1 186 0
 560 0068 6400     		lsls	r4, r4, #1
ARM GAS  C:\Users\master\AppData\Local\Temp\cczWtrGk.s 			page 14


 561              	.LVL76:
 187:u8g2_lib/u8g2_bitmap.c ****     if ( mask == 0 )
 562              		.loc 1 187 0
 563 006a 14F0FF04 		ands	r4, r4, #255
 564              	.LVL77:
 565 006e 01D1     		bne	.L33
 566              	.LVL78:
 188:u8g2_lib/u8g2_bitmap.c ****     {
 189:u8g2_lib/u8g2_bitmap.c ****       mask = 1;
 190:u8g2_lib/u8g2_bitmap.c ****       b++;
 567              		.loc 1 190 0
 568 0070 0137     		adds	r7, r7, #1
 569              	.LVL79:
 189:u8g2_lib/u8g2_bitmap.c ****       b++;
 570              		.loc 1 189 0
 571 0072 0124     		movs	r4, #1
 572              	.LVL80:
 573              	.L33:
 191:u8g2_lib/u8g2_bitmap.c ****     }
 192:u8g2_lib/u8g2_bitmap.c ****     len--;
 574              		.loc 1 192 0
 575 0074 013D     		subs	r5, r5, #1
 576              	.LVL81:
 577 0076 ADB2     		uxth	r5, r5
 578              	.LVL82:
 579              	.L30:
 175:u8g2_lib/u8g2_bitmap.c ****   {
 580              		.loc 1 175 0
 581 0078 002D     		cmp	r5, #0
 582 007a D9D1     		bne	.L34
 193:u8g2_lib/u8g2_bitmap.c ****   }
 194:u8g2_lib/u8g2_bitmap.c ****   u8g2->draw_color = color;
 583              		.loc 1 194 0
 584 007c 88F892A0 		strb	r10, [r8, #146]
 585              	.LVL83:
 586              	.L28:
 195:u8g2_lib/u8g2_bitmap.c **** }
 587              		.loc 1 195 0
 588 0080 03B0     		add	sp, sp, #12
 589              	.LCFI14:
 590              		.cfi_def_cfa_offset 36
 591              		@ sp needed
 592 0082 BDE8F08F 		pop	{r4, r5, r6, r7, r8, r9, r10, fp, pc}
 593              		.cfi_endproc
 594              	.LFE5:
 596 0086 00BF     		.section	.text.u8g2_DrawXBMP,"ax",%progbits
 597              		.align	2
 598              		.global	u8g2_DrawXBMP
 599              		.thumb
 600              		.thumb_func
 602              	u8g2_DrawXBMP:
 603              	.LFB6:
 196:u8g2_lib/u8g2_bitmap.c **** 
 197:u8g2_lib/u8g2_bitmap.c **** 
 198:u8g2_lib/u8g2_bitmap.c **** void u8g2_DrawXBMP(u8g2_t *u8g2, u8g2_uint_t x, u8g2_uint_t y, u8g2_uint_t w, u8g2_uint_t h, const 
 199:u8g2_lib/u8g2_bitmap.c **** {
 604              		.loc 1 199 0
ARM GAS  C:\Users\master\AppData\Local\Temp\cczWtrGk.s 			page 15


 605              		.cfi_startproc
 606              		@ args = 8, pretend = 0, frame = 0
 607              		@ frame_needed = 0, uses_anonymous_args = 0
 608              	.LVL84:
 609 0000 2DE9F047 		push	{r4, r5, r6, r7, r8, r9, r10, lr}
 610              	.LCFI15:
 611              		.cfi_def_cfa_offset 32
 612              		.cfi_offset 4, -32
 613              		.cfi_offset 5, -28
 614              		.cfi_offset 6, -24
 615              		.cfi_offset 7, -20
 616              		.cfi_offset 8, -16
 617              		.cfi_offset 9, -12
 618              		.cfi_offset 10, -8
 619              		.cfi_offset 14, -4
 620 0004 82B0     		sub	sp, sp, #8
 621              	.LCFI16:
 622              		.cfi_def_cfa_offset 40
 623 0006 8246     		mov	r10, r0
 624 0008 8946     		mov	r9, r1
 625 000a 1546     		mov	r5, r2
 626 000c 1F46     		mov	r7, r3
 627 000e BDF82840 		ldrh	r4, [sp, #40]
 628 0012 0B9E     		ldr	r6, [sp, #44]
 629              	.LVL85:
 200:u8g2_lib/u8g2_bitmap.c ****   u8g2_uint_t blen;
 201:u8g2_lib/u8g2_bitmap.c ****   blen = w;
 202:u8g2_lib/u8g2_bitmap.c ****   blen += 7;
 630              		.loc 1 202 0
 631 0014 03F10708 		add	r8, r3, #7
 632              	.LVL86:
 203:u8g2_lib/u8g2_bitmap.c ****   blen >>= 3;
 633              		.loc 1 203 0
 634 0018 C8F3CC08 		ubfx	r8, r8, #3, #13
 635              	.LVL87:
 204:u8g2_lib/u8g2_bitmap.c **** #ifdef U8G2_WITH_INTERSECTION
 205:u8g2_lib/u8g2_bitmap.c ****   if ( u8g2_IsIntersection(u8g2, x, y, x+w, y+h) == 0 ) 
 636              		.loc 1 205 0
 637 001c 03EB010E 		add	lr, r3, r1
 638 0020 1319     		adds	r3, r2, r4
 639              	.LVL88:
 640 0022 9BB2     		uxth	r3, r3
 641 0024 0093     		str	r3, [sp]
 642 0026 1FFA8EF3 		uxth	r3, lr
 643 002a FFF7FEFF 		bl	u8g2_IsIntersection
 644              	.LVL89:
 645 002e 60B9     		cbnz	r0, .L38
 646 0030 0DE0     		b	.L36
 647              	.LVL90:
 648              	.L39:
 206:u8g2_lib/u8g2_bitmap.c ****     return;
 207:u8g2_lib/u8g2_bitmap.c **** #endif /* U8G2_WITH_INTERSECTION */
 208:u8g2_lib/u8g2_bitmap.c ****   
 209:u8g2_lib/u8g2_bitmap.c ****   while( h > 0 )
 210:u8g2_lib/u8g2_bitmap.c ****   {
 211:u8g2_lib/u8g2_bitmap.c ****     u8g2_DrawHXBMP(u8g2, x, y, w, bitmap);
 649              		.loc 1 211 0
ARM GAS  C:\Users\master\AppData\Local\Temp\cczWtrGk.s 			page 16


 650 0032 0096     		str	r6, [sp]
 651 0034 3B46     		mov	r3, r7
 652 0036 2A46     		mov	r2, r5
 653 0038 4946     		mov	r1, r9
 654 003a 5046     		mov	r0, r10
 655 003c FFF7FEFF 		bl	u8g2_DrawHXBMP
 656              	.LVL91:
 212:u8g2_lib/u8g2_bitmap.c ****     bitmap += blen;
 657              		.loc 1 212 0
 658 0040 4644     		add	r6, r6, r8
 659              	.LVL92:
 213:u8g2_lib/u8g2_bitmap.c ****     y++;
 660              		.loc 1 213 0
 661 0042 0135     		adds	r5, r5, #1
 662              	.LVL93:
 663 0044 ADB2     		uxth	r5, r5
 664              	.LVL94:
 214:u8g2_lib/u8g2_bitmap.c ****     h--;
 665              		.loc 1 214 0
 666 0046 013C     		subs	r4, r4, #1
 667              	.LVL95:
 668 0048 A4B2     		uxth	r4, r4
 669              	.LVL96:
 670              	.L38:
 209:u8g2_lib/u8g2_bitmap.c ****   {
 671              		.loc 1 209 0
 672 004a 002C     		cmp	r4, #0
 673 004c F1D1     		bne	.L39
 674              	.LVL97:
 675              	.L36:
 215:u8g2_lib/u8g2_bitmap.c ****   }
 216:u8g2_lib/u8g2_bitmap.c **** }
 676              		.loc 1 216 0
 677 004e 02B0     		add	sp, sp, #8
 678              	.LCFI17:
 679              		.cfi_def_cfa_offset 32
 680              		@ sp needed
 681 0050 BDE8F087 		pop	{r4, r5, r6, r7, r8, r9, r10, pc}
 682              		.cfi_endproc
 683              	.LFE6:
 685              		.text
 686              	.Letext0:
 687              		.file 2 "c:\\program files (x86)\\gnu tools arm embedded\\5.4 2016q3\\arm-none-eabi\\include\\mach
 688              		.file 3 "c:\\program files (x86)\\gnu tools arm embedded\\5.4 2016q3\\arm-none-eabi\\include\\sys\
 689              		.file 4 "u8g2_lib/u8x8.h"
 690              		.file 5 "u8g2_lib/u8g2.h"
ARM GAS  C:\Users\master\AppData\Local\Temp\cczWtrGk.s 			page 17

