ARM GAS  C:\Users\master\AppData\Local\Temp\ccvcrGDg.s 			page 1


   1              		.syntax unified
   2              		.cpu cortex-m4
   3              		.eabi_attribute 27, 1
   4              		.eabi_attribute 28, 1
   5              		.fpu fpv4-sp-d16
   6              		.eabi_attribute 20, 1
   7              		.eabi_attribute 21, 1
   8              		.eabi_attribute 23, 3
   9              		.eabi_attribute 24, 1
  10              		.eabi_attribute 25, 1
  11              		.eabi_attribute 26, 1
  12              		.eabi_attribute 30, 1
  13              		.eabi_attribute 34, 1
  14              		.eabi_attribute 18, 4
  15              		.thumb
  16              		.syntax unified
  17              		.file	"u8g_rect.c"
  18              		.text
  19              	.Ltext0:
  20              		.cfi_sections	.debug_frame
  21              		.section	.text.u8g_draw_hline,"ax",%progbits
  22              		.align	2
  23              		.global	u8g_draw_hline
  24              		.thumb
  25              		.thumb_func
  27              	u8g_draw_hline:
  28              	.LFB0:
  29              		.file 1 "u8glib/u8g_rect.c"
   1:u8glib/u8g_rect.c **** /*
   2:u8glib/u8g_rect.c **** 
   3:u8glib/u8g_rect.c ****   u8g_rect.c
   4:u8glib/u8g_rect.c ****   
   5:u8glib/u8g_rect.c ****   U8G high level interface for horizontal and vertical things
   6:u8glib/u8g_rect.c **** 
   7:u8glib/u8g_rect.c ****   Universal 8bit Graphics Library
   8:u8glib/u8g_rect.c ****   
   9:u8glib/u8g_rect.c ****   Copyright (c) 2011, olikraus@gmail.com
  10:u8glib/u8g_rect.c ****   All rights reserved.
  11:u8glib/u8g_rect.c **** 
  12:u8glib/u8g_rect.c ****   Redistribution and use in source and binary forms, with or without modification, 
  13:u8glib/u8g_rect.c ****   are permitted provided that the following conditions are met:
  14:u8glib/u8g_rect.c **** 
  15:u8glib/u8g_rect.c ****   * Redistributions of source code must retain the above copyright notice, this list 
  16:u8glib/u8g_rect.c ****     of conditions and the following disclaimer.
  17:u8glib/u8g_rect.c ****     
  18:u8glib/u8g_rect.c ****   * Redistributions in binary form must reproduce the above copyright notice, this 
  19:u8glib/u8g_rect.c ****     list of conditions and the following disclaimer in the documentation and/or other 
  20:u8glib/u8g_rect.c ****     materials provided with the distribution.
  21:u8glib/u8g_rect.c **** 
  22:u8glib/u8g_rect.c ****   THIS SOFTWARE IS PROVIDED BY THE COPYRIGHT HOLDERS AND 
  23:u8glib/u8g_rect.c ****   CONTRIBUTORS "AS IS" AND ANY EXPRESS OR IMPLIED WARRANTIES, 
  24:u8glib/u8g_rect.c ****   INCLUDING, BUT NOT LIMITED TO, THE IMPLIED WARRANTIES OF 
  25:u8glib/u8g_rect.c ****   MERCHANTABILITY AND FITNESS FOR A PARTICULAR PURPOSE ARE 
  26:u8glib/u8g_rect.c ****   DISCLAIMED. IN NO EVENT SHALL THE COPYRIGHT HOLDER OR 
  27:u8glib/u8g_rect.c ****   CONTRIBUTORS BE LIABLE FOR ANY DIRECT, INDIRECT, INCIDENTAL, 
  28:u8glib/u8g_rect.c ****   SPECIAL, EXEMPLARY, OR CONSEQUENTIAL DAMAGES (INCLUDING, BUT 
  29:u8glib/u8g_rect.c ****   NOT LIMITED TO, PROCUREMENT OF SUBSTITUTE GOODS OR SERVICES; 
ARM GAS  C:\Users\master\AppData\Local\Temp\ccvcrGDg.s 			page 2


  30:u8glib/u8g_rect.c ****   LOSS OF USE, DATA, OR PROFITS; OR BUSINESS INTERRUPTION) HOWEVER 
  31:u8glib/u8g_rect.c ****   CAUSED AND ON ANY THEORY OF LIABILITY, WHETHER IN CONTRACT, 
  32:u8glib/u8g_rect.c ****   STRICT LIABILITY, OR TORT (INCLUDING NEGLIGENCE OR OTHERWISE) 
  33:u8glib/u8g_rect.c ****   ARISING IN ANY WAY OUT OF THE USE OF THIS SOFTWARE, EVEN IF 
  34:u8glib/u8g_rect.c ****   ADVISED OF THE POSSIBILITY OF SUCH DAMAGE.  
  35:u8glib/u8g_rect.c ****   
  36:u8glib/u8g_rect.c ****   
  37:u8glib/u8g_rect.c **** */
  38:u8glib/u8g_rect.c **** 
  39:u8glib/u8g_rect.c **** #include "u8g.h"
  40:u8glib/u8g_rect.c **** 
  41:u8glib/u8g_rect.c **** void u8g_draw_hline(u8g_t *u8g, u8g_uint_t x, u8g_uint_t y, u8g_uint_t w)
  42:u8glib/u8g_rect.c **** {
  30              		.loc 1 42 0
  31              		.cfi_startproc
  32              		@ args = 0, pretend = 0, frame = 0
  33              		@ frame_needed = 0, uses_anonymous_args = 0
  34              	.LVL0:
  35 0000 F0B5     		push	{r4, r5, r6, r7, lr}
  36              	.LCFI0:
  37              		.cfi_def_cfa_offset 20
  38              		.cfi_offset 4, -20
  39              		.cfi_offset 5, -16
  40              		.cfi_offset 6, -12
  41              		.cfi_offset 7, -8
  42              		.cfi_offset 14, -4
  43 0002 83B0     		sub	sp, sp, #12
  44              	.LCFI1:
  45              		.cfi_def_cfa_offset 32
  46 0004 0646     		mov	r6, r0
  47 0006 0D46     		mov	r5, r1
  48 0008 1746     		mov	r7, r2
  49 000a 1C46     		mov	r4, r3
  50              	.LVL1:
  43:u8glib/u8g_rect.c ****   uint8_t pixel = 0x0ff;
  44:u8glib/u8g_rect.c ****   while( w >= 8 )
  51              		.loc 1 44 0
  52 000c 0BE0     		b	.L2
  53              	.LVL2:
  54              	.L3:
  45:u8glib/u8g_rect.c ****   {
  46:u8glib/u8g_rect.c ****     u8g_Draw8Pixel(u8g, x, y, 0, pixel);
  55              		.loc 1 46 0
  56 000e FF23     		movs	r3, #255
  57 0010 0093     		str	r3, [sp]
  58 0012 0023     		movs	r3, #0
  59 0014 3A46     		mov	r2, r7
  60 0016 2946     		mov	r1, r5
  61 0018 3046     		mov	r0, r6
  62 001a FFF7FEFF 		bl	u8g_Draw8Pixel
  63              	.LVL3:
  47:u8glib/u8g_rect.c ****     w-=8;
  64              		.loc 1 47 0
  65 001e 083C     		subs	r4, r4, #8
  66              	.LVL4:
  67 0020 E4B2     		uxtb	r4, r4
  68              	.LVL5:
ARM GAS  C:\Users\master\AppData\Local\Temp\ccvcrGDg.s 			page 3


  48:u8glib/u8g_rect.c ****     x+=8;
  69              		.loc 1 48 0
  70 0022 0835     		adds	r5, r5, #8
  71              	.LVL6:
  72 0024 EDB2     		uxtb	r5, r5
  73              	.LVL7:
  74              	.L2:
  44:u8glib/u8g_rect.c ****   {
  75              		.loc 1 44 0
  76 0026 072C     		cmp	r4, #7
  77 0028 F1D8     		bhi	.L3
  49:u8glib/u8g_rect.c ****   }
  50:u8glib/u8g_rect.c ****   if ( w != 0 )
  78              		.loc 1 50 0
  79 002a 7CB1     		cbz	r4, .L1
  51:u8glib/u8g_rect.c ****   {
  52:u8glib/u8g_rect.c ****     w ^=7;
  80              		.loc 1 52 0
  81 002c 84F00703 		eor	r3, r4, #7
  82              	.LVL8:
  53:u8glib/u8g_rect.c ****     w++;
  83              		.loc 1 53 0
  84 0030 0133     		adds	r3, r3, #1
  85              	.LVL9:
  54:u8glib/u8g_rect.c ****     pixel <<= w&7;
  86              		.loc 1 54 0
  87 0032 03F00703 		and	r3, r3, #7
  88              	.LVL10:
  89 0036 FF22     		movs	r2, #255
  90 0038 02FA03F3 		lsl	r3, r2, r3
  91 003c DBB2     		uxtb	r3, r3
  92              	.LVL11:
  55:u8glib/u8g_rect.c ****     u8g_Draw8Pixel(u8g, x, y, 0, pixel);
  93              		.loc 1 55 0
  94 003e 0093     		str	r3, [sp]
  95 0040 0023     		movs	r3, #0
  96              	.LVL12:
  97 0042 3A46     		mov	r2, r7
  98 0044 2946     		mov	r1, r5
  99 0046 3046     		mov	r0, r6
 100 0048 FFF7FEFF 		bl	u8g_Draw8Pixel
 101              	.LVL13:
 102              	.L1:
  56:u8glib/u8g_rect.c ****   }
  57:u8glib/u8g_rect.c **** }
 103              		.loc 1 57 0
 104 004c 03B0     		add	sp, sp, #12
 105              	.LCFI2:
 106              		.cfi_def_cfa_offset 20
 107              		@ sp needed
 108 004e F0BD     		pop	{r4, r5, r6, r7, pc}
 109              		.cfi_endproc
 110              	.LFE0:
 112              		.section	.text.u8g_draw_vline,"ax",%progbits
 113              		.align	2
 114              		.global	u8g_draw_vline
 115              		.thumb
ARM GAS  C:\Users\master\AppData\Local\Temp\ccvcrGDg.s 			page 4


 116              		.thumb_func
 118              	u8g_draw_vline:
 119              	.LFB1:
  58:u8glib/u8g_rect.c **** 
  59:u8glib/u8g_rect.c **** void u8g_draw_vline(u8g_t *u8g, u8g_uint_t x, u8g_uint_t y, u8g_uint_t h)
  60:u8glib/u8g_rect.c **** {
 120              		.loc 1 60 0
 121              		.cfi_startproc
 122              		@ args = 0, pretend = 0, frame = 0
 123              		@ frame_needed = 0, uses_anonymous_args = 0
 124              	.LVL14:
 125 0000 F0B5     		push	{r4, r5, r6, r7, lr}
 126              	.LCFI3:
 127              		.cfi_def_cfa_offset 20
 128              		.cfi_offset 4, -20
 129              		.cfi_offset 5, -16
 130              		.cfi_offset 6, -12
 131              		.cfi_offset 7, -8
 132              		.cfi_offset 14, -4
 133 0002 83B0     		sub	sp, sp, #12
 134              	.LCFI4:
 135              		.cfi_def_cfa_offset 32
 136 0004 0646     		mov	r6, r0
 137 0006 0F46     		mov	r7, r1
 138 0008 1546     		mov	r5, r2
 139 000a 1C46     		mov	r4, r3
 140              	.LVL15:
  61:u8glib/u8g_rect.c ****   uint8_t pixel = 0x0ff;
  62:u8glib/u8g_rect.c ****   while( h >= 8 )
 141              		.loc 1 62 0
 142 000c 0BE0     		b	.L7
 143              	.LVL16:
 144              	.L8:
  63:u8glib/u8g_rect.c ****   {
  64:u8glib/u8g_rect.c ****     u8g_Draw8Pixel(u8g, x, y, 1, pixel);
 145              		.loc 1 64 0
 146 000e FF23     		movs	r3, #255
 147 0010 0093     		str	r3, [sp]
 148 0012 0123     		movs	r3, #1
 149 0014 2A46     		mov	r2, r5
 150 0016 3946     		mov	r1, r7
 151 0018 3046     		mov	r0, r6
 152 001a FFF7FEFF 		bl	u8g_Draw8Pixel
 153              	.LVL17:
  65:u8glib/u8g_rect.c ****     h-=8;
 154              		.loc 1 65 0
 155 001e 083C     		subs	r4, r4, #8
 156              	.LVL18:
 157 0020 E4B2     		uxtb	r4, r4
 158              	.LVL19:
  66:u8glib/u8g_rect.c ****     y+=8;
 159              		.loc 1 66 0
 160 0022 0835     		adds	r5, r5, #8
 161              	.LVL20:
 162 0024 EDB2     		uxtb	r5, r5
 163              	.LVL21:
 164              	.L7:
ARM GAS  C:\Users\master\AppData\Local\Temp\ccvcrGDg.s 			page 5


  62:u8glib/u8g_rect.c ****   {
 165              		.loc 1 62 0
 166 0026 072C     		cmp	r4, #7
 167 0028 F1D8     		bhi	.L8
  67:u8glib/u8g_rect.c ****   }
  68:u8glib/u8g_rect.c ****   if ( h != 0 )
 168              		.loc 1 68 0
 169 002a 7CB1     		cbz	r4, .L6
  69:u8glib/u8g_rect.c ****   {
  70:u8glib/u8g_rect.c ****     h ^=7;
 170              		.loc 1 70 0
 171 002c 84F00703 		eor	r3, r4, #7
 172              	.LVL22:
  71:u8glib/u8g_rect.c ****     h++;
 173              		.loc 1 71 0
 174 0030 0133     		adds	r3, r3, #1
 175              	.LVL23:
  72:u8glib/u8g_rect.c ****     pixel <<= h&7;
 176              		.loc 1 72 0
 177 0032 03F00703 		and	r3, r3, #7
 178              	.LVL24:
 179 0036 FF22     		movs	r2, #255
 180 0038 02FA03F3 		lsl	r3, r2, r3
 181 003c DBB2     		uxtb	r3, r3
 182              	.LVL25:
  73:u8glib/u8g_rect.c ****     u8g_Draw8Pixel(u8g, x, y, 1, pixel);
 183              		.loc 1 73 0
 184 003e 0093     		str	r3, [sp]
 185 0040 0123     		movs	r3, #1
 186              	.LVL26:
 187 0042 2A46     		mov	r2, r5
 188 0044 3946     		mov	r1, r7
 189 0046 3046     		mov	r0, r6
 190 0048 FFF7FEFF 		bl	u8g_Draw8Pixel
 191              	.LVL27:
 192              	.L6:
  74:u8glib/u8g_rect.c ****   }
  75:u8glib/u8g_rect.c **** }
 193              		.loc 1 75 0
 194 004c 03B0     		add	sp, sp, #12
 195              	.LCFI5:
 196              		.cfi_def_cfa_offset 20
 197              		@ sp needed
 198 004e F0BD     		pop	{r4, r5, r6, r7, pc}
 199              		.cfi_endproc
 200              	.LFE1:
 202              		.section	.text.u8g_DrawHLine,"ax",%progbits
 203              		.align	2
 204              		.global	u8g_DrawHLine
 205              		.thumb
 206              		.thumb_func
 208              	u8g_DrawHLine:
 209              	.LFB2:
  76:u8glib/u8g_rect.c **** 
  77:u8glib/u8g_rect.c **** void u8g_DrawHLine(u8g_t *u8g, u8g_uint_t x, u8g_uint_t y, u8g_uint_t w)
  78:u8glib/u8g_rect.c **** {
 210              		.loc 1 78 0
ARM GAS  C:\Users\master\AppData\Local\Temp\ccvcrGDg.s 			page 6


 211              		.cfi_startproc
 212              		@ args = 0, pretend = 0, frame = 0
 213              		@ frame_needed = 0, uses_anonymous_args = 0
 214              	.LVL28:
 215 0000 2DE9F041 		push	{r4, r5, r6, r7, r8, lr}
 216              	.LCFI6:
 217              		.cfi_def_cfa_offset 24
 218              		.cfi_offset 4, -24
 219              		.cfi_offset 5, -20
 220              		.cfi_offset 6, -16
 221              		.cfi_offset 7, -12
 222              		.cfi_offset 8, -8
 223              		.cfi_offset 14, -4
 224 0004 82B0     		sub	sp, sp, #8
 225              	.LCFI7:
 226              		.cfi_def_cfa_offset 32
 227 0006 0546     		mov	r5, r0
 228 0008 0E46     		mov	r6, r1
 229 000a 1746     		mov	r7, r2
 230 000c 9846     		mov	r8, r3
  79:u8glib/u8g_rect.c ****   if ( u8g_IsBBXIntersection(u8g, x, y, w, 1) == 0 )
 231              		.loc 1 79 0
 232 000e 0124     		movs	r4, #1
 233 0010 0094     		str	r4, [sp]
 234 0012 FFF7FEFF 		bl	u8g_IsBBXIntersection
 235              	.LVL29:
 236 0016 28B1     		cbz	r0, .L11
  80:u8glib/u8g_rect.c ****     return;
  81:u8glib/u8g_rect.c ****   u8g_draw_hline(u8g, x, y, w);
 237              		.loc 1 81 0
 238 0018 4346     		mov	r3, r8
 239 001a 3A46     		mov	r2, r7
 240 001c 3146     		mov	r1, r6
 241 001e 2846     		mov	r0, r5
 242 0020 FFF7FEFF 		bl	u8g_draw_hline
 243              	.LVL30:
 244              	.L11:
  82:u8glib/u8g_rect.c **** }
 245              		.loc 1 82 0
 246 0024 02B0     		add	sp, sp, #8
 247              	.LCFI8:
 248              		.cfi_def_cfa_offset 24
 249              		@ sp needed
 250 0026 BDE8F081 		pop	{r4, r5, r6, r7, r8, pc}
 251              		.cfi_endproc
 252              	.LFE2:
 254 002a 00BF     		.section	.text.u8g_DrawVLine,"ax",%progbits
 255              		.align	2
 256              		.global	u8g_DrawVLine
 257              		.thumb
 258              		.thumb_func
 260              	u8g_DrawVLine:
 261              	.LFB3:
  83:u8glib/u8g_rect.c **** 
  84:u8glib/u8g_rect.c **** void u8g_DrawVLine(u8g_t *u8g, u8g_uint_t x, u8g_uint_t y, u8g_uint_t w)
  85:u8glib/u8g_rect.c **** {
 262              		.loc 1 85 0
ARM GAS  C:\Users\master\AppData\Local\Temp\ccvcrGDg.s 			page 7


 263              		.cfi_startproc
 264              		@ args = 0, pretend = 0, frame = 0
 265              		@ frame_needed = 0, uses_anonymous_args = 0
 266              	.LVL31:
 267 0000 F0B5     		push	{r4, r5, r6, r7, lr}
 268              	.LCFI9:
 269              		.cfi_def_cfa_offset 20
 270              		.cfi_offset 4, -20
 271              		.cfi_offset 5, -16
 272              		.cfi_offset 6, -12
 273              		.cfi_offset 7, -8
 274              		.cfi_offset 14, -4
 275 0002 83B0     		sub	sp, sp, #12
 276              	.LCFI10:
 277              		.cfi_def_cfa_offset 32
 278 0004 0546     		mov	r5, r0
 279 0006 0E46     		mov	r6, r1
 280 0008 1746     		mov	r7, r2
 281 000a 1C46     		mov	r4, r3
  86:u8glib/u8g_rect.c ****   if ( u8g_IsBBXIntersection(u8g, x, y, 1, w) == 0 )
 282              		.loc 1 86 0
 283 000c 0093     		str	r3, [sp]
 284 000e 0123     		movs	r3, #1
 285              	.LVL32:
 286 0010 FFF7FEFF 		bl	u8g_IsBBXIntersection
 287              	.LVL33:
 288 0014 28B1     		cbz	r0, .L14
  87:u8glib/u8g_rect.c ****     return;
  88:u8glib/u8g_rect.c ****   u8g_draw_vline(u8g, x, y, w);
 289              		.loc 1 88 0
 290 0016 2346     		mov	r3, r4
 291 0018 3A46     		mov	r2, r7
 292 001a 3146     		mov	r1, r6
 293 001c 2846     		mov	r0, r5
 294 001e FFF7FEFF 		bl	u8g_draw_vline
 295              	.LVL34:
 296              	.L14:
  89:u8glib/u8g_rect.c **** }
 297              		.loc 1 89 0
 298 0022 03B0     		add	sp, sp, #12
 299              	.LCFI11:
 300              		.cfi_def_cfa_offset 20
 301              		@ sp needed
 302 0024 F0BD     		pop	{r4, r5, r6, r7, pc}
 303              		.cfi_endproc
 304              	.LFE3:
 306 0026 00BF     		.section	.text.u8g_DrawFrame,"ax",%progbits
 307              		.align	2
 308              		.global	u8g_DrawFrame
 309              		.thumb
 310              		.thumb_func
 312              	u8g_DrawFrame:
 313              	.LFB4:
  90:u8glib/u8g_rect.c **** 
  91:u8glib/u8g_rect.c **** /* restrictions: w > 0 && h > 0 */
  92:u8glib/u8g_rect.c **** void u8g_DrawFrame(u8g_t *u8g, u8g_uint_t x, u8g_uint_t y, u8g_uint_t w, u8g_uint_t h)
  93:u8glib/u8g_rect.c **** {
ARM GAS  C:\Users\master\AppData\Local\Temp\ccvcrGDg.s 			page 8


 314              		.loc 1 93 0
 315              		.cfi_startproc
 316              		@ args = 4, pretend = 0, frame = 0
 317              		@ frame_needed = 0, uses_anonymous_args = 0
 318              	.LVL35:
 319 0000 2DE9F041 		push	{r4, r5, r6, r7, r8, lr}
 320              	.LCFI12:
 321              		.cfi_def_cfa_offset 24
 322              		.cfi_offset 4, -24
 323              		.cfi_offset 5, -20
 324              		.cfi_offset 6, -16
 325              		.cfi_offset 7, -12
 326              		.cfi_offset 8, -8
 327              		.cfi_offset 14, -4
 328 0004 82B0     		sub	sp, sp, #8
 329              	.LCFI13:
 330              		.cfi_def_cfa_offset 32
 331 0006 0546     		mov	r5, r0
 332 0008 0E46     		mov	r6, r1
 333 000a 1746     		mov	r7, r2
 334 000c 9846     		mov	r8, r3
 335 000e 9DF82040 		ldrb	r4, [sp, #32]	@ zero_extendqisi2
 336              	.LVL36:
  94:u8glib/u8g_rect.c ****   u8g_uint_t xtmp = x;
  95:u8glib/u8g_rect.c ****   
  96:u8glib/u8g_rect.c ****   if ( u8g_IsBBXIntersection(u8g, x, y, w, h) == 0 )
 337              		.loc 1 96 0
 338 0012 0094     		str	r4, [sp]
 339 0014 FFF7FEFF 		bl	u8g_IsBBXIntersection
 340              	.LVL37:
 341 0018 F0B1     		cbz	r0, .L17
  97:u8glib/u8g_rect.c ****     return;
  98:u8glib/u8g_rect.c **** 
  99:u8glib/u8g_rect.c ****   
 100:u8glib/u8g_rect.c ****   u8g_draw_hline(u8g, x, y, w);
 342              		.loc 1 100 0
 343 001a 4346     		mov	r3, r8
 344 001c 3A46     		mov	r2, r7
 345 001e 3146     		mov	r1, r6
 346 0020 2846     		mov	r0, r5
 347 0022 FFF7FEFF 		bl	u8g_draw_hline
 348              	.LVL38:
 101:u8glib/u8g_rect.c ****   u8g_draw_vline(u8g, x, y, h);
 349              		.loc 1 101 0
 350 0026 2346     		mov	r3, r4
 351 0028 3A46     		mov	r2, r7
 352 002a 3146     		mov	r1, r6
 353 002c 2846     		mov	r0, r5
 354 002e FFF7FEFF 		bl	u8g_draw_vline
 355              	.LVL39:
 102:u8glib/u8g_rect.c ****   x+=w;
 356              		.loc 1 102 0
 357 0032 06EB0801 		add	r1, r6, r8
 358 0036 C9B2     		uxtb	r1, r1
 359              	.LVL40:
 103:u8glib/u8g_rect.c ****   x--;
 360              		.loc 1 103 0
ARM GAS  C:\Users\master\AppData\Local\Temp\ccvcrGDg.s 			page 9


 361 0038 0139     		subs	r1, r1, #1
 362              	.LVL41:
 104:u8glib/u8g_rect.c ****   u8g_draw_vline(u8g, x, y, h);
 363              		.loc 1 104 0
 364 003a 2346     		mov	r3, r4
 365 003c 3A46     		mov	r2, r7
 366 003e C9B2     		uxtb	r1, r1
 367 0040 2846     		mov	r0, r5
 368 0042 FFF7FEFF 		bl	u8g_draw_vline
 369              	.LVL42:
 105:u8glib/u8g_rect.c ****   y+=h;
 370              		.loc 1 105 0
 371 0046 3A19     		adds	r2, r7, r4
 372 0048 D2B2     		uxtb	r2, r2
 373              	.LVL43:
 106:u8glib/u8g_rect.c ****   y--;
 374              		.loc 1 106 0
 375 004a 013A     		subs	r2, r2, #1
 376              	.LVL44:
 107:u8glib/u8g_rect.c ****   u8g_draw_hline(u8g, xtmp, y, w);
 377              		.loc 1 107 0
 378 004c 4346     		mov	r3, r8
 379 004e D2B2     		uxtb	r2, r2
 380 0050 3146     		mov	r1, r6
 381 0052 2846     		mov	r0, r5
 382 0054 FFF7FEFF 		bl	u8g_draw_hline
 383              	.LVL45:
 384              	.L17:
 108:u8glib/u8g_rect.c **** }
 385              		.loc 1 108 0
 386 0058 02B0     		add	sp, sp, #8
 387              	.LCFI14:
 388              		.cfi_def_cfa_offset 24
 389              		@ sp needed
 390 005a BDE8F081 		pop	{r4, r5, r6, r7, r8, pc}
 391              		.cfi_endproc
 392              	.LFE4:
 394 005e 00BF     		.section	.text.u8g_draw_box,"ax",%progbits
 395              		.align	2
 396              		.global	u8g_draw_box
 397              		.thumb
 398              		.thumb_func
 400              	u8g_draw_box:
 401              	.LFB5:
 109:u8glib/u8g_rect.c **** 
 110:u8glib/u8g_rect.c **** void u8g_draw_box(u8g_t *u8g, u8g_uint_t x, u8g_uint_t y, u8g_uint_t w, u8g_uint_t h)
 111:u8glib/u8g_rect.c **** {
 402              		.loc 1 111 0
 403              		.cfi_startproc
 404              		@ args = 4, pretend = 0, frame = 0
 405              		@ frame_needed = 0, uses_anonymous_args = 0
 406              	.LVL46:
 407 0000 2DE9F041 		push	{r4, r5, r6, r7, r8, lr}
 408              	.LCFI15:
 409              		.cfi_def_cfa_offset 24
 410              		.cfi_offset 4, -24
 411              		.cfi_offset 5, -20
ARM GAS  C:\Users\master\AppData\Local\Temp\ccvcrGDg.s 			page 10


 412              		.cfi_offset 6, -16
 413              		.cfi_offset 7, -12
 414              		.cfi_offset 8, -8
 415              		.cfi_offset 14, -4
 416 0004 8046     		mov	r8, r0
 417 0006 0F46     		mov	r7, r1
 418 0008 1546     		mov	r5, r2
 419 000a 1E46     		mov	r6, r3
 420 000c 9DF81840 		ldrb	r4, [sp, #24]	@ zero_extendqisi2
 421              	.LVL47:
 422              	.L21:
 112:u8glib/u8g_rect.c ****   do
 113:u8glib/u8g_rect.c ****   { 
 114:u8glib/u8g_rect.c ****     u8g_draw_hline(u8g, x, y, w);
 423              		.loc 1 114 0 discriminator 1
 424 0010 3346     		mov	r3, r6
 425 0012 2A46     		mov	r2, r5
 426 0014 3946     		mov	r1, r7
 427 0016 4046     		mov	r0, r8
 428 0018 FFF7FEFF 		bl	u8g_draw_hline
 429              	.LVL48:
 115:u8glib/u8g_rect.c ****     y++;    
 430              		.loc 1 115 0 discriminator 1
 431 001c 0135     		adds	r5, r5, #1
 432              	.LVL49:
 433 001e EDB2     		uxtb	r5, r5
 434              	.LVL50:
 116:u8glib/u8g_rect.c ****     h--;
 435              		.loc 1 116 0 discriminator 1
 436 0020 631E     		subs	r3, r4, #1
 437              	.LVL51:
 117:u8glib/u8g_rect.c ****   } while( h != 0 );
 438              		.loc 1 117 0 discriminator 1
 439 0022 13F0FF04 		ands	r4, r3, #255
 440 0026 F3D1     		bne	.L21
 118:u8glib/u8g_rect.c **** }
 441              		.loc 1 118 0
 442 0028 BDE8F081 		pop	{r4, r5, r6, r7, r8, pc}
 443              		.cfi_endproc
 444              	.LFE5:
 446              		.section	.text.u8g_DrawBox,"ax",%progbits
 447              		.align	2
 448              		.global	u8g_DrawBox
 449              		.thumb
 450              		.thumb_func
 452              	u8g_DrawBox:
 453              	.LFB6:
 119:u8glib/u8g_rect.c **** 
 120:u8glib/u8g_rect.c **** /* restrictions: h > 0 */
 121:u8glib/u8g_rect.c **** void u8g_DrawBox(u8g_t *u8g, u8g_uint_t x, u8g_uint_t y, u8g_uint_t w, u8g_uint_t h)
 122:u8glib/u8g_rect.c **** {
 454              		.loc 1 122 0
 455              		.cfi_startproc
 456              		@ args = 4, pretend = 0, frame = 0
 457              		@ frame_needed = 0, uses_anonymous_args = 0
 458              	.LVL52:
 459 0000 2DE9F041 		push	{r4, r5, r6, r7, r8, lr}
ARM GAS  C:\Users\master\AppData\Local\Temp\ccvcrGDg.s 			page 11


 460              	.LCFI16:
 461              		.cfi_def_cfa_offset 24
 462              		.cfi_offset 4, -24
 463              		.cfi_offset 5, -20
 464              		.cfi_offset 6, -16
 465              		.cfi_offset 7, -12
 466              		.cfi_offset 8, -8
 467              		.cfi_offset 14, -4
 468 0004 82B0     		sub	sp, sp, #8
 469              	.LCFI17:
 470              		.cfi_def_cfa_offset 32
 471 0006 0546     		mov	r5, r0
 472 0008 0E46     		mov	r6, r1
 473 000a 1746     		mov	r7, r2
 474 000c 9846     		mov	r8, r3
 475 000e 9DF82040 		ldrb	r4, [sp, #32]	@ zero_extendqisi2
 123:u8glib/u8g_rect.c ****   if ( u8g_IsBBXIntersection(u8g, x, y, w, h) == 0 )
 476              		.loc 1 123 0
 477 0012 0094     		str	r4, [sp]
 478 0014 FFF7FEFF 		bl	u8g_IsBBXIntersection
 479              	.LVL53:
 480 0018 30B1     		cbz	r0, .L23
 124:u8glib/u8g_rect.c ****     return;
 125:u8glib/u8g_rect.c ****   u8g_draw_box(u8g, x, y, w, h);
 481              		.loc 1 125 0
 482 001a 0094     		str	r4, [sp]
 483 001c 4346     		mov	r3, r8
 484 001e 3A46     		mov	r2, r7
 485 0020 3146     		mov	r1, r6
 486 0022 2846     		mov	r0, r5
 487 0024 FFF7FEFF 		bl	u8g_draw_box
 488              	.LVL54:
 489              	.L23:
 126:u8glib/u8g_rect.c **** }
 490              		.loc 1 126 0
 491 0028 02B0     		add	sp, sp, #8
 492              	.LCFI18:
 493              		.cfi_def_cfa_offset 24
 494              		@ sp needed
 495 002a BDE8F081 		pop	{r4, r5, r6, r7, r8, pc}
 496              		.cfi_endproc
 497              	.LFE6:
 499 002e 00BF     		.section	.text.u8g_DrawRFrame,"ax",%progbits
 500              		.align	2
 501              		.global	u8g_DrawRFrame
 502              		.thumb
 503              		.thumb_func
 505              	u8g_DrawRFrame:
 506              	.LFB7:
 127:u8glib/u8g_rect.c **** 
 128:u8glib/u8g_rect.c **** 
 129:u8glib/u8g_rect.c **** void u8g_DrawRFrame(u8g_t *u8g, u8g_uint_t x, u8g_uint_t y, u8g_uint_t w, u8g_uint_t h, u8g_uint_t 
 130:u8glib/u8g_rect.c **** {
 507              		.loc 1 130 0
 508              		.cfi_startproc
 509              		@ args = 8, pretend = 0, frame = 8
 510              		@ frame_needed = 0, uses_anonymous_args = 0
ARM GAS  C:\Users\master\AppData\Local\Temp\ccvcrGDg.s 			page 12


 511              	.LVL55:
 512 0000 2DE9F04F 		push	{r4, r5, r6, r7, r8, r9, r10, fp, lr}
 513              	.LCFI19:
 514              		.cfi_def_cfa_offset 36
 515              		.cfi_offset 4, -36
 516              		.cfi_offset 5, -32
 517              		.cfi_offset 6, -28
 518              		.cfi_offset 7, -24
 519              		.cfi_offset 8, -20
 520              		.cfi_offset 9, -16
 521              		.cfi_offset 10, -12
 522              		.cfi_offset 11, -8
 523              		.cfi_offset 14, -4
 524 0004 85B0     		sub	sp, sp, #20
 525              	.LCFI20:
 526              		.cfi_def_cfa_offset 56
 527 0006 0290     		str	r0, [sp, #8]
 528 0008 8946     		mov	r9, r1
 529 000a 9346     		mov	fp, r2
 530 000c 1F46     		mov	r7, r3
 531 000e 9DF83840 		ldrb	r4, [sp, #56]	@ zero_extendqisi2
 532 0012 9DF83C50 		ldrb	r5, [sp, #60]	@ zero_extendqisi2
 131:u8glib/u8g_rect.c ****   u8g_uint_t xl, yu;
 132:u8glib/u8g_rect.c **** 
 133:u8glib/u8g_rect.c ****   if ( u8g_IsBBXIntersection(u8g, x, y, w, h) == 0 )
 533              		.loc 1 133 0
 534 0016 0094     		str	r4, [sp]
 535 0018 FFF7FEFF 		bl	u8g_IsBBXIntersection
 536              	.LVL56:
 537 001c 0028     		cmp	r0, #0
 538 001e 6BD0     		beq	.L26
 539              	.LVL57:
 134:u8glib/u8g_rect.c ****     return;
 135:u8glib/u8g_rect.c **** 
 136:u8glib/u8g_rect.c ****   xl = x;
 137:u8glib/u8g_rect.c ****   xl += r;
 540              		.loc 1 137 0
 541 0020 09EB0508 		add	r8, r9, r5
 542 0024 5FFA88F8 		uxtb	r8, r8
 543              	.LVL58:
 138:u8glib/u8g_rect.c ****   yu = y;
 139:u8glib/u8g_rect.c ****   yu += r;
 544              		.loc 1 139 0
 545 0028 0BEB050A 		add	r10, fp, r5
 546 002c 5FFA8AFA 		uxtb	r10, r10
 547              	.LVL59:
 548              	.LBB2:
 140:u8glib/u8g_rect.c ****  
 141:u8glib/u8g_rect.c ****   {
 142:u8glib/u8g_rect.c ****     u8g_uint_t yl, xr;
 143:u8glib/u8g_rect.c ****       
 144:u8glib/u8g_rect.c ****     xr = x;
 145:u8glib/u8g_rect.c ****     xr += w;
 549              		.loc 1 145 0
 550 0030 09EB0703 		add	r3, r9, r7
 551 0034 DBB2     		uxtb	r3, r3
 552              	.LVL60:
ARM GAS  C:\Users\master\AppData\Local\Temp\ccvcrGDg.s 			page 13


 146:u8glib/u8g_rect.c ****     xr -= r;
 553              		.loc 1 146 0
 554 0036 5B1B     		subs	r3, r3, r5
 555              	.LVL61:
 556 0038 DBB2     		uxtb	r3, r3
 557              	.LVL62:
 147:u8glib/u8g_rect.c ****     xr -= 1;
 558              		.loc 1 147 0
 559 003a 013B     		subs	r3, r3, #1
 560              	.LVL63:
 561 003c DBB2     		uxtb	r3, r3
 562              	.LVL64:
 563 003e 0393     		str	r3, [sp, #12]
 564              	.LVL65:
 148:u8glib/u8g_rect.c ****     
 149:u8glib/u8g_rect.c ****     yl = y;
 150:u8glib/u8g_rect.c ****     yl += h;
 565              		.loc 1 150 0
 566 0040 0BEB0406 		add	r6, fp, r4
 567 0044 F6B2     		uxtb	r6, r6
 568              	.LVL66:
 151:u8glib/u8g_rect.c ****     yl -= r; 
 569              		.loc 1 151 0
 570 0046 761B     		subs	r6, r6, r5
 571              	.LVL67:
 572 0048 F6B2     		uxtb	r6, r6
 573              	.LVL68:
 152:u8glib/u8g_rect.c ****     yl -= 1;
 574              		.loc 1 152 0
 575 004a 013E     		subs	r6, r6, #1
 576              	.LVL69:
 577 004c F6B2     		uxtb	r6, r6
 578              	.LVL70:
 153:u8glib/u8g_rect.c **** 
 154:u8glib/u8g_rect.c ****     u8g_draw_circle(u8g, xl, yu, r, U8G_DRAW_UPPER_LEFT);
 579              		.loc 1 154 0
 580 004e 0223     		movs	r3, #2
 581 0050 0093     		str	r3, [sp]
 582 0052 2B46     		mov	r3, r5
 583 0054 5246     		mov	r2, r10
 584 0056 4146     		mov	r1, r8
 585 0058 0298     		ldr	r0, [sp, #8]
 586 005a FFF7FEFF 		bl	u8g_draw_circle
 587              	.LVL71:
 155:u8glib/u8g_rect.c ****     u8g_draw_circle(u8g, xr, yu, r, U8G_DRAW_UPPER_RIGHT);
 588              		.loc 1 155 0
 589 005e 0123     		movs	r3, #1
 590 0060 0093     		str	r3, [sp]
 591 0062 2B46     		mov	r3, r5
 592 0064 5246     		mov	r2, r10
 593 0066 0399     		ldr	r1, [sp, #12]
 594 0068 0298     		ldr	r0, [sp, #8]
 595 006a FFF7FEFF 		bl	u8g_draw_circle
 596              	.LVL72:
 156:u8glib/u8g_rect.c ****     u8g_draw_circle(u8g, xl, yl, r, U8G_DRAW_LOWER_LEFT);
 597              		.loc 1 156 0
 598 006e 0423     		movs	r3, #4
ARM GAS  C:\Users\master\AppData\Local\Temp\ccvcrGDg.s 			page 14


 599 0070 0093     		str	r3, [sp]
 600 0072 2B46     		mov	r3, r5
 601 0074 3246     		mov	r2, r6
 602 0076 4146     		mov	r1, r8
 603 0078 0298     		ldr	r0, [sp, #8]
 604 007a FFF7FEFF 		bl	u8g_draw_circle
 605              	.LVL73:
 157:u8glib/u8g_rect.c ****     u8g_draw_circle(u8g, xr, yl, r, U8G_DRAW_LOWER_RIGHT);
 606              		.loc 1 157 0
 607 007e 0823     		movs	r3, #8
 608 0080 0093     		str	r3, [sp]
 609 0082 2B46     		mov	r3, r5
 610 0084 3246     		mov	r2, r6
 611 0086 0399     		ldr	r1, [sp, #12]
 612 0088 0298     		ldr	r0, [sp, #8]
 613 008a FFF7FEFF 		bl	u8g_draw_circle
 614              	.LVL74:
 615              	.LBE2:
 616              	.LBB3:
 158:u8glib/u8g_rect.c ****   }
 159:u8glib/u8g_rect.c **** 
 160:u8glib/u8g_rect.c ****   {
 161:u8glib/u8g_rect.c ****     u8g_uint_t ww, hh;
 162:u8glib/u8g_rect.c **** 
 163:u8glib/u8g_rect.c ****     ww = w;
 164:u8glib/u8g_rect.c ****     ww -= r;
 617              		.loc 1 164 0
 618 008e 7E1B     		subs	r6, r7, r5
 619              	.LVL75:
 620 0090 F6B2     		uxtb	r6, r6
 621              	.LVL76:
 165:u8glib/u8g_rect.c ****     ww -= r;
 622              		.loc 1 165 0
 623 0092 761B     		subs	r6, r6, r5
 624              	.LVL77:
 625 0094 F6B2     		uxtb	r6, r6
 626              	.LVL78:
 166:u8glib/u8g_rect.c ****     ww -= 2;
 627              		.loc 1 166 0
 628 0096 023E     		subs	r6, r6, #2
 629              	.LVL79:
 630 0098 F6B2     		uxtb	r6, r6
 631              	.LVL80:
 167:u8glib/u8g_rect.c ****     hh = h;
 168:u8glib/u8g_rect.c ****     hh -= r;
 632              		.loc 1 168 0
 633 009a 631B     		subs	r3, r4, r5
 634 009c DBB2     		uxtb	r3, r3
 635              	.LVL81:
 169:u8glib/u8g_rect.c ****     hh -= r;
 636              		.loc 1 169 0
 637 009e 5D1B     		subs	r5, r3, r5
 638              	.LVL82:
 639 00a0 EDB2     		uxtb	r5, r5
 640              	.LVL83:
 170:u8glib/u8g_rect.c ****     hh -= 2;
 641              		.loc 1 170 0
ARM GAS  C:\Users\master\AppData\Local\Temp\ccvcrGDg.s 			page 15


 642 00a2 023D     		subs	r5, r5, #2
 643              	.LVL84:
 644 00a4 EDB2     		uxtb	r5, r5
 645              	.LVL85:
 171:u8glib/u8g_rect.c ****     
 172:u8glib/u8g_rect.c ****     xl++;
 646              		.loc 1 172 0
 647 00a6 08F10108 		add	r8, r8, #1
 648              	.LVL86:
 649 00aa 5FFA88F8 		uxtb	r8, r8
 650              	.LVL87:
 173:u8glib/u8g_rect.c ****     yu++;
 651              		.loc 1 173 0
 652 00ae 0AF1010A 		add	r10, r10, #1
 653              	.LVL88:
 654 00b2 5FFA8AFA 		uxtb	r10, r10
 655              	.LVL89:
 174:u8glib/u8g_rect.c ****     h--;
 656              		.loc 1 174 0
 657 00b6 013C     		subs	r4, r4, #1
 658              	.LVL90:
 659 00b8 E4B2     		uxtb	r4, r4
 660              	.LVL91:
 175:u8glib/u8g_rect.c ****     w--;
 661              		.loc 1 175 0
 662 00ba 013F     		subs	r7, r7, #1
 663 00bc FFB2     		uxtb	r7, r7
 664              	.LVL92:
 176:u8glib/u8g_rect.c ****     u8g_draw_hline(u8g, xl, y, ww);
 665              		.loc 1 176 0
 666 00be 3346     		mov	r3, r6
 667 00c0 5A46     		mov	r2, fp
 668 00c2 4146     		mov	r1, r8
 669 00c4 0298     		ldr	r0, [sp, #8]
 670 00c6 FFF7FEFF 		bl	u8g_draw_hline
 671              	.LVL93:
 177:u8glib/u8g_rect.c ****     u8g_draw_hline(u8g, xl, y+h, ww);
 672              		.loc 1 177 0
 673 00ca 0BEB0402 		add	r2, fp, r4
 674 00ce 3346     		mov	r3, r6
 675 00d0 D2B2     		uxtb	r2, r2
 676 00d2 4146     		mov	r1, r8
 677 00d4 029C     		ldr	r4, [sp, #8]
 678              	.LVL94:
 679 00d6 2046     		mov	r0, r4
 680 00d8 FFF7FEFF 		bl	u8g_draw_hline
 681              	.LVL95:
 178:u8glib/u8g_rect.c ****     u8g_draw_vline(u8g, x,         yu, hh);
 682              		.loc 1 178 0
 683 00dc 2B46     		mov	r3, r5
 684 00de 5246     		mov	r2, r10
 685 00e0 4946     		mov	r1, r9
 686 00e2 2046     		mov	r0, r4
 687 00e4 FFF7FEFF 		bl	u8g_draw_vline
 688              	.LVL96:
 179:u8glib/u8g_rect.c ****     u8g_draw_vline(u8g, x+w, yu, hh);
 689              		.loc 1 179 0
ARM GAS  C:\Users\master\AppData\Local\Temp\ccvcrGDg.s 			page 16


 690 00e8 09EB0701 		add	r1, r9, r7
 691 00ec 2B46     		mov	r3, r5
 692 00ee 5246     		mov	r2, r10
 693 00f0 C9B2     		uxtb	r1, r1
 694 00f2 2046     		mov	r0, r4
 695 00f4 FFF7FEFF 		bl	u8g_draw_vline
 696              	.LVL97:
 697              	.L26:
 698              	.LBE3:
 180:u8glib/u8g_rect.c ****   }
 181:u8glib/u8g_rect.c **** }
 699              		.loc 1 181 0
 700 00f8 05B0     		add	sp, sp, #20
 701              	.LCFI21:
 702              		.cfi_def_cfa_offset 36
 703              		@ sp needed
 704 00fa BDE8F08F 		pop	{r4, r5, r6, r7, r8, r9, r10, fp, pc}
 705              		.cfi_endproc
 706              	.LFE7:
 708 00fe 00BF     		.section	.text.u8g_DrawRBox,"ax",%progbits
 709              		.align	2
 710              		.global	u8g_DrawRBox
 711              		.thumb
 712              		.thumb_func
 714              	u8g_DrawRBox:
 715              	.LFB8:
 182:u8glib/u8g_rect.c **** 
 183:u8glib/u8g_rect.c **** void u8g_DrawRBox(u8g_t *u8g, u8g_uint_t x, u8g_uint_t y, u8g_uint_t w, u8g_uint_t h, u8g_uint_t r)
 184:u8glib/u8g_rect.c **** {
 716              		.loc 1 184 0
 717              		.cfi_startproc
 718              		@ args = 8, pretend = 0, frame = 8
 719              		@ frame_needed = 0, uses_anonymous_args = 0
 720              	.LVL98:
 721 0000 2DE9F04F 		push	{r4, r5, r6, r7, r8, r9, r10, fp, lr}
 722              	.LCFI22:
 723              		.cfi_def_cfa_offset 36
 724              		.cfi_offset 4, -36
 725              		.cfi_offset 5, -32
 726              		.cfi_offset 6, -28
 727              		.cfi_offset 7, -24
 728              		.cfi_offset 8, -20
 729              		.cfi_offset 9, -16
 730              		.cfi_offset 10, -12
 731              		.cfi_offset 11, -8
 732              		.cfi_offset 14, -4
 733 0004 85B0     		sub	sp, sp, #20
 734              	.LCFI23:
 735              		.cfi_def_cfa_offset 56
 736 0006 0290     		str	r0, [sp, #8]
 737 0008 8946     		mov	r9, r1
 738 000a 9346     		mov	fp, r2
 739 000c 9A46     		mov	r10, r3
 740 000e 9DF83850 		ldrb	r5, [sp, #56]	@ zero_extendqisi2
 741 0012 9DF83C40 		ldrb	r4, [sp, #60]	@ zero_extendqisi2
 185:u8glib/u8g_rect.c ****   u8g_uint_t xl, yu;
 186:u8glib/u8g_rect.c ****     u8g_uint_t yl, xr;
ARM GAS  C:\Users\master\AppData\Local\Temp\ccvcrGDg.s 			page 17


 187:u8glib/u8g_rect.c **** 
 188:u8glib/u8g_rect.c ****   if ( u8g_IsBBXIntersection(u8g, x, y, w, h) == 0 )
 742              		.loc 1 188 0
 743 0016 0095     		str	r5, [sp]
 744 0018 FFF7FEFF 		bl	u8g_IsBBXIntersection
 745              	.LVL99:
 746 001c 0028     		cmp	r0, #0
 747 001e 61D0     		beq	.L29
 748              	.LVL100:
 189:u8glib/u8g_rect.c ****     return;
 190:u8glib/u8g_rect.c **** 
 191:u8glib/u8g_rect.c ****   xl = x;
 192:u8glib/u8g_rect.c ****   xl += r;
 749              		.loc 1 192 0
 750 0020 09EB0407 		add	r7, r9, r4
 751 0024 FFB2     		uxtb	r7, r7
 752              	.LVL101:
 193:u8glib/u8g_rect.c ****   yu = y;
 194:u8glib/u8g_rect.c ****   yu += r;
 753              		.loc 1 194 0
 754 0026 0BEB0408 		add	r8, fp, r4
 755 002a 5FFA88F8 		uxtb	r8, r8
 756              	.LVL102:
 195:u8glib/u8g_rect.c ****  
 196:u8glib/u8g_rect.c ****   xr = x;
 197:u8glib/u8g_rect.c ****   xr += w;
 757              		.loc 1 197 0
 758 002e 09EB0A06 		add	r6, r9, r10
 759 0032 F6B2     		uxtb	r6, r6
 760              	.LVL103:
 198:u8glib/u8g_rect.c ****   xr -= r;
 761              		.loc 1 198 0
 762 0034 361B     		subs	r6, r6, r4
 763              	.LVL104:
 764 0036 F6B2     		uxtb	r6, r6
 765              	.LVL105:
 199:u8glib/u8g_rect.c ****   xr -= 1;
 766              		.loc 1 199 0
 767 0038 013E     		subs	r6, r6, #1
 768              	.LVL106:
 769 003a F6B2     		uxtb	r6, r6
 770              	.LVL107:
 200:u8glib/u8g_rect.c ****   
 201:u8glib/u8g_rect.c ****   yl = y;
 202:u8glib/u8g_rect.c ****   yl += h;
 771              		.loc 1 202 0
 772 003c 0BEB0503 		add	r3, fp, r5
 773 0040 DBB2     		uxtb	r3, r3
 774              	.LVL108:
 203:u8glib/u8g_rect.c ****   yl -= r; 
 775              		.loc 1 203 0
 776 0042 1B1B     		subs	r3, r3, r4
 777              	.LVL109:
 778 0044 DBB2     		uxtb	r3, r3
 779              	.LVL110:
 204:u8glib/u8g_rect.c ****   yl -= 1;
 780              		.loc 1 204 0
ARM GAS  C:\Users\master\AppData\Local\Temp\ccvcrGDg.s 			page 18


 781 0046 013B     		subs	r3, r3, #1
 782              	.LVL111:
 783 0048 DBB2     		uxtb	r3, r3
 784              	.LVL112:
 785 004a 0393     		str	r3, [sp, #12]
 786              	.LVL113:
 205:u8glib/u8g_rect.c **** 
 206:u8glib/u8g_rect.c ****   u8g_draw_disc(u8g, xl, yu, r, U8G_DRAW_UPPER_LEFT);
 787              		.loc 1 206 0
 788 004c 0223     		movs	r3, #2
 789 004e 0093     		str	r3, [sp]
 790 0050 2346     		mov	r3, r4
 791 0052 4246     		mov	r2, r8
 792 0054 3946     		mov	r1, r7
 793 0056 0298     		ldr	r0, [sp, #8]
 794 0058 FFF7FEFF 		bl	u8g_draw_disc
 795              	.LVL114:
 207:u8glib/u8g_rect.c ****   u8g_draw_disc(u8g, xr, yu, r, U8G_DRAW_UPPER_RIGHT);
 796              		.loc 1 207 0
 797 005c 0123     		movs	r3, #1
 798 005e 0093     		str	r3, [sp]
 799 0060 2346     		mov	r3, r4
 800 0062 4246     		mov	r2, r8
 801 0064 3146     		mov	r1, r6
 802 0066 0298     		ldr	r0, [sp, #8]
 803 0068 FFF7FEFF 		bl	u8g_draw_disc
 804              	.LVL115:
 208:u8glib/u8g_rect.c ****   u8g_draw_disc(u8g, xl, yl, r, U8G_DRAW_LOWER_LEFT);
 805              		.loc 1 208 0
 806 006c 0423     		movs	r3, #4
 807 006e 0093     		str	r3, [sp]
 808 0070 2346     		mov	r3, r4
 809 0072 039A     		ldr	r2, [sp, #12]
 810 0074 3946     		mov	r1, r7
 811 0076 0298     		ldr	r0, [sp, #8]
 812 0078 FFF7FEFF 		bl	u8g_draw_disc
 813              	.LVL116:
 209:u8glib/u8g_rect.c ****   u8g_draw_disc(u8g, xr, yl, r, U8G_DRAW_LOWER_RIGHT);
 814              		.loc 1 209 0
 815 007c 0823     		movs	r3, #8
 816 007e 0093     		str	r3, [sp]
 817 0080 2346     		mov	r3, r4
 818 0082 039A     		ldr	r2, [sp, #12]
 819 0084 3146     		mov	r1, r6
 820 0086 0298     		ldr	r0, [sp, #8]
 821 0088 FFF7FEFF 		bl	u8g_draw_disc
 822              	.LVL117:
 823              	.LBB4:
 210:u8glib/u8g_rect.c **** 
 211:u8glib/u8g_rect.c ****   {
 212:u8glib/u8g_rect.c ****     u8g_uint_t ww, hh;
 213:u8glib/u8g_rect.c **** 
 214:u8glib/u8g_rect.c ****     ww = w;
 215:u8glib/u8g_rect.c ****     ww -= r;
 824              		.loc 1 215 0
 825 008c C4EB0A06 		rsb	r6, r4, r10
 826              	.LVL118:
ARM GAS  C:\Users\master\AppData\Local\Temp\ccvcrGDg.s 			page 19


 827 0090 F6B2     		uxtb	r6, r6
 828              	.LVL119:
 216:u8glib/u8g_rect.c ****     ww -= r;
 829              		.loc 1 216 0
 830 0092 361B     		subs	r6, r6, r4
 831              	.LVL120:
 832 0094 F6B2     		uxtb	r6, r6
 833              	.LVL121:
 217:u8glib/u8g_rect.c ****     ww -= 2;
 834              		.loc 1 217 0
 835 0096 023E     		subs	r6, r6, #2
 836              	.LVL122:
 837 0098 F6B2     		uxtb	r6, r6
 838              	.LVL123:
 218:u8glib/u8g_rect.c ****     hh = h;
 219:u8glib/u8g_rect.c ****     hh -= r;
 839              		.loc 1 219 0
 840 009a 2D1B     		subs	r5, r5, r4
 841              	.LVL124:
 842 009c EDB2     		uxtb	r5, r5
 843              	.LVL125:
 220:u8glib/u8g_rect.c ****     hh -= r;
 844              		.loc 1 220 0
 845 009e 2D1B     		subs	r5, r5, r4
 846              	.LVL126:
 847 00a0 EDB2     		uxtb	r5, r5
 848              	.LVL127:
 221:u8glib/u8g_rect.c ****     hh -= 2;
 849              		.loc 1 221 0
 850 00a2 023D     		subs	r5, r5, #2
 851              	.LVL128:
 852 00a4 EDB2     		uxtb	r5, r5
 853              	.LVL129:
 222:u8glib/u8g_rect.c ****     
 223:u8glib/u8g_rect.c ****     xl++;
 854              		.loc 1 223 0
 855 00a6 0137     		adds	r7, r7, #1
 856              	.LVL130:
 857 00a8 FFB2     		uxtb	r7, r7
 858              	.LVL131:
 224:u8glib/u8g_rect.c ****     yu++;
 859              		.loc 1 224 0
 860 00aa 08F10108 		add	r8, r8, #1
 861              	.LVL132:
 862 00ae 5FFA88F8 		uxtb	r8, r8
 863              	.LVL133:
 225:u8glib/u8g_rect.c ****     h--;
 226:u8glib/u8g_rect.c ****     u8g_draw_box(u8g, xl, y, ww, r+1);
 864              		.loc 1 226 0
 865 00b2 0134     		adds	r4, r4, #1
 866              	.LVL134:
 867 00b4 E4B2     		uxtb	r4, r4
 868              	.LVL135:
 869 00b6 0094     		str	r4, [sp]
 870 00b8 3346     		mov	r3, r6
 871 00ba 5A46     		mov	r2, fp
 872 00bc 3946     		mov	r1, r7
ARM GAS  C:\Users\master\AppData\Local\Temp\ccvcrGDg.s 			page 20


 873 00be DDF808B0 		ldr	fp, [sp, #8]
 874 00c2 5846     		mov	r0, fp
 875 00c4 FFF7FEFF 		bl	u8g_draw_box
 876              	.LVL136:
 227:u8glib/u8g_rect.c ****     u8g_draw_box(u8g, xl, yl, ww, r+1);
 877              		.loc 1 227 0
 878 00c8 0094     		str	r4, [sp]
 879 00ca 3346     		mov	r3, r6
 880 00cc 039A     		ldr	r2, [sp, #12]
 881 00ce 3946     		mov	r1, r7
 882 00d0 5846     		mov	r0, fp
 883 00d2 FFF7FEFF 		bl	u8g_draw_box
 884              	.LVL137:
 228:u8glib/u8g_rect.c ****     //u8g_draw_hline(u8g, xl, y+h, ww);
 229:u8glib/u8g_rect.c ****     u8g_draw_box(u8g, x, yu, w, hh);
 885              		.loc 1 229 0
 886 00d6 0095     		str	r5, [sp]
 887 00d8 5346     		mov	r3, r10
 888 00da 4246     		mov	r2, r8
 889 00dc 4946     		mov	r1, r9
 890 00de 5846     		mov	r0, fp
 891 00e0 FFF7FEFF 		bl	u8g_draw_box
 892              	.LVL138:
 893              	.L29:
 894              	.LBE4:
 230:u8glib/u8g_rect.c ****     //u8g_draw_vline(u8g, x+w, yu, hh);
 231:u8glib/u8g_rect.c ****   }
 232:u8glib/u8g_rect.c **** }
 895              		.loc 1 232 0
 896 00e4 05B0     		add	sp, sp, #20
 897              	.LCFI24:
 898              		.cfi_def_cfa_offset 36
 899              		@ sp needed
 900 00e6 BDE8F08F 		pop	{r4, r5, r6, r7, r8, r9, r10, fp, pc}
 901              		.cfi_endproc
 902              	.LFE8:
 904 00ea 00BF     		.text
 905              	.Letext0:
 906              		.file 2 "c:\\program files (x86)\\gnu tools arm embedded\\5.4 2016q3\\arm-none-eabi\\include\\mach
 907              		.file 3 "c:\\program files (x86)\\gnu tools arm embedded\\5.4 2016q3\\arm-none-eabi\\include\\sys\
 908              		.file 4 "u8glib/u8g.h"
ARM GAS  C:\Users\master\AppData\Local\Temp\ccvcrGDg.s 			page 21

