ARM GAS  C:\Users\master\AppData\Local\Temp\ccqkFrlg.s 			page 1


   1              		.syntax unified
   2              		.cpu cortex-m4
   3              		.eabi_attribute 27, 1
   4              		.eabi_attribute 28, 1
   5              		.fpu fpv4-sp-d16
   6              		.eabi_attribute 20, 1
   7              		.eabi_attribute 21, 1
   8              		.eabi_attribute 23, 3
   9              		.eabi_attribute 24, 1
  10              		.eabi_attribute 25, 1
  11              		.eabi_attribute 26, 1
  12              		.eabi_attribute 30, 1
  13              		.eabi_attribute 34, 1
  14              		.eabi_attribute 18, 4
  15              		.thumb
  16              		.syntax unified
  17              		.file	"u8g_pb16h1.c"
  18              		.text
  19              	.Ltext0:
  20              		.cfi_sections	.debug_frame
  21              		.section	.text.u8g_pb16h1_Clear,"ax",%progbits
  22              		.align	2
  23              		.global	u8g_pb16h1_Clear
  24              		.thumb
  25              		.thumb_func
  27              	u8g_pb16h1_Clear:
  28              	.LFB0:
  29              		.file 1 "u8glib/u8g_pb16h1.c"
   1:u8glib/u8g_pb16h1.c **** /*
   2:u8glib/u8g_pb16h1.c **** 
   3:u8glib/u8g_pb16h1.c ****   u8g_pb16h1.c
   4:u8glib/u8g_pb16h1.c ****   
   5:u8glib/u8g_pb16h1.c ****   2x 8bit height monochrom (1 bit) page buffer
   6:u8glib/u8g_pb16h1.c ****   byte has horizontal orientation
   7:u8glib/u8g_pb16h1.c **** 
   8:u8glib/u8g_pb16h1.c ****   Universal 8bit Graphics Library
   9:u8glib/u8g_pb16h1.c ****   
  10:u8glib/u8g_pb16h1.c ****   Copyright (c) 2012, olikraus@gmail.com
  11:u8glib/u8g_pb16h1.c ****   All rights reserved.
  12:u8glib/u8g_pb16h1.c **** 
  13:u8glib/u8g_pb16h1.c ****   Redistribution and use in source and binary forms, with or without modification, 
  14:u8glib/u8g_pb16h1.c ****   are permitted provided that the following conditions are met:
  15:u8glib/u8g_pb16h1.c **** 
  16:u8glib/u8g_pb16h1.c ****   * Redistributions of source code must retain the above copyright notice, this list 
  17:u8glib/u8g_pb16h1.c ****     of conditions and the following disclaimer.
  18:u8glib/u8g_pb16h1.c ****     
  19:u8glib/u8g_pb16h1.c ****   * Redistributions in binary form must reproduce the above copyright notice, this 
  20:u8glib/u8g_pb16h1.c ****     list of conditions and the following disclaimer in the documentation and/or other 
  21:u8glib/u8g_pb16h1.c ****     materials provided with the distribution.
  22:u8glib/u8g_pb16h1.c **** 
  23:u8glib/u8g_pb16h1.c ****   THIS SOFTWARE IS PROVIDED BY THE COPYRIGHT HOLDERS AND 
  24:u8glib/u8g_pb16h1.c ****   CONTRIBUTORS "AS IS" AND ANY EXPRESS OR IMPLIED WARRANTIES, 
  25:u8glib/u8g_pb16h1.c ****   INCLUDING, BUT NOT LIMITED TO, THE IMPLIED WARRANTIES OF 
  26:u8glib/u8g_pb16h1.c ****   MERCHANTABILITY AND FITNESS FOR A PARTICULAR PURPOSE ARE 
  27:u8glib/u8g_pb16h1.c ****   DISCLAIMED. IN NO EVENT SHALL THE COPYRIGHT HOLDER OR 
  28:u8glib/u8g_pb16h1.c ****   CONTRIBUTORS BE LIABLE FOR ANY DIRECT, INDIRECT, INCIDENTAL, 
  29:u8glib/u8g_pb16h1.c ****   SPECIAL, EXEMPLARY, OR CONSEQUENTIAL DAMAGES (INCLUDING, BUT 
ARM GAS  C:\Users\master\AppData\Local\Temp\ccqkFrlg.s 			page 2


  30:u8glib/u8g_pb16h1.c ****   NOT LIMITED TO, PROCUREMENT OF SUBSTITUTE GOODS OR SERVICES; 
  31:u8glib/u8g_pb16h1.c ****   LOSS OF USE, DATA, OR PROFITS; OR BUSINESS INTERRUPTION) HOWEVER 
  32:u8glib/u8g_pb16h1.c ****   CAUSED AND ON ANY THEORY OF LIABILITY, WHETHER IN CONTRACT, 
  33:u8glib/u8g_pb16h1.c ****   STRICT LIABILITY, OR TORT (INCLUDING NEGLIGENCE OR OTHERWISE) 
  34:u8glib/u8g_pb16h1.c ****   ARISING IN ANY WAY OUT OF THE USE OF THIS SOFTWARE, EVEN IF 
  35:u8glib/u8g_pb16h1.c ****   ADVISED OF THE POSSIBILITY OF SUCH DAMAGE.  
  36:u8glib/u8g_pb16h1.c **** 
  37:u8glib/u8g_pb16h1.c **** 
  38:u8glib/u8g_pb16h1.c ****   total buffer size is limited to 2*256 bytes because of the calculation inside the set pixel proce
  39:u8glib/u8g_pb16h1.c **** 
  40:u8glib/u8g_pb16h1.c **** 
  41:u8glib/u8g_pb16h1.c **** */
  42:u8glib/u8g_pb16h1.c **** 
  43:u8glib/u8g_pb16h1.c **** #include "u8g.h"
  44:u8glib/u8g_pb16h1.c **** #include <string.h>
  45:u8glib/u8g_pb16h1.c **** 
  46:u8glib/u8g_pb16h1.c **** 
  47:u8glib/u8g_pb16h1.c **** void u8g_pb16h1_Init(u8g_pb_t *b, void *buf, u8g_uint_t width) U8G_NOINLINE;
  48:u8glib/u8g_pb16h1.c **** void u8g_pb16h1_set_pixel(u8g_pb_t *b, u8g_uint_t x, u8g_uint_t y, uint8_t color_index) U8G_NOINLIN
  49:u8glib/u8g_pb16h1.c **** void u8g_pb16h1_SetPixel(u8g_pb_t *b, const u8g_dev_arg_pixel_t * const arg_pixel) U8G_NOINLINE ;
  50:u8glib/u8g_pb16h1.c **** void u8g_pb16h1_Set8PixelStd(u8g_pb_t *b, u8g_dev_arg_pixel_t *arg_pixel) U8G_NOINLINE;
  51:u8glib/u8g_pb16h1.c **** uint8_t u8g_dev_pb8h1_base_fn(u8g_t *u8g, u8g_dev_t *dev, uint8_t msg, void *arg);
  52:u8glib/u8g_pb16h1.c **** 
  53:u8glib/u8g_pb16h1.c **** void u8g_pb16h1_Clear(u8g_pb_t *b)
  54:u8glib/u8g_pb16h1.c **** {
  30              		.loc 1 54 0
  31              		.cfi_startproc
  32              		@ args = 0, pretend = 0, frame = 0
  33              		@ frame_needed = 0, uses_anonymous_args = 0
  34              		@ link register save eliminated.
  35              	.LVL0:
  55:u8glib/u8g_pb16h1.c ****   uint8_t *ptr = (uint8_t *)b->buf;
  36              		.loc 1 55 0
  37 0000 8368     		ldr	r3, [r0, #8]
  38              	.LVL1:
  56:u8glib/u8g_pb16h1.c ****   uint8_t *end_ptr = ptr;
  57:u8glib/u8g_pb16h1.c ****   end_ptr += b->width*2;
  39              		.loc 1 57 0
  40 0002 4079     		ldrb	r0, [r0, #5]	@ zero_extendqisi2
  41              	.LVL2:
  42 0004 03EB4000 		add	r0, r3, r0, lsl #1
  43              	.LVL3:
  44              	.L2:
  58:u8glib/u8g_pb16h1.c ****   do
  59:u8glib/u8g_pb16h1.c ****   {
  60:u8glib/u8g_pb16h1.c ****     *ptr++ = 0;
  45              		.loc 1 60 0 discriminator 1
  46 0008 5A1C     		adds	r2, r3, #1
  47              	.LVL4:
  48 000a 0021     		movs	r1, #0
  49 000c 1970     		strb	r1, [r3]
  50 000e 1346     		mov	r3, r2
  61:u8glib/u8g_pb16h1.c ****   } while( ptr != end_ptr );
  51              		.loc 1 61 0 discriminator 1
  52 0010 9042     		cmp	r0, r2
  53 0012 F9D1     		bne	.L2
  62:u8glib/u8g_pb16h1.c **** }
ARM GAS  C:\Users\master\AppData\Local\Temp\ccqkFrlg.s 			page 3


  54              		.loc 1 62 0
  55 0014 7047     		bx	lr
  56              		.cfi_endproc
  57              	.LFE0:
  59 0016 00BF     		.section	.text.u8g_pb16h1_Init,"ax",%progbits
  60              		.align	2
  61              		.global	u8g_pb16h1_Init
  62              		.thumb
  63              		.thumb_func
  65              	u8g_pb16h1_Init:
  66              	.LFB1:
  63:u8glib/u8g_pb16h1.c **** 
  64:u8glib/u8g_pb16h1.c **** 
  65:u8glib/u8g_pb16h1.c **** 
  66:u8glib/u8g_pb16h1.c **** void u8g_pb16h1_Init(u8g_pb_t *b, void *buf, u8g_uint_t width)
  67:u8glib/u8g_pb16h1.c **** {
  67              		.loc 1 67 0
  68              		.cfi_startproc
  69              		@ args = 0, pretend = 0, frame = 0
  70              		@ frame_needed = 0, uses_anonymous_args = 0
  71              	.LVL5:
  72 0000 08B5     		push	{r3, lr}
  73              	.LCFI0:
  74              		.cfi_def_cfa_offset 8
  75              		.cfi_offset 3, -8
  76              		.cfi_offset 14, -4
  68:u8glib/u8g_pb16h1.c ****   b->buf = buf;
  77              		.loc 1 68 0
  78 0002 8160     		str	r1, [r0, #8]
  69:u8glib/u8g_pb16h1.c ****   b->width = width;
  79              		.loc 1 69 0
  80 0004 4271     		strb	r2, [r0, #5]
  70:u8glib/u8g_pb16h1.c ****   u8g_pb16h1_Clear(b);
  81              		.loc 1 70 0
  82 0006 FFF7FEFF 		bl	u8g_pb16h1_Clear
  83              	.LVL6:
  84 000a 08BD     		pop	{r3, pc}
  85              		.cfi_endproc
  86              	.LFE1:
  88              		.section	.text.u8g_pb16h1_set_pixel,"ax",%progbits
  89              		.align	2
  90              		.global	u8g_pb16h1_set_pixel
  91              		.thumb
  92              		.thumb_func
  94              	u8g_pb16h1_set_pixel:
  95              	.LFB2:
  71:u8glib/u8g_pb16h1.c **** }
  72:u8glib/u8g_pb16h1.c **** 
  73:u8glib/u8g_pb16h1.c **** 
  74:u8glib/u8g_pb16h1.c **** /* limitation: total buffer must not exceed 2*256 bytes */
  75:u8glib/u8g_pb16h1.c **** void u8g_pb16h1_set_pixel(u8g_pb_t *b, u8g_uint_t x, u8g_uint_t y, uint8_t color_index)
  76:u8glib/u8g_pb16h1.c **** {
  96              		.loc 1 76 0
  97              		.cfi_startproc
  98              		@ args = 0, pretend = 0, frame = 0
  99              		@ frame_needed = 0, uses_anonymous_args = 0
 100              		@ link register save eliminated.
ARM GAS  C:\Users\master\AppData\Local\Temp\ccqkFrlg.s 			page 4


 101              	.LVL7:
 102 0000 30B4     		push	{r4, r5}
 103              	.LCFI1:
 104              		.cfi_def_cfa_offset 8
 105              		.cfi_offset 4, -8
 106              		.cfi_offset 5, -4
  77:u8glib/u8g_pb16h1.c ****   register uint8_t mask;
  78:u8glib/u8g_pb16h1.c ****   u8g_uint_t tmp;
  79:u8glib/u8g_pb16h1.c ****   uint8_t *ptr = b->buf;
 107              		.loc 1 79 0
 108 0002 8568     		ldr	r5, [r0, #8]
 109              	.LVL8:
  80:u8glib/u8g_pb16h1.c ****   
  81:u8glib/u8g_pb16h1.c ****   y -= b->p.page_y0;
 110              		.loc 1 81 0
 111 0004 8478     		ldrb	r4, [r0, #2]	@ zero_extendqisi2
 112 0006 121B     		subs	r2, r2, r4
 113              	.LVL9:
 114 0008 D2B2     		uxtb	r2, r2
 115              	.LVL10:
  82:u8glib/u8g_pb16h1.c ****   if ( y >= 8 )
 116              		.loc 1 82 0
 117 000a 072A     		cmp	r2, #7
 118 000c 03D9     		bls	.L6
  83:u8glib/u8g_pb16h1.c ****   {
  84:u8glib/u8g_pb16h1.c ****     ptr += b->width;
 119              		.loc 1 84 0
 120 000e 4479     		ldrb	r4, [r0, #5]	@ zero_extendqisi2
 121 0010 2544     		add	r5, r5, r4
 122              	.LVL11:
  85:u8glib/u8g_pb16h1.c ****     y &= 0x07;
 123              		.loc 1 85 0
 124 0012 02F00702 		and	r2, r2, #7
 125              	.LVL12:
 126              	.L6:
  86:u8glib/u8g_pb16h1.c ****   }
  87:u8glib/u8g_pb16h1.c ****   tmp = b->width;
 127              		.loc 1 87 0
 128 0016 4079     		ldrb	r0, [r0, #5]	@ zero_extendqisi2
 129              	.LVL13:
  88:u8glib/u8g_pb16h1.c ****   tmp >>= 3;
 130              		.loc 1 88 0
 131 0018 C008     		lsrs	r0, r0, #3
 132              	.LVL14:
  89:u8glib/u8g_pb16h1.c ****   tmp *= (uint8_t)y;
 133              		.loc 1 89 0
 134 001a 12FB00F2 		smulbb	r2, r2, r0
 135              	.LVL15:
  90:u8glib/u8g_pb16h1.c ****   ptr += tmp;
  91:u8glib/u8g_pb16h1.c ****   
  92:u8glib/u8g_pb16h1.c ****   mask = 0x080;
  93:u8glib/u8g_pb16h1.c ****   mask >>= x & 7;
 136              		.loc 1 93 0
 137 001e 01F00704 		and	r4, r1, #7
 138 0022 8020     		movs	r0, #128
 139 0024 2041     		asrs	r0, r0, r4
 140 0026 C0B2     		uxtb	r0, r0
ARM GAS  C:\Users\master\AppData\Local\Temp\ccqkFrlg.s 			page 5


 141              	.LVL16:
  94:u8glib/u8g_pb16h1.c ****   x >>= 3;
 142              		.loc 1 94 0
 143 0028 C908     		lsrs	r1, r1, #3
 144              	.LVL17:
  95:u8glib/u8g_pb16h1.c ****   ptr += x;
 145              		.loc 1 95 0
 146 002a 51FA82F1 		uxtab	r1, r1, r2
 147              	.LVL18:
  96:u8glib/u8g_pb16h1.c ****   if ( color_index )
 148              		.loc 1 96 0
 149 002e 1BB1     		cbz	r3, .L7
  97:u8glib/u8g_pb16h1.c ****   {
  98:u8glib/u8g_pb16h1.c ****     *ptr |= mask;
 150              		.loc 1 98 0
 151 0030 6B5C     		ldrb	r3, [r5, r1]	@ zero_extendqisi2
 152              	.LVL19:
 153 0032 1843     		orrs	r0, r0, r3
 154              	.LVL20:
 155 0034 6854     		strb	r0, [r5, r1]
 156 0036 03E0     		b	.L5
 157              	.LVL21:
 158              	.L7:
  99:u8glib/u8g_pb16h1.c ****   }
 100:u8glib/u8g_pb16h1.c ****   else
 101:u8glib/u8g_pb16h1.c ****   {
 102:u8glib/u8g_pb16h1.c ****     mask ^=0xff;
 103:u8glib/u8g_pb16h1.c ****     *ptr &= mask;
 159              		.loc 1 103 0
 160 0038 6B5C     		ldrb	r3, [r5, r1]	@ zero_extendqisi2
 161              	.LVL22:
 162 003a 23EA0000 		bic	r0, r3, r0
 163              	.LVL23:
 164 003e 6854     		strb	r0, [r5, r1]
 165              	.LVL24:
 166              	.L5:
 104:u8glib/u8g_pb16h1.c ****   }
 105:u8glib/u8g_pb16h1.c ****   
 106:u8glib/u8g_pb16h1.c **** }
 167              		.loc 1 106 0
 168 0040 30BC     		pop	{r4, r5}
 169              	.LCFI2:
 170              		.cfi_restore 5
 171              		.cfi_restore 4
 172              		.cfi_def_cfa_offset 0
 173              	.LVL25:
 174 0042 7047     		bx	lr
 175              		.cfi_endproc
 176              	.LFE2:
 178              		.section	.text.u8g_pb16h1_SetPixel,"ax",%progbits
 179              		.align	2
 180              		.global	u8g_pb16h1_SetPixel
 181              		.thumb
 182              		.thumb_func
 184              	u8g_pb16h1_SetPixel:
 185              	.LFB3:
 107:u8glib/u8g_pb16h1.c **** 
ARM GAS  C:\Users\master\AppData\Local\Temp\ccqkFrlg.s 			page 6


 108:u8glib/u8g_pb16h1.c **** 
 109:u8glib/u8g_pb16h1.c **** void u8g_pb16h1_SetPixel(u8g_pb_t *b, const u8g_dev_arg_pixel_t * const arg_pixel)
 110:u8glib/u8g_pb16h1.c **** {
 186              		.loc 1 110 0
 187              		.cfi_startproc
 188              		@ args = 0, pretend = 0, frame = 0
 189              		@ frame_needed = 0, uses_anonymous_args = 0
 190              	.LVL26:
 111:u8glib/u8g_pb16h1.c ****   if ( arg_pixel->y < b->p.page_y0 )
 191              		.loc 1 111 0
 192 0000 4A78     		ldrb	r2, [r1, #1]	@ zero_extendqisi2
 193 0002 8378     		ldrb	r3, [r0, #2]	@ zero_extendqisi2
 194 0004 9A42     		cmp	r2, r3
 195 0006 0CD3     		bcc	.L13
 112:u8glib/u8g_pb16h1.c ****     return;
 113:u8glib/u8g_pb16h1.c ****   if ( arg_pixel->y > b->p.page_y1 )
 196              		.loc 1 113 0
 197 0008 C378     		ldrb	r3, [r0, #3]	@ zero_extendqisi2
 198 000a 9A42     		cmp	r2, r3
 199 000c 09D8     		bhi	.L13
 110:u8glib/u8g_pb16h1.c ****   if ( arg_pixel->y < b->p.page_y0 )
 200              		.loc 1 110 0
 201 000e 10B5     		push	{r4, lr}
 202              	.LCFI3:
 203              		.cfi_def_cfa_offset 8
 204              		.cfi_offset 4, -8
 205              		.cfi_offset 14, -4
 114:u8glib/u8g_pb16h1.c ****     return;
 115:u8glib/u8g_pb16h1.c ****   if ( arg_pixel->x >= b->width )
 206              		.loc 1 115 0
 207 0010 0C78     		ldrb	r4, [r1]	@ zero_extendqisi2
 208 0012 4379     		ldrb	r3, [r0, #5]	@ zero_extendqisi2
 209 0014 9C42     		cmp	r4, r3
 210 0016 03D2     		bcs	.L10
 116:u8glib/u8g_pb16h1.c ****     return;
 117:u8glib/u8g_pb16h1.c ****   u8g_pb16h1_set_pixel(b, arg_pixel->x, arg_pixel->y, arg_pixel->color);
 211              		.loc 1 117 0
 212 0018 0B79     		ldrb	r3, [r1, #4]	@ zero_extendqisi2
 213 001a 2146     		mov	r1, r4
 214              	.LVL27:
 215 001c FFF7FEFF 		bl	u8g_pb16h1_set_pixel
 216              	.LVL28:
 217              	.L10:
 218 0020 10BD     		pop	{r4, pc}
 219              	.LVL29:
 220              	.L13:
 221              	.LCFI4:
 222              		.cfi_def_cfa_offset 0
 223              		.cfi_restore 4
 224              		.cfi_restore 14
 225 0022 7047     		bx	lr
 226              		.cfi_endproc
 227              	.LFE3:
 229              		.section	.text.u8g_pb16h1_Set8PixelStd,"ax",%progbits
 230              		.align	2
 231              		.global	u8g_pb16h1_Set8PixelStd
 232              		.thumb
ARM GAS  C:\Users\master\AppData\Local\Temp\ccqkFrlg.s 			page 7


 233              		.thumb_func
 235              	u8g_pb16h1_Set8PixelStd:
 236              	.LFB4:
 118:u8glib/u8g_pb16h1.c **** }
 119:u8glib/u8g_pb16h1.c **** 
 120:u8glib/u8g_pb16h1.c **** void u8g_pb16h1_Set8PixelStd(u8g_pb_t *b, u8g_dev_arg_pixel_t *arg_pixel)
 121:u8glib/u8g_pb16h1.c **** {
 237              		.loc 1 121 0
 238              		.cfi_startproc
 239              		@ args = 0, pretend = 0, frame = 0
 240              		@ frame_needed = 0, uses_anonymous_args = 0
 241              	.LVL30:
 242 0000 70B5     		push	{r4, r5, r6, lr}
 243              	.LCFI5:
 244              		.cfi_def_cfa_offset 16
 245              		.cfi_offset 4, -16
 246              		.cfi_offset 5, -12
 247              		.cfi_offset 6, -8
 248              		.cfi_offset 14, -4
 249 0002 0646     		mov	r6, r0
 250 0004 0D46     		mov	r5, r1
 122:u8glib/u8g_pb16h1.c ****   register uint8_t pixel = arg_pixel->pixel;
 251              		.loc 1 122 0
 252 0006 8C78     		ldrb	r4, [r1, #2]	@ zero_extendqisi2
 253              	.LVL31:
 254              	.L22:
 123:u8glib/u8g_pb16h1.c ****   do
 124:u8glib/u8g_pb16h1.c ****   {
 125:u8glib/u8g_pb16h1.c ****     if ( pixel & 128 )
 255              		.loc 1 125 0
 256 0008 14F0800F 		tst	r4, #128
 257 000c 03D0     		beq	.L15
 126:u8glib/u8g_pb16h1.c ****     {
 127:u8glib/u8g_pb16h1.c ****       u8g_pb16h1_SetPixel(b, arg_pixel);
 258              		.loc 1 127 0
 259 000e 2946     		mov	r1, r5
 260 0010 3046     		mov	r0, r6
 261 0012 FFF7FEFF 		bl	u8g_pb16h1_SetPixel
 262              	.LVL32:
 263              	.L15:
 128:u8glib/u8g_pb16h1.c ****     }
 129:u8glib/u8g_pb16h1.c ****     switch( arg_pixel->dir )
 264              		.loc 1 129 0
 265 0016 EB78     		ldrb	r3, [r5, #3]	@ zero_extendqisi2
 266 0018 032B     		cmp	r3, #3
 267 001a 12D8     		bhi	.L16
 268 001c DFE803F0 		tbb	[pc, r3]
 269              	.L18:
 270 0020 02       		.byte	(.L17-.L18)/2
 271 0021 06       		.byte	(.L19-.L18)/2
 272 0022 0A       		.byte	(.L20-.L18)/2
 273 0023 0E       		.byte	(.L21-.L18)/2
 274              		.p2align 1
 275              	.L17:
 130:u8glib/u8g_pb16h1.c ****     {
 131:u8glib/u8g_pb16h1.c ****       case 0: arg_pixel->x++; break;
 276              		.loc 1 131 0
ARM GAS  C:\Users\master\AppData\Local\Temp\ccqkFrlg.s 			page 8


 277 0024 2B78     		ldrb	r3, [r5]	@ zero_extendqisi2
 278 0026 0133     		adds	r3, r3, #1
 279 0028 2B70     		strb	r3, [r5]
 280 002a 0AE0     		b	.L16
 281              	.L19:
 132:u8glib/u8g_pb16h1.c ****       case 1: arg_pixel->y++; break;
 282              		.loc 1 132 0
 283 002c 6B78     		ldrb	r3, [r5, #1]	@ zero_extendqisi2
 284 002e 0133     		adds	r3, r3, #1
 285 0030 6B70     		strb	r3, [r5, #1]
 286 0032 06E0     		b	.L16
 287              	.L20:
 133:u8glib/u8g_pb16h1.c ****       case 2: arg_pixel->x--; break;
 288              		.loc 1 133 0
 289 0034 2B78     		ldrb	r3, [r5]	@ zero_extendqisi2
 290 0036 013B     		subs	r3, r3, #1
 291 0038 2B70     		strb	r3, [r5]
 292 003a 02E0     		b	.L16
 293              	.L21:
 134:u8glib/u8g_pb16h1.c ****       case 3: arg_pixel->y--; break;
 294              		.loc 1 134 0
 295 003c 6B78     		ldrb	r3, [r5, #1]	@ zero_extendqisi2
 296 003e 013B     		subs	r3, r3, #1
 297 0040 6B70     		strb	r3, [r5, #1]
 298              	.L16:
 135:u8glib/u8g_pb16h1.c ****     }
 136:u8glib/u8g_pb16h1.c ****     pixel <<= 1;
 299              		.loc 1 136 0
 300 0042 6400     		lsls	r4, r4, #1
 301              	.LVL33:
 137:u8glib/u8g_pb16h1.c ****   } while( pixel != 0  );
 302              		.loc 1 137 0
 303 0044 14F0FF04 		ands	r4, r4, #255
 304              	.LVL34:
 305 0048 DED1     		bne	.L22
 138:u8glib/u8g_pb16h1.c **** }
 306              		.loc 1 138 0
 307 004a 70BD     		pop	{r4, r5, r6, pc}
 308              		.cfi_endproc
 309              	.LFE4:
 311              		.section	.text.u8g_pb16h1_Set8PixelOpt2,"ax",%progbits
 312              		.align	2
 313              		.global	u8g_pb16h1_Set8PixelOpt2
 314              		.thumb
 315              		.thumb_func
 317              	u8g_pb16h1_Set8PixelOpt2:
 318              	.LFB5:
 139:u8glib/u8g_pb16h1.c **** 
 140:u8glib/u8g_pb16h1.c **** void u8g_pb16h1_Set8PixelOpt2(u8g_pb_t *b, u8g_dev_arg_pixel_t *arg_pixel)
 141:u8glib/u8g_pb16h1.c **** {
 319              		.loc 1 141 0
 320              		.cfi_startproc
 321              		@ args = 0, pretend = 0, frame = 0
 322              		@ frame_needed = 0, uses_anonymous_args = 0
 323              	.LVL35:
 324 0000 2DE9F041 		push	{r4, r5, r6, r7, r8, lr}
 325              	.LCFI6:
ARM GAS  C:\Users\master\AppData\Local\Temp\ccqkFrlg.s 			page 9


 326              		.cfi_def_cfa_offset 24
 327              		.cfi_offset 4, -24
 328              		.cfi_offset 5, -20
 329              		.cfi_offset 6, -16
 330              		.cfi_offset 7, -12
 331              		.cfi_offset 8, -8
 332              		.cfi_offset 14, -4
 333 0004 8046     		mov	r8, r0
 334 0006 0D46     		mov	r5, r1
 142:u8glib/u8g_pb16h1.c ****   register uint8_t pixel = arg_pixel->pixel;
 335              		.loc 1 142 0
 336 0008 8C78     		ldrb	r4, [r1, #2]	@ zero_extendqisi2
 337              	.LVL36:
 143:u8glib/u8g_pb16h1.c ****   u8g_uint_t dx = 0;
 144:u8glib/u8g_pb16h1.c ****   u8g_uint_t dy = 0;
 145:u8glib/u8g_pb16h1.c ****   
 146:u8glib/u8g_pb16h1.c ****   switch( arg_pixel->dir )
 338              		.loc 1 146 0
 339 000a CB78     		ldrb	r3, [r1, #3]	@ zero_extendqisi2
 340 000c 032B     		cmp	r3, #3
 341 000e 03D8     		bhi	.L25
 342 0010 DFE803F0 		tbb	[pc, r3]
 343              	.L27:
 344 0014 0E       		.byte	(.L33-.L27)/2
 345 0015 05       		.byte	(.L28-.L27)/2
 346 0016 08       		.byte	(.L29-.L27)/2
 347 0017 0B       		.byte	(.L30-.L27)/2
 348              		.p2align 1
 349              	.L25:
 144:u8glib/u8g_pb16h1.c ****   
 350              		.loc 1 144 0
 351 0018 0026     		movs	r6, #0
 143:u8glib/u8g_pb16h1.c ****   u8g_uint_t dx = 0;
 352              		.loc 1 143 0
 353 001a 3746     		mov	r7, r6
 354 001c 0AE0     		b	.L32
 355              	.L28:
 356              	.LVL37:
 147:u8glib/u8g_pb16h1.c ****   {
 148:u8glib/u8g_pb16h1.c ****     case 0: dx++; break;
 149:u8glib/u8g_pb16h1.c ****     case 1: dy++; break;
 357              		.loc 1 149 0
 358 001e 0126     		movs	r6, #1
 143:u8glib/u8g_pb16h1.c ****   u8g_uint_t dy = 0;
 359              		.loc 1 143 0
 360 0020 0027     		movs	r7, #0
 361              		.loc 1 149 0
 362 0022 07E0     		b	.L32
 363              	.LVL38:
 364              	.L29:
 144:u8glib/u8g_pb16h1.c ****   
 365              		.loc 1 144 0
 366 0024 0026     		movs	r6, #0
 150:u8glib/u8g_pb16h1.c ****     case 2: dx--; break;
 367              		.loc 1 150 0
 368 0026 FF27     		movs	r7, #255
 369 0028 04E0     		b	.L32
ARM GAS  C:\Users\master\AppData\Local\Temp\ccqkFrlg.s 			page 10


 370              	.LVL39:
 371              	.L30:
 151:u8glib/u8g_pb16h1.c ****     case 3: dy--; break;
 372              		.loc 1 151 0
 373 002a FF26     		movs	r6, #255
 143:u8glib/u8g_pb16h1.c ****   u8g_uint_t dy = 0;
 374              		.loc 1 143 0
 375 002c 0027     		movs	r7, #0
 376              		.loc 1 151 0
 377 002e 01E0     		b	.L32
 378              	.LVL40:
 379              	.L33:
 144:u8glib/u8g_pb16h1.c ****   
 380              		.loc 1 144 0
 381 0030 0026     		movs	r6, #0
 148:u8glib/u8g_pb16h1.c ****     case 1: dy++; break;
 382              		.loc 1 148 0
 383 0032 0127     		movs	r7, #1
 384              	.LVL41:
 385              	.L32:
 152:u8glib/u8g_pb16h1.c ****   }
 153:u8glib/u8g_pb16h1.c ****   
 154:u8glib/u8g_pb16h1.c ****   do
 155:u8glib/u8g_pb16h1.c ****   {
 156:u8glib/u8g_pb16h1.c ****     if ( pixel & 128 )
 386              		.loc 1 156 0
 387 0034 14F0800F 		tst	r4, #128
 388 0038 03D0     		beq	.L31
 157:u8glib/u8g_pb16h1.c ****       u8g_pb16h1_SetPixel(b, arg_pixel);
 389              		.loc 1 157 0
 390 003a 2946     		mov	r1, r5
 391 003c 4046     		mov	r0, r8
 392 003e FFF7FEFF 		bl	u8g_pb16h1_SetPixel
 393              	.LVL42:
 394              	.L31:
 158:u8glib/u8g_pb16h1.c ****     arg_pixel->x += dx;
 395              		.loc 1 158 0
 396 0042 2B78     		ldrb	r3, [r5]	@ zero_extendqisi2
 397 0044 3B44     		add	r3, r3, r7
 398 0046 2B70     		strb	r3, [r5]
 159:u8glib/u8g_pb16h1.c ****     arg_pixel->y += dy;
 399              		.loc 1 159 0
 400 0048 6B78     		ldrb	r3, [r5, #1]	@ zero_extendqisi2
 401 004a 3344     		add	r3, r3, r6
 402 004c 6B70     		strb	r3, [r5, #1]
 160:u8glib/u8g_pb16h1.c ****     pixel <<= 1;
 403              		.loc 1 160 0
 404 004e 6400     		lsls	r4, r4, #1
 405              	.LVL43:
 161:u8glib/u8g_pb16h1.c ****   } while( pixel != 0  );  
 406              		.loc 1 161 0
 407 0050 14F0FF04 		ands	r4, r4, #255
 408              	.LVL44:
 409 0054 EED1     		bne	.L32
 162:u8glib/u8g_pb16h1.c **** }
 410              		.loc 1 162 0
 411 0056 BDE8F081 		pop	{r4, r5, r6, r7, r8, pc}
ARM GAS  C:\Users\master\AppData\Local\Temp\ccqkFrlg.s 			page 11


 412              		.cfi_endproc
 413              	.LFE5:
 415 005a 00BF     		.section	.text.u8g_dev_pb16h1_base_fn,"ax",%progbits
 416              		.align	2
 417              		.global	u8g_dev_pb16h1_base_fn
 418              		.thumb
 419              		.thumb_func
 421              	u8g_dev_pb16h1_base_fn:
 422              	.LFB6:
 163:u8glib/u8g_pb16h1.c **** 
 164:u8glib/u8g_pb16h1.c **** 
 165:u8glib/u8g_pb16h1.c **** uint8_t u8g_dev_pb16h1_base_fn(u8g_t *u8g, u8g_dev_t *dev, uint8_t msg, void *arg)
 166:u8glib/u8g_pb16h1.c **** {
 423              		.loc 1 166 0
 424              		.cfi_startproc
 425              		@ args = 0, pretend = 0, frame = 0
 426              		@ frame_needed = 0, uses_anonymous_args = 0
 427              	.LVL45:
 428 0000 38B5     		push	{r3, r4, r5, lr}
 429              	.LCFI7:
 430              		.cfi_def_cfa_offset 16
 431              		.cfi_offset 3, -16
 432              		.cfi_offset 4, -12
 433              		.cfi_offset 5, -8
 434              		.cfi_offset 14, -4
 435 0002 1D46     		mov	r5, r3
 167:u8glib/u8g_pb16h1.c ****   u8g_pb_t *pb = (u8g_pb_t *)(dev->dev_mem);
 436              		.loc 1 167 0
 437 0004 4C68     		ldr	r4, [r1, #4]
 438              	.LVL46:
 168:u8glib/u8g_pb16h1.c ****   switch(msg)
 439              		.loc 1 168 0
 440 0006 143A     		subs	r2, r2, #20
 441              	.LVL47:
 442 0008 332A     		cmp	r2, #51
 443 000a 4CD8     		bhi	.L45
 444 000c DFE802F0 		tbb	[pc, r2]
 445              	.LVL48:
 446              	.L38:
 447 0010 2B       		.byte	(.L37-.L38)/2
 448 0011 33       		.byte	(.L39-.L38)/2
 449 0012 4B       		.byte	(.L45-.L38)/2
 450 0013 3D       		.byte	(.L40-.L38)/2
 451 0014 4B       		.byte	(.L45-.L38)/2
 452 0015 4B       		.byte	(.L45-.L38)/2
 453 0016 4B       		.byte	(.L45-.L38)/2
 454 0017 4B       		.byte	(.L45-.L38)/2
 455 0018 4B       		.byte	(.L45-.L38)/2
 456 0019 4B       		.byte	(.L45-.L38)/2
 457 001a 4B       		.byte	(.L45-.L38)/2
 458 001b 4B       		.byte	(.L45-.L38)/2
 459 001c 4B       		.byte	(.L45-.L38)/2
 460 001d 4B       		.byte	(.L45-.L38)/2
 461 001e 4B       		.byte	(.L45-.L38)/2
 462 001f 4B       		.byte	(.L45-.L38)/2
 463 0020 4B       		.byte	(.L45-.L38)/2
 464 0021 4B       		.byte	(.L45-.L38)/2
ARM GAS  C:\Users\master\AppData\Local\Temp\ccqkFrlg.s 			page 12


 465 0022 4B       		.byte	(.L45-.L38)/2
 466 0023 4B       		.byte	(.L45-.L38)/2
 467 0024 4B       		.byte	(.L45-.L38)/2
 468 0025 4B       		.byte	(.L45-.L38)/2
 469 0026 4B       		.byte	(.L45-.L38)/2
 470 0027 4B       		.byte	(.L45-.L38)/2
 471 0028 4B       		.byte	(.L45-.L38)/2
 472 0029 4B       		.byte	(.L45-.L38)/2
 473 002a 4B       		.byte	(.L45-.L38)/2
 474 002b 4B       		.byte	(.L45-.L38)/2
 475 002c 4B       		.byte	(.L45-.L38)/2
 476 002d 4B       		.byte	(.L45-.L38)/2
 477 002e 25       		.byte	(.L41-.L38)/2
 478 002f 4B       		.byte	(.L45-.L38)/2
 479 0030 4B       		.byte	(.L45-.L38)/2
 480 0031 4B       		.byte	(.L45-.L38)/2
 481 0032 4B       		.byte	(.L45-.L38)/2
 482 0033 4B       		.byte	(.L45-.L38)/2
 483 0034 4B       		.byte	(.L45-.L38)/2
 484 0035 4B       		.byte	(.L45-.L38)/2
 485 0036 4B       		.byte	(.L45-.L38)/2
 486 0037 1A       		.byte	(.L42-.L38)/2
 487 0038 4B       		.byte	(.L45-.L38)/2
 488 0039 4B       		.byte	(.L45-.L38)/2
 489 003a 4B       		.byte	(.L45-.L38)/2
 490 003b 4B       		.byte	(.L45-.L38)/2
 491 003c 4B       		.byte	(.L45-.L38)/2
 492 003d 4B       		.byte	(.L45-.L38)/2
 493 003e 4B       		.byte	(.L45-.L38)/2
 494 003f 4B       		.byte	(.L45-.L38)/2
 495 0040 4B       		.byte	(.L45-.L38)/2
 496 0041 4B       		.byte	(.L45-.L38)/2
 497 0042 43       		.byte	(.L43-.L38)/2
 498 0043 47       		.byte	(.L44-.L38)/2
 499              		.p2align 1
 500              	.L42:
 169:u8glib/u8g_pb16h1.c ****   {
 170:u8glib/u8g_pb16h1.c ****     case U8G_DEV_MSG_SET_8PIXEL:
 171:u8glib/u8g_pb16h1.c ****       if ( u8g_pb_Is8PixelVisible(pb, (u8g_dev_arg_pixel_t *)arg) )
 501              		.loc 1 171 0
 502 0044 2946     		mov	r1, r5
 503              	.LVL49:
 504 0046 2046     		mov	r0, r4
 505              	.LVL50:
 506 0048 FFF7FEFF 		bl	u8g_pb_Is8PixelVisible
 507              	.LVL51:
 508 004c 68B3     		cbz	r0, .L46
 172:u8glib/u8g_pb16h1.c ****         u8g_pb16h1_Set8PixelOpt2(pb, (u8g_dev_arg_pixel_t *)arg);
 509              		.loc 1 172 0
 510 004e 2946     		mov	r1, r5
 511 0050 2046     		mov	r0, r4
 512 0052 FFF7FEFF 		bl	u8g_pb16h1_Set8PixelOpt2
 513              	.LVL52:
 173:u8glib/u8g_pb16h1.c ****       break;
 174:u8glib/u8g_pb16h1.c ****     case U8G_DEV_MSG_SET_PIXEL:
 175:u8glib/u8g_pb16h1.c ****       u8g_pb16h1_SetPixel(pb, (u8g_dev_arg_pixel_t *)arg);
 176:u8glib/u8g_pb16h1.c ****       break;
ARM GAS  C:\Users\master\AppData\Local\Temp\ccqkFrlg.s 			page 13


 177:u8glib/u8g_pb16h1.c ****     case U8G_DEV_MSG_INIT:
 178:u8glib/u8g_pb16h1.c ****       break;
 179:u8glib/u8g_pb16h1.c ****     case U8G_DEV_MSG_STOP:
 180:u8glib/u8g_pb16h1.c ****       break;
 181:u8glib/u8g_pb16h1.c ****     case U8G_DEV_MSG_PAGE_FIRST:
 182:u8glib/u8g_pb16h1.c ****       u8g_pb16h1_Clear(pb);
 183:u8glib/u8g_pb16h1.c ****       u8g_page_First(&(pb->p));
 184:u8glib/u8g_pb16h1.c ****       break;
 185:u8glib/u8g_pb16h1.c ****     case U8G_DEV_MSG_PAGE_NEXT:
 186:u8glib/u8g_pb16h1.c ****       if ( u8g_page_Next(&(pb->p)) == 0 )
 187:u8glib/u8g_pb16h1.c ****         return 0;
 188:u8glib/u8g_pb16h1.c ****       u8g_pb16h1_Clear(pb);
 189:u8glib/u8g_pb16h1.c ****       break;
 190:u8glib/u8g_pb16h1.c **** #ifdef U8G_DEV_MSG_IS_BBX_INTERSECTION
 191:u8glib/u8g_pb16h1.c ****     case U8G_DEV_MSG_IS_BBX_INTERSECTION:
 192:u8glib/u8g_pb16h1.c ****       return u8g_pb_IsIntersection(pb, (u8g_dev_arg_bbx_t *)arg);
 193:u8glib/u8g_pb16h1.c **** #endif
 194:u8glib/u8g_pb16h1.c ****     case U8G_DEV_MSG_GET_PAGE_BOX:
 195:u8glib/u8g_pb16h1.c ****       u8g_pb_GetPageBox(pb, (u8g_box_t *)arg);
 196:u8glib/u8g_pb16h1.c ****       break;
 197:u8glib/u8g_pb16h1.c ****     case U8G_DEV_MSG_GET_WIDTH:
 198:u8glib/u8g_pb16h1.c ****       *((u8g_uint_t *)arg) = pb->width;
 199:u8glib/u8g_pb16h1.c ****       break;
 200:u8glib/u8g_pb16h1.c ****     case U8G_DEV_MSG_GET_HEIGHT:
 201:u8glib/u8g_pb16h1.c ****       *((u8g_uint_t *)arg) = pb->p.total_height;
 202:u8glib/u8g_pb16h1.c ****       break;
 203:u8glib/u8g_pb16h1.c ****     case U8G_DEV_MSG_SET_COLOR_ENTRY:
 204:u8glib/u8g_pb16h1.c ****       break;
 205:u8glib/u8g_pb16h1.c ****     case U8G_DEV_MSG_SET_XY_CB:
 206:u8glib/u8g_pb16h1.c ****       break;
 207:u8glib/u8g_pb16h1.c ****     case U8G_DEV_MSG_GET_MODE:
 208:u8glib/u8g_pb16h1.c ****       return U8G_MODE_BW;
 209:u8glib/u8g_pb16h1.c ****   }
 210:u8glib/u8g_pb16h1.c ****   return 1;
 514              		.loc 1 210 0
 515 0056 0123     		movs	r3, #1
 516 0058 28E0     		b	.L36
 517              	.LVL53:
 518              	.L41:
 175:u8glib/u8g_pb16h1.c ****       break;
 519              		.loc 1 175 0
 520 005a 2946     		mov	r1, r5
 521              	.LVL54:
 522 005c 2046     		mov	r0, r4
 523              	.LVL55:
 524 005e FFF7FEFF 		bl	u8g_pb16h1_SetPixel
 525              	.LVL56:
 526              		.loc 1 210 0
 527 0062 0123     		movs	r3, #1
 176:u8glib/u8g_pb16h1.c ****     case U8G_DEV_MSG_INIT:
 528              		.loc 1 176 0
 529 0064 22E0     		b	.L36
 530              	.LVL57:
 531              	.L37:
 182:u8glib/u8g_pb16h1.c ****       u8g_page_First(&(pb->p));
 532              		.loc 1 182 0
 533 0066 2046     		mov	r0, r4
ARM GAS  C:\Users\master\AppData\Local\Temp\ccqkFrlg.s 			page 14


 534              	.LVL58:
 535 0068 FFF7FEFF 		bl	u8g_pb16h1_Clear
 536              	.LVL59:
 183:u8glib/u8g_pb16h1.c ****       break;
 537              		.loc 1 183 0
 538 006c 2046     		mov	r0, r4
 539 006e FFF7FEFF 		bl	u8g_page_First
 540              	.LVL60:
 541              		.loc 1 210 0
 542 0072 0123     		movs	r3, #1
 184:u8glib/u8g_pb16h1.c ****     case U8G_DEV_MSG_PAGE_NEXT:
 543              		.loc 1 184 0
 544 0074 1AE0     		b	.L36
 545              	.LVL61:
 546              	.L39:
 186:u8glib/u8g_pb16h1.c ****         return 0;
 547              		.loc 1 186 0
 548 0076 2046     		mov	r0, r4
 549              	.LVL62:
 550 0078 FFF7FEFF 		bl	u8g_page_Next
 551              	.LVL63:
 552 007c 0346     		mov	r3, r0
 553 007e A8B1     		cbz	r0, .L36
 188:u8glib/u8g_pb16h1.c ****       break;
 554              		.loc 1 188 0
 555 0080 2046     		mov	r0, r4
 556 0082 FFF7FEFF 		bl	u8g_pb16h1_Clear
 557              	.LVL64:
 558              		.loc 1 210 0
 559 0086 0123     		movs	r3, #1
 189:u8glib/u8g_pb16h1.c **** #ifdef U8G_DEV_MSG_IS_BBX_INTERSECTION
 560              		.loc 1 189 0
 561 0088 10E0     		b	.L36
 562              	.LVL65:
 563              	.L40:
 195:u8glib/u8g_pb16h1.c ****       break;
 564              		.loc 1 195 0
 565 008a 2946     		mov	r1, r5
 566              	.LVL66:
 567 008c 2046     		mov	r0, r4
 568              	.LVL67:
 569 008e FFF7FEFF 		bl	u8g_pb_GetPageBox
 570              	.LVL68:
 571              		.loc 1 210 0
 572 0092 0123     		movs	r3, #1
 196:u8glib/u8g_pb16h1.c ****     case U8G_DEV_MSG_GET_WIDTH:
 573              		.loc 1 196 0
 574 0094 0AE0     		b	.L36
 575              	.LVL69:
 576              	.L43:
 198:u8glib/u8g_pb16h1.c ****       break;
 577              		.loc 1 198 0
 578 0096 6379     		ldrb	r3, [r4, #5]	@ zero_extendqisi2
 579 0098 2B70     		strb	r3, [r5]
 580              		.loc 1 210 0
 581 009a 0123     		movs	r3, #1
 199:u8glib/u8g_pb16h1.c ****     case U8G_DEV_MSG_GET_HEIGHT:
ARM GAS  C:\Users\master\AppData\Local\Temp\ccqkFrlg.s 			page 15


 582              		.loc 1 199 0
 583 009c 06E0     		b	.L36
 584              	.L44:
 201:u8glib/u8g_pb16h1.c ****       break;
 585              		.loc 1 201 0
 586 009e 6378     		ldrb	r3, [r4, #1]	@ zero_extendqisi2
 587 00a0 2B70     		strb	r3, [r5]
 588              		.loc 1 210 0
 589 00a2 0123     		movs	r3, #1
 202:u8glib/u8g_pb16h1.c ****     case U8G_DEV_MSG_SET_COLOR_ENTRY:
 590              		.loc 1 202 0
 591 00a4 02E0     		b	.L36
 592              	.L45:
 208:u8glib/u8g_pb16h1.c ****   }
 593              		.loc 1 208 0
 594 00a6 0123     		movs	r3, #1
 595 00a8 00E0     		b	.L36
 596              	.LVL70:
 597              	.L46:
 598              		.loc 1 210 0
 599 00aa 0123     		movs	r3, #1
 600              	.L36:
 211:u8glib/u8g_pb16h1.c **** }
 601              		.loc 1 211 0
 602 00ac 1846     		mov	r0, r3
 603 00ae 38BD     		pop	{r3, r4, r5, pc}
 604              		.cfi_endproc
 605              	.LFE6:
 607              		.text
 608              	.Letext0:
 609              		.file 2 "c:\\program files (x86)\\gnu tools arm embedded\\5.4 2016q3\\arm-none-eabi\\include\\mach
 610              		.file 3 "c:\\program files (x86)\\gnu tools arm embedded\\5.4 2016q3\\arm-none-eabi\\include\\sys\
 611              		.file 4 "u8glib/u8g.h"
ARM GAS  C:\Users\master\AppData\Local\Temp\ccqkFrlg.s 			page 16

