ARM GAS  C:\Users\master\AppData\Local\Temp\ccGsGygi.s 			page 1


   1              		.syntax unified
   2              		.cpu cortex-m4
   3              		.eabi_attribute 27, 1
   4              		.eabi_attribute 28, 1
   5              		.fpu fpv4-sp-d16
   6              		.eabi_attribute 20, 1
   7              		.eabi_attribute 21, 1
   8              		.eabi_attribute 23, 3
   9              		.eabi_attribute 24, 1
  10              		.eabi_attribute 25, 1
  11              		.eabi_attribute 26, 1
  12              		.eabi_attribute 30, 1
  13              		.eabi_attribute 34, 1
  14              		.eabi_attribute 18, 4
  15              		.thumb
  16              		.syntax unified
  17              		.file	"u8g_pbxh16.c"
  18              		.text
  19              	.Ltext0:
  20              		.cfi_sections	.debug_frame
  21              		.section	.text.u8g_pbxh16_set_pixel,"ax",%progbits
  22              		.align	2
  23              		.thumb
  24              		.thumb_func
  26              	u8g_pbxh16_set_pixel:
  27              	.LFB2:
  28              		.file 1 "u8glib/u8g_pbxh16.c"
   1:u8glib/u8g_pbxh16.c **** /*
   2:u8glib/u8g_pbxh16.c **** 
   3:u8glib/u8g_pbxh16.c ****   u8g_pbxh16.c
   4:u8glib/u8g_pbxh16.c ****   
   5:u8glib/u8g_pbxh16.c ****   x lines per page, horizontal, 16 bits per pixel (hi color modes)
   6:u8glib/u8g_pbxh16.c ****   
   7:u8glib/u8g_pbxh16.c ****   Universal 8bit Graphics Library
   8:u8glib/u8g_pbxh16.c ****   
   9:u8glib/u8g_pbxh16.c ****   Copyright (c) 2013, olikraus@gmail.com
  10:u8glib/u8g_pbxh16.c ****   All rights reserved.
  11:u8glib/u8g_pbxh16.c **** 
  12:u8glib/u8g_pbxh16.c ****   Redistribution and use in source and binary forms, with or without modification, 
  13:u8glib/u8g_pbxh16.c ****   are permitted provided that the following conditions are met:
  14:u8glib/u8g_pbxh16.c **** 
  15:u8glib/u8g_pbxh16.c ****   * Redistributions of source code must retain the above copyright notice, this list 
  16:u8glib/u8g_pbxh16.c ****     of conditions and the following disclaimer.
  17:u8glib/u8g_pbxh16.c ****     
  18:u8glib/u8g_pbxh16.c ****   * Redistributions in binary form must reproduce the above copyright notice, this 
  19:u8glib/u8g_pbxh16.c ****     list of conditions and the following disclaimer in the documentation and/or other 
  20:u8glib/u8g_pbxh16.c ****     materials provided with the distribution.
  21:u8glib/u8g_pbxh16.c **** 
  22:u8glib/u8g_pbxh16.c ****   THIS SOFTWARE IS PROVIDED BY THE COPYRIGHT HOLDERS AND 
  23:u8glib/u8g_pbxh16.c ****   CONTRIBUTORS "AS IS" AND ANY EXPRESS OR IMPLIED WARRANTIES, 
  24:u8glib/u8g_pbxh16.c ****   INCLUDING, BUT NOT LIMITED TO, THE IMPLIED WARRANTIES OF 
  25:u8glib/u8g_pbxh16.c ****   MERCHANTABILITY AND FITNESS FOR A PARTICULAR PURPOSE ARE 
  26:u8glib/u8g_pbxh16.c ****   DISCLAIMED. IN NO EVENT SHALL THE COPYRIGHT HOLDER OR 
  27:u8glib/u8g_pbxh16.c ****   CONTRIBUTORS BE LIABLE FOR ANY DIRECT, INDIRECT, INCIDENTAL, 
  28:u8glib/u8g_pbxh16.c ****   SPECIAL, EXEMPLARY, OR CONSEQUENTIAL DAMAGES (INCLUDING, BUT 
  29:u8glib/u8g_pbxh16.c ****   NOT LIMITED TO, PROCUREMENT OF SUBSTITUTE GOODS OR SERVICES; 
  30:u8glib/u8g_pbxh16.c ****   LOSS OF USE, DATA, OR PROFITS; OR BUSINESS INTERRUPTION) HOWEVER 
ARM GAS  C:\Users\master\AppData\Local\Temp\ccGsGygi.s 			page 2


  31:u8glib/u8g_pbxh16.c ****   CAUSED AND ON ANY THEORY OF LIABILITY, WHETHER IN CONTRACT, 
  32:u8glib/u8g_pbxh16.c ****   STRICT LIABILITY, OR TORT (INCLUDING NEGLIGENCE OR OTHERWISE) 
  33:u8glib/u8g_pbxh16.c ****   ARISING IN ANY WAY OUT OF THE USE OF THIS SOFTWARE, EVEN IF 
  34:u8glib/u8g_pbxh16.c ****   ADVISED OF THE POSSIBILITY OF SUCH DAMAGE.  
  35:u8glib/u8g_pbxh16.c **** 
  36:u8glib/u8g_pbxh16.c **** 
  37:u8glib/u8g_pbxh16.c **** struct _u8g_pb_t
  38:u8glib/u8g_pbxh16.c **** {
  39:u8glib/u8g_pbxh16.c ****   u8g_page_t p;
  40:u8glib/u8g_pbxh16.c ****   u8g_uint_t width;
  41:u8glib/u8g_pbxh16.c ****   void *buf;
  42:u8glib/u8g_pbxh16.c **** };
  43:u8glib/u8g_pbxh16.c **** typedef struct _u8g_pb_t u8g_pb_t;
  44:u8glib/u8g_pbxh16.c **** 
  45:u8glib/u8g_pbxh16.c **** 
  46:u8glib/u8g_pbxh16.c **** uint8_t u8g_index_color_xh16_buf[2*WIDTH*PAGE_HEIGHT] U8G_NOCOMMON ; 
  47:u8glib/u8g_pbxh16.c **** u8g_pb_t u8g_index_color_xh16_pb = { {PAGE_HEIGHT, HEIGHT, 0, 0, 0},  WIDTH, u8g_index_color_xh16_b
  48:u8glib/u8g_pbxh16.c **** u8g_dev_t name = { dev_fn, &u8g_index_color_xh16_pb , com_fn }
  49:u8glib/u8g_pbxh16.c **** 
  50:u8glib/u8g_pbxh16.c **** */
  51:u8glib/u8g_pbxh16.c **** 
  52:u8glib/u8g_pbxh16.c **** #include "u8g.h"
  53:u8glib/u8g_pbxh16.c **** 
  54:u8glib/u8g_pbxh16.c **** /*
  55:u8glib/u8g_pbxh16.c **** #define WIDTH_BITS 7
  56:u8glib/u8g_pbxh16.c **** #define WIDTH (1<<WIDTH_BITS)
  57:u8glib/u8g_pbxh16.c **** #define PAGE_HEIGHT_BITS 3
  58:u8glib/u8g_pbxh16.c **** #define PAGE_HEIGHT (1<<PAGE_HEIGHT_BITS)
  59:u8glib/u8g_pbxh16.c **** */
  60:u8glib/u8g_pbxh16.c **** 
  61:u8glib/u8g_pbxh16.c **** void u8g_pbxh16_Clear(u8g_pb_t *b)
  62:u8glib/u8g_pbxh16.c **** {
  63:u8glib/u8g_pbxh16.c ****   uint8_t *ptr = (uint8_t *)b->buf;
  64:u8glib/u8g_pbxh16.c ****   uint8_t *end_ptr = ptr;
  65:u8glib/u8g_pbxh16.c ****   uint8_t cnt = b->p.page_height;
  66:u8glib/u8g_pbxh16.c ****   do
  67:u8glib/u8g_pbxh16.c ****   {
  68:u8glib/u8g_pbxh16.c ****     end_ptr += b->width*2;
  69:u8glib/u8g_pbxh16.c ****     cnt--;
  70:u8glib/u8g_pbxh16.c ****   } while( cnt > 0 );
  71:u8glib/u8g_pbxh16.c ****   do
  72:u8glib/u8g_pbxh16.c ****   {
  73:u8glib/u8g_pbxh16.c ****     *ptr++ = 0;
  74:u8glib/u8g_pbxh16.c ****   } while( ptr != end_ptr );
  75:u8glib/u8g_pbxh16.c **** }
  76:u8glib/u8g_pbxh16.c **** 
  77:u8glib/u8g_pbxh16.c **** 
  78:u8glib/u8g_pbxh16.c **** void u8g_pbxh16_Init(u8g_pb_t *b, void *buf, u8g_uint_t width)
  79:u8glib/u8g_pbxh16.c **** {
  80:u8glib/u8g_pbxh16.c ****   b->buf = buf;
  81:u8glib/u8g_pbxh16.c ****   b->width = width;
  82:u8glib/u8g_pbxh16.c ****   u8g_pbxh16_Clear(b);
  83:u8glib/u8g_pbxh16.c **** }
  84:u8glib/u8g_pbxh16.c **** 
  85:u8glib/u8g_pbxh16.c **** static void u8g_pbxh16_set_pixel(u8g_pb_t *b, u8g_uint_t x, u8g_uint_t y, uint8_t low, uint8_t high
  86:u8glib/u8g_pbxh16.c **** {
  29              		.loc 1 86 0
ARM GAS  C:\Users\master\AppData\Local\Temp\ccGsGygi.s 			page 3


  30              		.cfi_startproc
  31              		@ args = 4, pretend = 0, frame = 0
  32              		@ frame_needed = 0, uses_anonymous_args = 0
  33              		@ link register save eliminated.
  34              	.LVL0:
  35 0000 30B4     		push	{r4, r5}
  36              	.LCFI0:
  37              		.cfi_def_cfa_offset 8
  38              		.cfi_offset 4, -8
  39              		.cfi_offset 5, -4
  87:u8glib/u8g_pbxh16.c ****   uint16_t tmp;
  88:u8glib/u8g_pbxh16.c ****   uint8_t *ptr = b->buf;
  40              		.loc 1 88 0
  41 0002 8568     		ldr	r5, [r0, #8]
  42              	.LVL1:
  89:u8glib/u8g_pbxh16.c ****   y -= b->p.page_y0;
  43              		.loc 1 89 0
  44 0004 8478     		ldrb	r4, [r0, #2]	@ zero_extendqisi2
  45 0006 121B     		subs	r2, r2, r4
  46              	.LVL2:
  90:u8glib/u8g_pbxh16.c ****   tmp = y;
  47              		.loc 1 90 0
  48 0008 D2B2     		uxtb	r2, r2
  49              	.LVL3:
  91:u8glib/u8g_pbxh16.c ****   tmp *= b->width;
  50              		.loc 1 91 0
  51 000a 4479     		ldrb	r4, [r0, #5]	@ zero_extendqisi2
  52              	.LVL4:
  92:u8glib/u8g_pbxh16.c ****   tmp += x;
  53              		.loc 1 92 0
  54 000c 04FB0211 		mla	r1, r4, r2, r1
  55              	.LVL5:
  56 0010 89B2     		uxth	r1, r1
  57              	.LVL6:
  93:u8glib/u8g_pbxh16.c ****   tmp <<= 1;
  58              		.loc 1 93 0
  59 0012 4900     		lsls	r1, r1, #1
  60              	.LVL7:
  61 0014 89B2     		uxth	r1, r1
  62              	.LVL8:
  94:u8glib/u8g_pbxh16.c ****   ptr += tmp;
  63              		.loc 1 94 0
  64 0016 6A18     		adds	r2, r5, r1
  65              	.LVL9:
  95:u8glib/u8g_pbxh16.c ****   *ptr = low;
  66              		.loc 1 95 0
  67 0018 6B54     		strb	r3, [r5, r1]
  68              	.LVL10:
  96:u8glib/u8g_pbxh16.c ****   ptr++;
  97:u8glib/u8g_pbxh16.c ****   *ptr = high;
  69              		.loc 1 97 0
  70 001a 9DF80830 		ldrb	r3, [sp, #8]	@ zero_extendqisi2
  71              	.LVL11:
  72 001e 5370     		strb	r3, [r2, #1]
  98:u8glib/u8g_pbxh16.c **** }
  73              		.loc 1 98 0
  74 0020 30BC     		pop	{r4, r5}
ARM GAS  C:\Users\master\AppData\Local\Temp\ccGsGygi.s 			page 4


  75              	.LCFI1:
  76              		.cfi_restore 5
  77              		.cfi_restore 4
  78              		.cfi_def_cfa_offset 0
  79              	.LVL12:
  80 0022 7047     		bx	lr
  81              		.cfi_endproc
  82              	.LFE2:
  84              		.section	.text.u8g_pbxh16_Clear,"ax",%progbits
  85              		.align	2
  86              		.global	u8g_pbxh16_Clear
  87              		.thumb
  88              		.thumb_func
  90              	u8g_pbxh16_Clear:
  91              	.LFB0:
  62:u8glib/u8g_pbxh16.c ****   uint8_t *ptr = (uint8_t *)b->buf;
  92              		.loc 1 62 0
  93              		.cfi_startproc
  94              		@ args = 0, pretend = 0, frame = 0
  95              		@ frame_needed = 0, uses_anonymous_args = 0
  96              		@ link register save eliminated.
  97              	.LVL13:
  98 0000 10B4     		push	{r4}
  99              	.LCFI2:
 100              		.cfi_def_cfa_offset 4
 101              		.cfi_offset 4, -4
  63:u8glib/u8g_pbxh16.c ****   uint8_t *end_ptr = ptr;
 102              		.loc 1 63 0
 103 0002 8268     		ldr	r2, [r0, #8]
 104              	.LVL14:
  65:u8glib/u8g_pbxh16.c ****   do
 105              		.loc 1 65 0
 106 0004 0378     		ldrb	r3, [r0]	@ zero_extendqisi2
 107              	.LVL15:
  64:u8glib/u8g_pbxh16.c ****   uint8_t cnt = b->p.page_height;
 108              		.loc 1 64 0
 109 0006 1146     		mov	r1, r2
 110              	.LVL16:
 111              	.L4:
  68:u8glib/u8g_pbxh16.c ****     cnt--;
 112              		.loc 1 68 0 discriminator 1
 113 0008 4479     		ldrb	r4, [r0, #5]	@ zero_extendqisi2
 114 000a 01EB4401 		add	r1, r1, r4, lsl #1
 115              	.LVL17:
  69:u8glib/u8g_pbxh16.c ****   } while( cnt > 0 );
 116              		.loc 1 69 0 discriminator 1
 117 000e 013B     		subs	r3, r3, #1
 118              	.LVL18:
  70:u8glib/u8g_pbxh16.c ****   do
 119              		.loc 1 70 0 discriminator 1
 120 0010 13F0FF03 		ands	r3, r3, #255
 121              	.LVL19:
 122 0014 F8D1     		bne	.L4
 123              	.LVL20:
 124              	.L5:
  73:u8glib/u8g_pbxh16.c ****   } while( ptr != end_ptr );
 125              		.loc 1 73 0 discriminator 1
ARM GAS  C:\Users\master\AppData\Local\Temp\ccGsGygi.s 			page 5


 126 0016 531C     		adds	r3, r2, #1
 127              	.LVL21:
 128 0018 0020     		movs	r0, #0
 129 001a 1070     		strb	r0, [r2]
 130 001c 1A46     		mov	r2, r3
  74:u8glib/u8g_pbxh16.c **** }
 131              		.loc 1 74 0 discriminator 1
 132 001e 9942     		cmp	r1, r3
 133 0020 F9D1     		bne	.L5
  75:u8glib/u8g_pbxh16.c **** 
 134              		.loc 1 75 0
 135 0022 5DF8044B 		ldr	r4, [sp], #4
 136              	.LCFI3:
 137              		.cfi_restore 4
 138              		.cfi_def_cfa_offset 0
 139 0026 7047     		bx	lr
 140              		.cfi_endproc
 141              	.LFE0:
 143              		.section	.text.u8g_pbxh16_Init,"ax",%progbits
 144              		.align	2
 145              		.global	u8g_pbxh16_Init
 146              		.thumb
 147              		.thumb_func
 149              	u8g_pbxh16_Init:
 150              	.LFB1:
  79:u8glib/u8g_pbxh16.c ****   b->buf = buf;
 151              		.loc 1 79 0
 152              		.cfi_startproc
 153              		@ args = 0, pretend = 0, frame = 0
 154              		@ frame_needed = 0, uses_anonymous_args = 0
 155              	.LVL22:
 156 0000 08B5     		push	{r3, lr}
 157              	.LCFI4:
 158              		.cfi_def_cfa_offset 8
 159              		.cfi_offset 3, -8
 160              		.cfi_offset 14, -4
  80:u8glib/u8g_pbxh16.c ****   b->width = width;
 161              		.loc 1 80 0
 162 0002 8160     		str	r1, [r0, #8]
  81:u8glib/u8g_pbxh16.c ****   u8g_pbxh16_Clear(b);
 163              		.loc 1 81 0
 164 0004 4271     		strb	r2, [r0, #5]
  82:u8glib/u8g_pbxh16.c **** }
 165              		.loc 1 82 0
 166 0006 FFF7FEFF 		bl	u8g_pbxh16_Clear
 167              	.LVL23:
 168 000a 08BD     		pop	{r3, pc}
 169              		.cfi_endproc
 170              	.LFE1:
 172              		.section	.text.u8g_pbxh16_SetPixel,"ax",%progbits
 173              		.align	2
 174              		.global	u8g_pbxh16_SetPixel
 175              		.thumb
 176              		.thumb_func
 178              	u8g_pbxh16_SetPixel:
 179              	.LFB3:
  99:u8glib/u8g_pbxh16.c **** 
ARM GAS  C:\Users\master\AppData\Local\Temp\ccGsGygi.s 			page 6


 100:u8glib/u8g_pbxh16.c **** void u8g_pbxh16_SetPixel(u8g_pb_t *b, const u8g_dev_arg_pixel_t * const arg_pixel)
 101:u8glib/u8g_pbxh16.c **** {
 180              		.loc 1 101 0
 181              		.cfi_startproc
 182              		@ args = 0, pretend = 0, frame = 0
 183              		@ frame_needed = 0, uses_anonymous_args = 0
 184              	.LVL24:
 102:u8glib/u8g_pbxh16.c ****   if ( arg_pixel->y < b->p.page_y0 )
 185              		.loc 1 102 0
 186 0000 4A78     		ldrb	r2, [r1, #1]	@ zero_extendqisi2
 187 0002 8378     		ldrb	r3, [r0, #2]	@ zero_extendqisi2
 188 0004 9A42     		cmp	r2, r3
 189 0006 10D3     		bcc	.L12
 103:u8glib/u8g_pbxh16.c ****     return;
 104:u8glib/u8g_pbxh16.c ****   if ( arg_pixel->y > b->p.page_y1 )
 190              		.loc 1 104 0
 191 0008 C378     		ldrb	r3, [r0, #3]	@ zero_extendqisi2
 192 000a 9A42     		cmp	r2, r3
 193 000c 0DD8     		bhi	.L12
 101:u8glib/u8g_pbxh16.c ****   if ( arg_pixel->y < b->p.page_y0 )
 194              		.loc 1 101 0
 195 000e 30B5     		push	{r4, r5, lr}
 196              	.LCFI5:
 197              		.cfi_def_cfa_offset 12
 198              		.cfi_offset 4, -12
 199              		.cfi_offset 5, -8
 200              		.cfi_offset 14, -4
 201 0010 83B0     		sub	sp, sp, #12
 202              	.LCFI6:
 203              		.cfi_def_cfa_offset 24
 105:u8glib/u8g_pbxh16.c ****     return;
 106:u8glib/u8g_pbxh16.c ****   if ( arg_pixel->x >= b->width )
 204              		.loc 1 106 0
 205 0012 0D78     		ldrb	r5, [r1]	@ zero_extendqisi2
 206 0014 4379     		ldrb	r3, [r0, #5]	@ zero_extendqisi2
 207 0016 9D42     		cmp	r5, r3
 208 0018 05D2     		bcs	.L9
 107:u8glib/u8g_pbxh16.c ****     return;
 108:u8glib/u8g_pbxh16.c ****   u8g_pbxh16_set_pixel(b, arg_pixel->x, arg_pixel->y, arg_pixel->color, arg_pixel->hi_color);
 209              		.loc 1 108 0
 210 001a 0B79     		ldrb	r3, [r1, #4]	@ zero_extendqisi2
 211 001c 4979     		ldrb	r1, [r1, #5]	@ zero_extendqisi2
 212              	.LVL25:
 213 001e 0091     		str	r1, [sp]
 214 0020 2946     		mov	r1, r5
 215 0022 FFF7FEFF 		bl	u8g_pbxh16_set_pixel
 216              	.LVL26:
 217              	.L9:
 109:u8glib/u8g_pbxh16.c **** }
 218              		.loc 1 109 0
 219 0026 03B0     		add	sp, sp, #12
 220              	.LCFI7:
 221              		.cfi_def_cfa_offset 12
 222              		@ sp needed
 223 0028 30BD     		pop	{r4, r5, pc}
 224              	.LVL27:
 225              	.L12:
ARM GAS  C:\Users\master\AppData\Local\Temp\ccGsGygi.s 			page 7


 226              	.LCFI8:
 227              		.cfi_def_cfa_offset 0
 228              		.cfi_restore 4
 229              		.cfi_restore 5
 230              		.cfi_restore 14
 231 002a 7047     		bx	lr
 232              		.cfi_endproc
 233              	.LFE3:
 235              		.section	.text.u8g_pbxh16_Set8Pixel,"ax",%progbits
 236              		.align	2
 237              		.global	u8g_pbxh16_Set8Pixel
 238              		.thumb
 239              		.thumb_func
 241              	u8g_pbxh16_Set8Pixel:
 242              	.LFB4:
 110:u8glib/u8g_pbxh16.c **** 
 111:u8glib/u8g_pbxh16.c **** 
 112:u8glib/u8g_pbxh16.c **** void u8g_pbxh16_Set8Pixel(u8g_pb_t *b, u8g_dev_arg_pixel_t *arg_pixel)
 113:u8glib/u8g_pbxh16.c **** {
 243              		.loc 1 113 0
 244              		.cfi_startproc
 245              		@ args = 0, pretend = 0, frame = 0
 246              		@ frame_needed = 0, uses_anonymous_args = 0
 247              	.LVL28:
 248 0000 2DE9F041 		push	{r4, r5, r6, r7, r8, lr}
 249              	.LCFI9:
 250              		.cfi_def_cfa_offset 24
 251              		.cfi_offset 4, -24
 252              		.cfi_offset 5, -20
 253              		.cfi_offset 6, -16
 254              		.cfi_offset 7, -12
 255              		.cfi_offset 8, -8
 256              		.cfi_offset 14, -4
 257 0004 8046     		mov	r8, r0
 258 0006 0D46     		mov	r5, r1
 114:u8glib/u8g_pbxh16.c ****   register uint8_t pixel = arg_pixel->pixel;
 259              		.loc 1 114 0
 260 0008 8C78     		ldrb	r4, [r1, #2]	@ zero_extendqisi2
 261              	.LVL29:
 115:u8glib/u8g_pbxh16.c ****   u8g_uint_t dx = 0;
 116:u8glib/u8g_pbxh16.c ****   u8g_uint_t dy = 0;
 117:u8glib/u8g_pbxh16.c ****   
 118:u8glib/u8g_pbxh16.c ****   switch( arg_pixel->dir )
 262              		.loc 1 118 0
 263 000a CB78     		ldrb	r3, [r1, #3]	@ zero_extendqisi2
 264 000c 032B     		cmp	r3, #3
 265 000e 03D8     		bhi	.L14
 266 0010 DFE803F0 		tbb	[pc, r3]
 267              	.L16:
 268 0014 0E       		.byte	(.L22-.L16)/2
 269 0015 05       		.byte	(.L17-.L16)/2
 270 0016 08       		.byte	(.L18-.L16)/2
 271 0017 0B       		.byte	(.L19-.L16)/2
 272              		.p2align 1
 273              	.L14:
 116:u8glib/u8g_pbxh16.c ****   
 274              		.loc 1 116 0
ARM GAS  C:\Users\master\AppData\Local\Temp\ccGsGygi.s 			page 8


 275 0018 0026     		movs	r6, #0
 115:u8glib/u8g_pbxh16.c ****   u8g_uint_t dx = 0;
 276              		.loc 1 115 0
 277 001a 3746     		mov	r7, r6
 278 001c 0AE0     		b	.L21
 279              	.L17:
 280              	.LVL30:
 119:u8glib/u8g_pbxh16.c ****   {
 120:u8glib/u8g_pbxh16.c ****     case 0: dx++; break;
 121:u8glib/u8g_pbxh16.c ****     case 1: dy++; break;
 281              		.loc 1 121 0
 282 001e 0126     		movs	r6, #1
 115:u8glib/u8g_pbxh16.c ****   u8g_uint_t dy = 0;
 283              		.loc 1 115 0
 284 0020 0027     		movs	r7, #0
 285              		.loc 1 121 0
 286 0022 07E0     		b	.L21
 287              	.LVL31:
 288              	.L18:
 116:u8glib/u8g_pbxh16.c ****   
 289              		.loc 1 116 0
 290 0024 0026     		movs	r6, #0
 122:u8glib/u8g_pbxh16.c ****     case 2: dx--; break;
 291              		.loc 1 122 0
 292 0026 FF27     		movs	r7, #255
 293 0028 04E0     		b	.L21
 294              	.LVL32:
 295              	.L19:
 123:u8glib/u8g_pbxh16.c ****     case 3: dy--; break;
 296              		.loc 1 123 0
 297 002a FF26     		movs	r6, #255
 115:u8glib/u8g_pbxh16.c ****   u8g_uint_t dy = 0;
 298              		.loc 1 115 0
 299 002c 0027     		movs	r7, #0
 300              		.loc 1 123 0
 301 002e 01E0     		b	.L21
 302              	.LVL33:
 303              	.L22:
 116:u8glib/u8g_pbxh16.c ****   
 304              		.loc 1 116 0
 305 0030 0026     		movs	r6, #0
 120:u8glib/u8g_pbxh16.c ****     case 1: dy++; break;
 306              		.loc 1 120 0
 307 0032 0127     		movs	r7, #1
 308              	.LVL34:
 309              	.L21:
 124:u8glib/u8g_pbxh16.c ****   }
 125:u8glib/u8g_pbxh16.c ****   
 126:u8glib/u8g_pbxh16.c ****   do
 127:u8glib/u8g_pbxh16.c ****   {
 128:u8glib/u8g_pbxh16.c ****     if ( pixel & 128 )
 310              		.loc 1 128 0
 311 0034 14F0800F 		tst	r4, #128
 312 0038 03D0     		beq	.L20
 129:u8glib/u8g_pbxh16.c ****       u8g_pbxh16_SetPixel(b, arg_pixel);
 313              		.loc 1 129 0
 314 003a 2946     		mov	r1, r5
ARM GAS  C:\Users\master\AppData\Local\Temp\ccGsGygi.s 			page 9


 315 003c 4046     		mov	r0, r8
 316 003e FFF7FEFF 		bl	u8g_pbxh16_SetPixel
 317              	.LVL35:
 318              	.L20:
 130:u8glib/u8g_pbxh16.c ****     arg_pixel->x += dx;
 319              		.loc 1 130 0
 320 0042 2B78     		ldrb	r3, [r5]	@ zero_extendqisi2
 321 0044 3B44     		add	r3, r3, r7
 322 0046 2B70     		strb	r3, [r5]
 131:u8glib/u8g_pbxh16.c ****     arg_pixel->y += dy;
 323              		.loc 1 131 0
 324 0048 6B78     		ldrb	r3, [r5, #1]	@ zero_extendqisi2
 325 004a 3344     		add	r3, r3, r6
 326 004c 6B70     		strb	r3, [r5, #1]
 132:u8glib/u8g_pbxh16.c ****     pixel <<= 1;
 327              		.loc 1 132 0
 328 004e 6400     		lsls	r4, r4, #1
 329              	.LVL36:
 133:u8glib/u8g_pbxh16.c ****   } while( pixel != 0  );  
 330              		.loc 1 133 0
 331 0050 14F0FF04 		ands	r4, r4, #255
 332              	.LVL37:
 333 0054 EED1     		bne	.L21
 134:u8glib/u8g_pbxh16.c **** }
 334              		.loc 1 134 0
 335 0056 BDE8F081 		pop	{r4, r5, r6, r7, r8, pc}
 336              		.cfi_endproc
 337              	.LFE4:
 339 005a 00BF     		.section	.text.u8g_dev_pbxh16_base_fn,"ax",%progbits
 340              		.align	2
 341              		.global	u8g_dev_pbxh16_base_fn
 342              		.thumb
 343              		.thumb_func
 345              	u8g_dev_pbxh16_base_fn:
 346              	.LFB5:
 135:u8glib/u8g_pbxh16.c **** 
 136:u8glib/u8g_pbxh16.c **** 
 137:u8glib/u8g_pbxh16.c **** uint8_t u8g_dev_pbxh16_base_fn(u8g_t *u8g, u8g_dev_t *dev, uint8_t msg, void *arg)
 138:u8glib/u8g_pbxh16.c **** {
 347              		.loc 1 138 0
 348              		.cfi_startproc
 349              		@ args = 0, pretend = 0, frame = 0
 350              		@ frame_needed = 0, uses_anonymous_args = 0
 351              	.LVL38:
 352 0000 38B5     		push	{r3, r4, r5, lr}
 353              	.LCFI10:
 354              		.cfi_def_cfa_offset 16
 355              		.cfi_offset 3, -16
 356              		.cfi_offset 4, -12
 357              		.cfi_offset 5, -8
 358              		.cfi_offset 14, -4
 359 0002 1D46     		mov	r5, r3
 139:u8glib/u8g_pbxh16.c ****   u8g_pb_t *pb = (u8g_pb_t *)(dev->dev_mem);
 360              		.loc 1 139 0
 361 0004 4C68     		ldr	r4, [r1, #4]
 362              	.LVL39:
 140:u8glib/u8g_pbxh16.c ****   switch(msg)
ARM GAS  C:\Users\master\AppData\Local\Temp\ccGsGygi.s 			page 10


 363              		.loc 1 140 0
 364 0006 143A     		subs	r2, r2, #20
 365              	.LVL40:
 366 0008 342A     		cmp	r2, #52
 367 000a 4FD8     		bhi	.L35
 368 000c DFE802F0 		tbb	[pc, r2]
 369              	.LVL41:
 370              	.L27:
 371 0010 2E       		.byte	(.L26-.L27)/2
 372 0011 36       		.byte	(.L28-.L27)/2
 373 0012 4E       		.byte	(.L35-.L27)/2
 374 0013 40       		.byte	(.L29-.L27)/2
 375 0014 4E       		.byte	(.L35-.L27)/2
 376 0015 4E       		.byte	(.L35-.L27)/2
 377 0016 4E       		.byte	(.L35-.L27)/2
 378 0017 4E       		.byte	(.L35-.L27)/2
 379 0018 4E       		.byte	(.L35-.L27)/2
 380 0019 4E       		.byte	(.L35-.L27)/2
 381 001a 4E       		.byte	(.L35-.L27)/2
 382 001b 4E       		.byte	(.L35-.L27)/2
 383 001c 4E       		.byte	(.L35-.L27)/2
 384 001d 4E       		.byte	(.L35-.L27)/2
 385 001e 4E       		.byte	(.L35-.L27)/2
 386 001f 4E       		.byte	(.L35-.L27)/2
 387 0020 4E       		.byte	(.L35-.L27)/2
 388 0021 4E       		.byte	(.L35-.L27)/2
 389 0022 4E       		.byte	(.L35-.L27)/2
 390 0023 4E       		.byte	(.L35-.L27)/2
 391 0024 4E       		.byte	(.L35-.L27)/2
 392 0025 4E       		.byte	(.L35-.L27)/2
 393 0026 4E       		.byte	(.L35-.L27)/2
 394 0027 4E       		.byte	(.L35-.L27)/2
 395 0028 4E       		.byte	(.L35-.L27)/2
 396 0029 4E       		.byte	(.L35-.L27)/2
 397 002a 4E       		.byte	(.L35-.L27)/2
 398 002b 4E       		.byte	(.L35-.L27)/2
 399 002c 4E       		.byte	(.L35-.L27)/2
 400 002d 4E       		.byte	(.L35-.L27)/2
 401 002e 28       		.byte	(.L30-.L27)/2
 402 002f 4E       		.byte	(.L35-.L27)/2
 403 0030 4E       		.byte	(.L35-.L27)/2
 404 0031 4E       		.byte	(.L35-.L27)/2
 405 0032 4E       		.byte	(.L35-.L27)/2
 406 0033 4E       		.byte	(.L35-.L27)/2
 407 0034 4E       		.byte	(.L35-.L27)/2
 408 0035 4E       		.byte	(.L35-.L27)/2
 409 0036 4E       		.byte	(.L35-.L27)/2
 410 0037 1D       		.byte	(.L31-.L27)/2
 411 0038 4E       		.byte	(.L35-.L27)/2
 412 0039 4E       		.byte	(.L35-.L27)/2
 413 003a 4E       		.byte	(.L35-.L27)/2
 414 003b 4E       		.byte	(.L35-.L27)/2
 415 003c 4E       		.byte	(.L35-.L27)/2
 416 003d 4E       		.byte	(.L35-.L27)/2
 417 003e 4E       		.byte	(.L35-.L27)/2
 418 003f 4E       		.byte	(.L35-.L27)/2
 419 0040 4E       		.byte	(.L35-.L27)/2
ARM GAS  C:\Users\master\AppData\Local\Temp\ccGsGygi.s 			page 11


 420 0041 4E       		.byte	(.L35-.L27)/2
 421 0042 46       		.byte	(.L32-.L27)/2
 422 0043 4A       		.byte	(.L33-.L27)/2
 423 0044 1B       		.byte	(.L34-.L27)/2
 424 0045 00       		.p2align 1
 425              	.L34:
 141:u8glib/u8g_pbxh16.c ****   {
 142:u8glib/u8g_pbxh16.c ****     case U8G_DEV_MSG_SET_8PIXEL:
 143:u8glib/u8g_pbxh16.c ****       if ( u8g_pb_Is8PixelVisible(pb, (u8g_dev_arg_pixel_t *)arg) )
 144:u8glib/u8g_pbxh16.c ****         u8g_pbxh16_Set8Pixel(pb, (u8g_dev_arg_pixel_t *)arg);
 145:u8glib/u8g_pbxh16.c ****       break;
 146:u8glib/u8g_pbxh16.c ****     case U8G_DEV_MSG_SET_PIXEL:
 147:u8glib/u8g_pbxh16.c ****       u8g_pbxh16_SetPixel(pb, (u8g_dev_arg_pixel_t *)arg);
 148:u8glib/u8g_pbxh16.c ****       break;
 149:u8glib/u8g_pbxh16.c ****     case U8G_DEV_MSG_INIT:
 150:u8glib/u8g_pbxh16.c ****       break;
 151:u8glib/u8g_pbxh16.c ****     case U8G_DEV_MSG_STOP:
 152:u8glib/u8g_pbxh16.c ****       break;
 153:u8glib/u8g_pbxh16.c ****     case U8G_DEV_MSG_PAGE_FIRST:
 154:u8glib/u8g_pbxh16.c ****       u8g_pbxh16_Clear(pb);
 155:u8glib/u8g_pbxh16.c ****       u8g_page_First(&(pb->p));
 156:u8glib/u8g_pbxh16.c ****       break;
 157:u8glib/u8g_pbxh16.c ****     case U8G_DEV_MSG_PAGE_NEXT:
 158:u8glib/u8g_pbxh16.c ****       if ( u8g_page_Next(&(pb->p)) == 0 )
 159:u8glib/u8g_pbxh16.c ****         return 0;
 160:u8glib/u8g_pbxh16.c ****       u8g_pbxh16_Clear(pb);
 161:u8glib/u8g_pbxh16.c ****       break;
 162:u8glib/u8g_pbxh16.c **** #ifdef U8G_DEV_MSG_IS_BBX_INTERSECTION
 163:u8glib/u8g_pbxh16.c ****     case U8G_DEV_MSG_IS_BBX_INTERSECTION:
 164:u8glib/u8g_pbxh16.c ****       return u8g_pb_IsIntersection(pb, (u8g_dev_arg_bbx_t *)arg);
 165:u8glib/u8g_pbxh16.c **** #endif
 166:u8glib/u8g_pbxh16.c ****     case U8G_DEV_MSG_GET_PAGE_BOX:
 167:u8glib/u8g_pbxh16.c ****       u8g_pb_GetPageBox(pb, (u8g_box_t *)arg);
 168:u8glib/u8g_pbxh16.c ****       break;
 169:u8glib/u8g_pbxh16.c ****     case U8G_DEV_MSG_GET_WIDTH:
 170:u8glib/u8g_pbxh16.c ****       *((u8g_uint_t *)arg) = pb->width;
 171:u8glib/u8g_pbxh16.c ****       break;
 172:u8glib/u8g_pbxh16.c ****     case U8G_DEV_MSG_GET_HEIGHT:
 173:u8glib/u8g_pbxh16.c ****       *((u8g_uint_t *)arg) = pb->p.total_height;
 174:u8glib/u8g_pbxh16.c ****       break;
 175:u8glib/u8g_pbxh16.c ****     case U8G_DEV_MSG_SET_COLOR_ENTRY:
 176:u8glib/u8g_pbxh16.c ****       break;
 177:u8glib/u8g_pbxh16.c ****     case U8G_DEV_MSG_SET_XY_CB:
 178:u8glib/u8g_pbxh16.c ****       break;
 179:u8glib/u8g_pbxh16.c ****     case U8G_DEV_MSG_GET_MODE:
 180:u8glib/u8g_pbxh16.c ****       return U8G_MODE_HICOLOR;
 426              		.loc 1 180 0
 427 0046 3023     		movs	r3, #48
 428 0048 33E0     		b	.L25
 429              	.L31:
 143:u8glib/u8g_pbxh16.c ****         u8g_pbxh16_Set8Pixel(pb, (u8g_dev_arg_pixel_t *)arg);
 430              		.loc 1 143 0
 431 004a 2946     		mov	r1, r5
 432              	.LVL42:
 433 004c 2046     		mov	r0, r4
 434              	.LVL43:
 435 004e FFF7FEFF 		bl	u8g_pb_Is8PixelVisible
ARM GAS  C:\Users\master\AppData\Local\Temp\ccGsGygi.s 			page 12


 436              	.LVL44:
 437 0052 68B3     		cbz	r0, .L36
 144:u8glib/u8g_pbxh16.c ****       break;
 438              		.loc 1 144 0
 439 0054 2946     		mov	r1, r5
 440 0056 2046     		mov	r0, r4
 441 0058 FFF7FEFF 		bl	u8g_pbxh16_Set8Pixel
 442              	.LVL45:
 181:u8glib/u8g_pbxh16.c ****   }
 182:u8glib/u8g_pbxh16.c ****   return 1;
 443              		.loc 1 182 0
 444 005c 0123     		movs	r3, #1
 445 005e 28E0     		b	.L25
 446              	.LVL46:
 447              	.L30:
 147:u8glib/u8g_pbxh16.c ****       break;
 448              		.loc 1 147 0
 449 0060 2946     		mov	r1, r5
 450              	.LVL47:
 451 0062 2046     		mov	r0, r4
 452              	.LVL48:
 453 0064 FFF7FEFF 		bl	u8g_pbxh16_SetPixel
 454              	.LVL49:
 455              		.loc 1 182 0
 456 0068 0123     		movs	r3, #1
 148:u8glib/u8g_pbxh16.c ****     case U8G_DEV_MSG_INIT:
 457              		.loc 1 148 0
 458 006a 22E0     		b	.L25
 459              	.LVL50:
 460              	.L26:
 154:u8glib/u8g_pbxh16.c ****       u8g_page_First(&(pb->p));
 461              		.loc 1 154 0
 462 006c 2046     		mov	r0, r4
 463              	.LVL51:
 464 006e FFF7FEFF 		bl	u8g_pbxh16_Clear
 465              	.LVL52:
 155:u8glib/u8g_pbxh16.c ****       break;
 466              		.loc 1 155 0
 467 0072 2046     		mov	r0, r4
 468 0074 FFF7FEFF 		bl	u8g_page_First
 469              	.LVL53:
 470              		.loc 1 182 0
 471 0078 0123     		movs	r3, #1
 156:u8glib/u8g_pbxh16.c ****     case U8G_DEV_MSG_PAGE_NEXT:
 472              		.loc 1 156 0
 473 007a 1AE0     		b	.L25
 474              	.LVL54:
 475              	.L28:
 158:u8glib/u8g_pbxh16.c ****         return 0;
 476              		.loc 1 158 0
 477 007c 2046     		mov	r0, r4
 478              	.LVL55:
 479 007e FFF7FEFF 		bl	u8g_page_Next
 480              	.LVL56:
 481 0082 0346     		mov	r3, r0
 482 0084 A8B1     		cbz	r0, .L25
 160:u8glib/u8g_pbxh16.c ****       break;
ARM GAS  C:\Users\master\AppData\Local\Temp\ccGsGygi.s 			page 13


 483              		.loc 1 160 0
 484 0086 2046     		mov	r0, r4
 485 0088 FFF7FEFF 		bl	u8g_pbxh16_Clear
 486              	.LVL57:
 487              		.loc 1 182 0
 488 008c 0123     		movs	r3, #1
 161:u8glib/u8g_pbxh16.c **** #ifdef U8G_DEV_MSG_IS_BBX_INTERSECTION
 489              		.loc 1 161 0
 490 008e 10E0     		b	.L25
 491              	.LVL58:
 492              	.L29:
 167:u8glib/u8g_pbxh16.c ****       break;
 493              		.loc 1 167 0
 494 0090 2946     		mov	r1, r5
 495              	.LVL59:
 496 0092 2046     		mov	r0, r4
 497              	.LVL60:
 498 0094 FFF7FEFF 		bl	u8g_pb_GetPageBox
 499              	.LVL61:
 500              		.loc 1 182 0
 501 0098 0123     		movs	r3, #1
 168:u8glib/u8g_pbxh16.c ****     case U8G_DEV_MSG_GET_WIDTH:
 502              		.loc 1 168 0
 503 009a 0AE0     		b	.L25
 504              	.LVL62:
 505              	.L32:
 170:u8glib/u8g_pbxh16.c ****       break;
 506              		.loc 1 170 0
 507 009c 6379     		ldrb	r3, [r4, #5]	@ zero_extendqisi2
 508 009e 2B70     		strb	r3, [r5]
 509              		.loc 1 182 0
 510 00a0 0123     		movs	r3, #1
 171:u8glib/u8g_pbxh16.c ****     case U8G_DEV_MSG_GET_HEIGHT:
 511              		.loc 1 171 0
 512 00a2 06E0     		b	.L25
 513              	.L33:
 173:u8glib/u8g_pbxh16.c ****       break;
 514              		.loc 1 173 0
 515 00a4 6378     		ldrb	r3, [r4, #1]	@ zero_extendqisi2
 516 00a6 2B70     		strb	r3, [r5]
 517              		.loc 1 182 0
 518 00a8 0123     		movs	r3, #1
 174:u8glib/u8g_pbxh16.c ****     case U8G_DEV_MSG_SET_COLOR_ENTRY:
 519              		.loc 1 174 0
 520 00aa 02E0     		b	.L25
 521              	.L35:
 522              		.loc 1 182 0
 523 00ac 0123     		movs	r3, #1
 524 00ae 00E0     		b	.L25
 525              	.LVL63:
 526              	.L36:
 527 00b0 0123     		movs	r3, #1
 528              	.L25:
 183:u8glib/u8g_pbxh16.c **** }
 529              		.loc 1 183 0
 530 00b2 1846     		mov	r0, r3
 531 00b4 38BD     		pop	{r3, r4, r5, pc}
ARM GAS  C:\Users\master\AppData\Local\Temp\ccGsGygi.s 			page 14


 532              		.cfi_endproc
 533              	.LFE5:
 535 00b6 00BF     		.text
 536              	.Letext0:
 537              		.file 2 "c:\\program files (x86)\\gnu tools arm embedded\\5.4 2016q3\\arm-none-eabi\\include\\mach
 538              		.file 3 "c:\\program files (x86)\\gnu tools arm embedded\\5.4 2016q3\\arm-none-eabi\\include\\sys\
 539              		.file 4 "u8glib/u8g.h"
ARM GAS  C:\Users\master\AppData\Local\Temp\ccGsGygi.s 			page 15

