ARM GAS  C:\Users\master\AppData\Local\Temp\cc4icg2r.s 			page 1


   1              		.syntax unified
   2              		.cpu cortex-m4
   3              		.eabi_attribute 27, 1
   4              		.eabi_attribute 28, 1
   5              		.fpu fpv4-sp-d16
   6              		.eabi_attribute 20, 1
   7              		.eabi_attribute 21, 1
   8              		.eabi_attribute 23, 3
   9              		.eabi_attribute 24, 1
  10              		.eabi_attribute 25, 1
  11              		.eabi_attribute 26, 1
  12              		.eabi_attribute 30, 1
  13              		.eabi_attribute 34, 1
  14              		.eabi_attribute 18, 4
  15              		.thumb
  16              		.syntax unified
  17              		.file	"u8g_font.c"
  18              		.text
  19              	.Ltext0:
  20              		.cfi_sections	.debug_frame
  21              		.section	.text.u8g_font_get_byte,"ax",%progbits
  22              		.align	2
  23              		.thumb
  24              		.thumb_func
  26              	u8g_font_get_byte:
  27              	.LFB0:
  28              		.file 1 "u8glib/u8g_font.c"
   1:u8glib/u8g_font.c **** /*
   2:u8glib/u8g_font.c **** 
   3:u8glib/u8g_font.c ****   u8g_font.c
   4:u8glib/u8g_font.c ****   
   5:u8glib/u8g_font.c ****   U8G Font High Level Interface
   6:u8glib/u8g_font.c **** 
   7:u8glib/u8g_font.c ****   Universal 8bit Graphics Library
   8:u8glib/u8g_font.c ****   
   9:u8glib/u8g_font.c ****   Copyright (c) 2011, olikraus@gmail.com
  10:u8glib/u8g_font.c ****   All rights reserved.
  11:u8glib/u8g_font.c **** 
  12:u8glib/u8g_font.c ****   Redistribution and use in source and binary forms, with or without modification, 
  13:u8glib/u8g_font.c ****   are permitted provided that the following conditions are met:
  14:u8glib/u8g_font.c **** 
  15:u8glib/u8g_font.c ****   * Redistributions of source code must retain the above copyright notice, this list 
  16:u8glib/u8g_font.c ****     of conditions and the following disclaimer.
  17:u8glib/u8g_font.c ****     
  18:u8glib/u8g_font.c ****   * Redistributions in binary form must reproduce the above copyright notice, this 
  19:u8glib/u8g_font.c ****     list of conditions and the following disclaimer in the documentation and/or other 
  20:u8glib/u8g_font.c ****     materials provided with the distribution.
  21:u8glib/u8g_font.c **** 
  22:u8glib/u8g_font.c ****   THIS SOFTWARE IS PROVIDED BY THE COPYRIGHT HOLDERS AND 
  23:u8glib/u8g_font.c ****   CONTRIBUTORS "AS IS" AND ANY EXPRESS OR IMPLIED WARRANTIES, 
  24:u8glib/u8g_font.c ****   INCLUDING, BUT NOT LIMITED TO, THE IMPLIED WARRANTIES OF 
  25:u8glib/u8g_font.c ****   MERCHANTABILITY AND FITNESS FOR A PARTICULAR PURPOSE ARE 
  26:u8glib/u8g_font.c ****   DISCLAIMED. IN NO EVENT SHALL THE COPYRIGHT HOLDER OR 
  27:u8glib/u8g_font.c ****   CONTRIBUTORS BE LIABLE FOR ANY DIRECT, INDIRECT, INCIDENTAL, 
  28:u8glib/u8g_font.c ****   SPECIAL, EXEMPLARY, OR CONSEQUENTIAL DAMAGES (INCLUDING, BUT 
  29:u8glib/u8g_font.c ****   NOT LIMITED TO, PROCUREMENT OF SUBSTITUTE GOODS OR SERVICES; 
  30:u8glib/u8g_font.c ****   LOSS OF USE, DATA, OR PROFITS; OR BUSINESS INTERRUPTION) HOWEVER 
ARM GAS  C:\Users\master\AppData\Local\Temp\cc4icg2r.s 			page 2


  31:u8glib/u8g_font.c ****   CAUSED AND ON ANY THEORY OF LIABILITY, WHETHER IN CONTRACT, 
  32:u8glib/u8g_font.c ****   STRICT LIABILITY, OR TORT (INCLUDING NEGLIGENCE OR OTHERWISE) 
  33:u8glib/u8g_font.c ****   ARISING IN ANY WAY OUT OF THE USE OF THIS SOFTWARE, EVEN IF 
  34:u8glib/u8g_font.c ****   ADVISED OF THE POSSIBILITY OF SUCH DAMAGE.  
  35:u8glib/u8g_font.c ****   
  36:u8glib/u8g_font.c **** */
  37:u8glib/u8g_font.c **** 
  38:u8glib/u8g_font.c **** #include "u8g.h"
  39:u8glib/u8g_font.c **** 
  40:u8glib/u8g_font.c **** /* font api */
  41:u8glib/u8g_font.c **** 
  42:u8glib/u8g_font.c **** /* pointer to the start adress of the glyph, points to progmem area */
  43:u8glib/u8g_font.c **** typedef void * u8g_glyph_t;
  44:u8glib/u8g_font.c **** 
  45:u8glib/u8g_font.c **** /* size of the font data structure, there is no struct or class... */
  46:u8glib/u8g_font.c **** #define U8G_FONT_DATA_STRUCT_SIZE 17
  47:u8glib/u8g_font.c **** 
  48:u8glib/u8g_font.c **** /*
  49:u8glib/u8g_font.c ****   ... instead the fields of the font data structure are accessed directly by offset 
  50:u8glib/u8g_font.c ****   font information 
  51:u8glib/u8g_font.c ****   offset
  52:u8glib/u8g_font.c ****   0             font format
  53:u8glib/u8g_font.c ****   1             FONTBOUNDINGBOX width           unsigned
  54:u8glib/u8g_font.c ****   2             FONTBOUNDINGBOX height          unsigned
  55:u8glib/u8g_font.c ****   3             FONTBOUNDINGBOX x-offset         signed
  56:u8glib/u8g_font.c ****   4             FONTBOUNDINGBOX y-offset        signed
  57:u8glib/u8g_font.c ****   5             capital A height                                unsigned
  58:u8glib/u8g_font.c ****   6             start 'A'
  59:u8glib/u8g_font.c ****   8             start 'a'
  60:u8glib/u8g_font.c ****   10            encoding start
  61:u8glib/u8g_font.c ****   11            encoding end
  62:u8glib/u8g_font.c ****   12            descent 'g'                     negative: below baseline
  63:u8glib/u8g_font.c ****   13            font max ascent
  64:u8glib/u8g_font.c ****   14            font min decent             negative: below baseline 
  65:u8glib/u8g_font.c ****   15            font xascent
  66:u8glib/u8g_font.c ****   16            font xdecent             negative: below baseline 
  67:u8glib/u8g_font.c ****   
  68:u8glib/u8g_font.c **** */
  69:u8glib/u8g_font.c **** 
  70:u8glib/u8g_font.c **** /* use case: What is the width and the height of the minimal box into which string s fints? */
  71:u8glib/u8g_font.c **** void u8g_font_GetStrSize(const void *font, const char *s, u8g_uint_t *width, u8g_uint_t *height);
  72:u8glib/u8g_font.c **** void u8g_font_GetStrSizeP(const void *font, const char *s, u8g_uint_t *width, u8g_uint_t *height);
  73:u8glib/u8g_font.c **** 
  74:u8glib/u8g_font.c **** /* use case: lower left edge of a minimal box is known, what is the correct x, y position for the s
  75:u8glib/u8g_font.c **** void u8g_font_AdjustXYToDraw(const void *font, const char *s, u8g_uint_t *x, u8g_uint_t *y);
  76:u8glib/u8g_font.c **** void u8g_font_AdjustXYToDrawP(const void *font, const char *s, u8g_uint_t *x, u8g_uint_t *y);
  77:u8glib/u8g_font.c **** 
  78:u8glib/u8g_font.c **** /* use case: Baseline origin known, return minimal box */
  79:u8glib/u8g_font.c **** void u8g_font_GetStrMinBox(u8g_t *u8g, const void *font, const char *s, u8g_uint_t *x, u8g_uint_t *
  80:u8glib/u8g_font.c **** 
  81:u8glib/u8g_font.c **** /* procedures */
  82:u8glib/u8g_font.c **** 
  83:u8glib/u8g_font.c **** /*========================================================================*/
  84:u8glib/u8g_font.c **** /* low level byte and word access */
  85:u8glib/u8g_font.c **** 
  86:u8glib/u8g_font.c **** /* removed NOINLINE, because it leads to smaller code, might also be faster */
  87:u8glib/u8g_font.c **** //static uint8_t u8g_font_get_byte(const u8g_fntpgm_uint8_t *font, uint8_t offset) U8G_NOINLINE;
ARM GAS  C:\Users\master\AppData\Local\Temp\cc4icg2r.s 			page 3


  88:u8glib/u8g_font.c **** static uint8_t u8g_font_get_byte(const u8g_fntpgm_uint8_t *font, uint8_t offset)
  89:u8glib/u8g_font.c **** {
  29              		.loc 1 89 0
  30              		.cfi_startproc
  31              		@ args = 0, pretend = 0, frame = 0
  32              		@ frame_needed = 0, uses_anonymous_args = 0
  33              		@ link register save eliminated.
  34              	.LVL0:
  90:u8glib/u8g_font.c ****   font += offset;
  91:u8glib/u8g_font.c ****   return u8g_pgm_read( (u8g_pgm_uint8_t *)font );  
  92:u8glib/u8g_font.c **** }
  35              		.loc 1 92 0
  36 0000 405C     		ldrb	r0, [r0, r1]	@ zero_extendqisi2
  37              	.LVL1:
  38 0002 7047     		bx	lr
  39              		.cfi_endproc
  40              	.LFE0:
  42              		.section	.text.u8g_font_get_word,"ax",%progbits
  43              		.align	2
  44              		.thumb
  45              		.thumb_func
  47              	u8g_font_get_word:
  48              	.LFB1:
  93:u8glib/u8g_font.c **** 
  94:u8glib/u8g_font.c **** static uint16_t u8g_font_get_word(const u8g_fntpgm_uint8_t *font, uint8_t offset) U8G_NOINLINE; 
  95:u8glib/u8g_font.c **** static uint16_t u8g_font_get_word(const u8g_fntpgm_uint8_t *font, uint8_t offset)
  96:u8glib/u8g_font.c **** {
  49              		.loc 1 96 0
  50              		.cfi_startproc
  51              		@ args = 0, pretend = 0, frame = 0
  52              		@ frame_needed = 0, uses_anonymous_args = 0
  53              		@ link register save eliminated.
  54              	.LVL2:
  97:u8glib/u8g_font.c ****     uint16_t pos;
  98:u8glib/u8g_font.c ****     font += offset;
  55              		.loc 1 98 0
  56 0000 4318     		adds	r3, r0, r1
  57              	.LVL3:
  99:u8glib/u8g_font.c ****     pos = u8g_pgm_read( (u8g_pgm_uint8_t *)font );
  58              		.loc 1 99 0
  59 0002 405C     		ldrb	r0, [r0, r1]	@ zero_extendqisi2
  60              	.LVL4:
 100:u8glib/u8g_font.c ****     font++;
 101:u8glib/u8g_font.c ****     pos <<= 8;
 102:u8glib/u8g_font.c ****     pos += u8g_pgm_read( (u8g_pgm_uint8_t *)font);
  61              		.loc 1 102 0
  62 0004 5B78     		ldrb	r3, [r3, #1]	@ zero_extendqisi2
  63              	.LVL5:
  64 0006 03EB0020 		add	r0, r3, r0, lsl #8
  65              	.LVL6:
 103:u8glib/u8g_font.c ****     return pos;
 104:u8glib/u8g_font.c **** }
  66              		.loc 1 104 0
  67 000a 80B2     		uxth	r0, r0
  68 000c 7047     		bx	lr
  69              		.cfi_endproc
  70              	.LFE1:
ARM GAS  C:\Users\master\AppData\Local\Temp\cc4icg2r.s 			page 4


  72 000e 00BF     		.section	.text.u8g_font_GetFormat,"ax",%progbits
  73              		.align	2
  74              		.thumb
  75              		.thumb_func
  77              	u8g_font_GetFormat:
  78              	.LFB2:
 105:u8glib/u8g_font.c **** 
 106:u8glib/u8g_font.c **** /*========================================================================*/
 107:u8glib/u8g_font.c **** /* direct access on the font */
 108:u8glib/u8g_font.c **** 
 109:u8glib/u8g_font.c **** static uint8_t u8g_font_GetFormat(const u8g_fntpgm_uint8_t *font) U8G_NOINLINE;
 110:u8glib/u8g_font.c **** static uint8_t u8g_font_GetFormat(const u8g_fntpgm_uint8_t *font)
 111:u8glib/u8g_font.c **** {
  79              		.loc 1 111 0
  80              		.cfi_startproc
  81              		@ args = 0, pretend = 0, frame = 0
  82              		@ frame_needed = 0, uses_anonymous_args = 0
  83              	.LVL7:
  84 0000 08B5     		push	{r3, lr}
  85              	.LCFI0:
  86              		.cfi_def_cfa_offset 8
  87              		.cfi_offset 3, -8
  88              		.cfi_offset 14, -4
 112:u8glib/u8g_font.c ****   return u8g_font_get_byte(font, 0);
  89              		.loc 1 112 0
  90 0002 0021     		movs	r1, #0
  91 0004 FFF7FEFF 		bl	u8g_font_get_byte
  92              	.LVL8:
 113:u8glib/u8g_font.c **** }
  93              		.loc 1 113 0
  94 0008 08BD     		pop	{r3, pc}
  95              		.cfi_endproc
  96              	.LFE2:
  98 000a 00BF     		.section	.text.u8g_font_GetFontGlyphStructureSize,"ax",%progbits
  99              		.align	2
 100              		.thumb
 101              		.thumb_func
 103              	u8g_font_GetFontGlyphStructureSize:
 104              	.LFB3:
 114:u8glib/u8g_font.c **** 
 115:u8glib/u8g_font.c **** static uint8_t u8g_font_GetFontGlyphStructureSize(const u8g_fntpgm_uint8_t *font) U8G_NOINLINE;
 116:u8glib/u8g_font.c **** static uint8_t u8g_font_GetFontGlyphStructureSize(const u8g_fntpgm_uint8_t *font)
 117:u8glib/u8g_font.c **** {
 105              		.loc 1 117 0
 106              		.cfi_startproc
 107              		@ args = 0, pretend = 0, frame = 0
 108              		@ frame_needed = 0, uses_anonymous_args = 0
 109              	.LVL9:
 110 0000 08B5     		push	{r3, lr}
 111              	.LCFI1:
 112              		.cfi_def_cfa_offset 8
 113              		.cfi_offset 3, -8
 114              		.cfi_offset 14, -4
 118:u8glib/u8g_font.c ****   switch(u8g_font_GetFormat(font))
 115              		.loc 1 118 0
 116 0002 FFF7FEFF 		bl	u8g_font_GetFormat
 117              	.LVL10:
ARM GAS  C:\Users\master\AppData\Local\Temp\cc4icg2r.s 			page 5


 118 0006 08B1     		cbz	r0, .L7
 119 0008 0228     		cmp	r0, #2
 120 000a 01D1     		bne	.L9
 121              	.L7:
 119:u8glib/u8g_font.c ****   {
 120:u8glib/u8g_font.c ****     case 0: return 6;
 122              		.loc 1 120 0
 123 000c 0620     		movs	r0, #6
 124 000e 08BD     		pop	{r3, pc}
 125              	.L9:
 121:u8glib/u8g_font.c ****     case 1: return 3;
 126              		.loc 1 121 0
 127 0010 0320     		movs	r0, #3
 122:u8glib/u8g_font.c ****     case 2: return 6;
 123:u8glib/u8g_font.c ****   }
 124:u8glib/u8g_font.c ****   return 3;
 125:u8glib/u8g_font.c **** }
 128              		.loc 1 125 0
 129 0012 08BD     		pop	{r3, pc}
 130              		.cfi_endproc
 131              	.LFE3:
 133              		.section	.text.u8g_font_GetBBXWidth,"ax",%progbits
 134              		.align	2
 135              		.thumb
 136              		.thumb_func
 138              	u8g_font_GetBBXWidth:
 139              	.LFB4:
 126:u8glib/u8g_font.c **** 
 127:u8glib/u8g_font.c **** static uint8_t u8g_font_GetBBXWidth(const void *font)
 128:u8glib/u8g_font.c **** {
 140              		.loc 1 128 0
 141              		.cfi_startproc
 142              		@ args = 0, pretend = 0, frame = 0
 143              		@ frame_needed = 0, uses_anonymous_args = 0
 144              	.LVL11:
 145 0000 08B5     		push	{r3, lr}
 146              	.LCFI2:
 147              		.cfi_def_cfa_offset 8
 148              		.cfi_offset 3, -8
 149              		.cfi_offset 14, -4
 129:u8glib/u8g_font.c ****   return u8g_font_get_byte(font, 1);
 150              		.loc 1 129 0
 151 0002 0121     		movs	r1, #1
 152 0004 FFF7FEFF 		bl	u8g_font_get_byte
 153              	.LVL12:
 130:u8glib/u8g_font.c **** }
 154              		.loc 1 130 0
 155 0008 08BD     		pop	{r3, pc}
 156              		.cfi_endproc
 157              	.LFE4:
 159 000a 00BF     		.section	.text.u8g_font_GetBBXHeight,"ax",%progbits
 160              		.align	2
 161              		.thumb
 162              		.thumb_func
 164              	u8g_font_GetBBXHeight:
 165              	.LFB5:
 131:u8glib/u8g_font.c **** 
ARM GAS  C:\Users\master\AppData\Local\Temp\cc4icg2r.s 			page 6


 132:u8glib/u8g_font.c **** static uint8_t u8g_font_GetBBXHeight(const void *font)
 133:u8glib/u8g_font.c **** {
 166              		.loc 1 133 0
 167              		.cfi_startproc
 168              		@ args = 0, pretend = 0, frame = 0
 169              		@ frame_needed = 0, uses_anonymous_args = 0
 170              	.LVL13:
 171 0000 08B5     		push	{r3, lr}
 172              	.LCFI3:
 173              		.cfi_def_cfa_offset 8
 174              		.cfi_offset 3, -8
 175              		.cfi_offset 14, -4
 134:u8glib/u8g_font.c ****   return u8g_font_get_byte(font, 2);
 176              		.loc 1 134 0
 177 0002 0221     		movs	r1, #2
 178 0004 FFF7FEFF 		bl	u8g_font_get_byte
 179              	.LVL14:
 135:u8glib/u8g_font.c **** }
 180              		.loc 1 135 0
 181 0008 08BD     		pop	{r3, pc}
 182              		.cfi_endproc
 183              	.LFE5:
 185 000a 00BF     		.section	.text.u8g_font_GetBBXOffX,"ax",%progbits
 186              		.align	2
 187              		.thumb
 188              		.thumb_func
 190              	u8g_font_GetBBXOffX:
 191              	.LFB6:
 136:u8glib/u8g_font.c **** 
 137:u8glib/u8g_font.c **** static int8_t u8g_font_GetBBXOffX(const void *font)
 138:u8glib/u8g_font.c **** {
 192              		.loc 1 138 0
 193              		.cfi_startproc
 194              		@ args = 0, pretend = 0, frame = 0
 195              		@ frame_needed = 0, uses_anonymous_args = 0
 196              	.LVL15:
 197 0000 08B5     		push	{r3, lr}
 198              	.LCFI4:
 199              		.cfi_def_cfa_offset 8
 200              		.cfi_offset 3, -8
 201              		.cfi_offset 14, -4
 139:u8glib/u8g_font.c ****   return u8g_font_get_byte(font, 3);
 202              		.loc 1 139 0
 203 0002 0321     		movs	r1, #3
 204 0004 FFF7FEFF 		bl	u8g_font_get_byte
 205              	.LVL16:
 140:u8glib/u8g_font.c **** }
 206              		.loc 1 140 0
 207 0008 40B2     		sxtb	r0, r0
 208 000a 08BD     		pop	{r3, pc}
 209              		.cfi_endproc
 210              	.LFE6:
 212              		.section	.text.u8g_font_GetBBXOffY,"ax",%progbits
 213              		.align	2
 214              		.thumb
 215              		.thumb_func
 217              	u8g_font_GetBBXOffY:
ARM GAS  C:\Users\master\AppData\Local\Temp\cc4icg2r.s 			page 7


 218              	.LFB7:
 141:u8glib/u8g_font.c **** 
 142:u8glib/u8g_font.c **** static int8_t u8g_font_GetBBXOffY(const void *font)
 143:u8glib/u8g_font.c **** {
 219              		.loc 1 143 0
 220              		.cfi_startproc
 221              		@ args = 0, pretend = 0, frame = 0
 222              		@ frame_needed = 0, uses_anonymous_args = 0
 223              	.LVL17:
 224 0000 08B5     		push	{r3, lr}
 225              	.LCFI5:
 226              		.cfi_def_cfa_offset 8
 227              		.cfi_offset 3, -8
 228              		.cfi_offset 14, -4
 144:u8glib/u8g_font.c ****   return u8g_font_get_byte(font, 4);
 229              		.loc 1 144 0
 230 0002 0421     		movs	r1, #4
 231 0004 FFF7FEFF 		bl	u8g_font_get_byte
 232              	.LVL18:
 145:u8glib/u8g_font.c **** }
 233              		.loc 1 145 0
 234 0008 40B2     		sxtb	r0, r0
 235 000a 08BD     		pop	{r3, pc}
 236              		.cfi_endproc
 237              	.LFE7:
 239              		.section	.text.u8g_font_GetGlyphDataStart,"ax",%progbits
 240              		.align	2
 241              		.thumb
 242              		.thumb_func
 244              	u8g_font_GetGlyphDataStart:
 245              	.LFB18:
 146:u8glib/u8g_font.c **** 
 147:u8glib/u8g_font.c **** uint8_t u8g_font_GetCapitalAHeight(const void *font)
 148:u8glib/u8g_font.c **** {
 149:u8glib/u8g_font.c ****   return u8g_font_get_byte(font, 5);
 150:u8glib/u8g_font.c **** }
 151:u8glib/u8g_font.c **** 
 152:u8glib/u8g_font.c **** uint16_t u8g_font_GetEncoding65Pos(const void *font) U8G_NOINLINE;
 153:u8glib/u8g_font.c **** uint16_t u8g_font_GetEncoding65Pos(const void *font)
 154:u8glib/u8g_font.c **** {
 155:u8glib/u8g_font.c ****     return u8g_font_get_word(font, 6);
 156:u8glib/u8g_font.c **** }
 157:u8glib/u8g_font.c **** 
 158:u8glib/u8g_font.c **** uint16_t u8g_font_GetEncoding97Pos(const void *font) U8G_NOINLINE;
 159:u8glib/u8g_font.c **** uint16_t u8g_font_GetEncoding97Pos(const void *font)
 160:u8glib/u8g_font.c **** {
 161:u8glib/u8g_font.c ****     return u8g_font_get_word(font, 8);
 162:u8glib/u8g_font.c **** }
 163:u8glib/u8g_font.c **** 
 164:u8glib/u8g_font.c **** uint8_t u8g_font_GetFontStartEncoding(const void *font)
 165:u8glib/u8g_font.c **** {
 166:u8glib/u8g_font.c ****   return u8g_font_get_byte(font, 10);
 167:u8glib/u8g_font.c **** }
 168:u8glib/u8g_font.c **** 
 169:u8glib/u8g_font.c **** uint8_t u8g_font_GetFontEndEncoding(const void *font)
 170:u8glib/u8g_font.c **** {
 171:u8glib/u8g_font.c ****   return u8g_font_get_byte(font, 11);
ARM GAS  C:\Users\master\AppData\Local\Temp\cc4icg2r.s 			page 8


 172:u8glib/u8g_font.c **** }
 173:u8glib/u8g_font.c **** 
 174:u8glib/u8g_font.c **** int8_t u8g_font_GetLowerGDescent(const void *font)
 175:u8glib/u8g_font.c **** {
 176:u8glib/u8g_font.c ****   return u8g_font_get_byte(font, 12);
 177:u8glib/u8g_font.c **** }
 178:u8glib/u8g_font.c **** 
 179:u8glib/u8g_font.c **** int8_t u8g_font_GetFontAscent(const void *font)
 180:u8glib/u8g_font.c **** {
 181:u8glib/u8g_font.c ****   return u8g_font_get_byte(font, 13);
 182:u8glib/u8g_font.c **** }
 183:u8glib/u8g_font.c **** 
 184:u8glib/u8g_font.c **** int8_t u8g_font_GetFontDescent(const void *font)
 185:u8glib/u8g_font.c **** {
 186:u8glib/u8g_font.c ****   return u8g_font_get_byte(font, 14);
 187:u8glib/u8g_font.c **** }
 188:u8glib/u8g_font.c **** 
 189:u8glib/u8g_font.c **** int8_t u8g_font_GetFontXAscent(const void *font)
 190:u8glib/u8g_font.c **** {
 191:u8glib/u8g_font.c ****   return u8g_font_get_byte(font, 15);
 192:u8glib/u8g_font.c **** }
 193:u8glib/u8g_font.c **** 
 194:u8glib/u8g_font.c **** int8_t u8g_font_GetFontXDescent(const void *font)
 195:u8glib/u8g_font.c **** {
 196:u8glib/u8g_font.c ****   return u8g_font_get_byte(font, 16);
 197:u8glib/u8g_font.c **** }
 198:u8glib/u8g_font.c **** 
 199:u8glib/u8g_font.c **** 
 200:u8glib/u8g_font.c **** /* return the data start for a font and the glyph pointer */
 201:u8glib/u8g_font.c **** static uint8_t *u8g_font_GetGlyphDataStart(const void *font, u8g_glyph_t g)
 202:u8glib/u8g_font.c **** {
 246              		.loc 1 202 0
 247              		.cfi_startproc
 248              		@ args = 0, pretend = 0, frame = 0
 249              		@ frame_needed = 0, uses_anonymous_args = 0
 250              	.LVL19:
 251 0000 10B5     		push	{r4, lr}
 252              	.LCFI6:
 253              		.cfi_def_cfa_offset 8
 254              		.cfi_offset 4, -8
 255              		.cfi_offset 14, -4
 256 0002 0C46     		mov	r4, r1
 203:u8glib/u8g_font.c ****   return ((u8g_fntpgm_uint8_t *)g) + u8g_font_GetFontGlyphStructureSize(font);
 257              		.loc 1 203 0
 258 0004 FFF7FEFF 		bl	u8g_font_GetFontGlyphStructureSize
 259              	.LVL20:
 204:u8glib/u8g_font.c **** }
 260              		.loc 1 204 0
 261 0008 2044     		add	r0, r0, r4
 262 000a 10BD     		pop	{r4, pc}
 263              		.cfi_endproc
 264              	.LFE18:
 266              		.section	.text.u8g_CopyGlyphDataToCache,"ax",%progbits
 267              		.align	2
 268              		.thumb
 269              		.thumb_func
 271              	u8g_CopyGlyphDataToCache:
ARM GAS  C:\Users\master\AppData\Local\Temp\cc4icg2r.s 			page 9


 272              	.LFB25:
 205:u8glib/u8g_font.c **** 
 206:u8glib/u8g_font.c **** /* calculate the overall length of the font, only used to create the picture for the google wiki */
 207:u8glib/u8g_font.c **** size_t u8g_font_GetSize(const void *font)
 208:u8glib/u8g_font.c **** {
 209:u8glib/u8g_font.c ****   uint8_t *p = (uint8_t *)(font);
 210:u8glib/u8g_font.c ****   uint8_t font_format = u8g_font_GetFormat(font);
 211:u8glib/u8g_font.c ****   uint8_t data_structure_size = u8g_font_GetFontGlyphStructureSize(font);
 212:u8glib/u8g_font.c ****   uint8_t start, end;
 213:u8glib/u8g_font.c ****   uint8_t i;
 214:u8glib/u8g_font.c ****   uint8_t mask = 255;
 215:u8glib/u8g_font.c ****   
 216:u8glib/u8g_font.c ****   start = u8g_font_GetFontStartEncoding(font);
 217:u8glib/u8g_font.c ****   end = u8g_font_GetFontEndEncoding(font);
 218:u8glib/u8g_font.c **** 
 219:u8glib/u8g_font.c ****   if ( font_format == 1 )
 220:u8glib/u8g_font.c ****     mask = 15;
 221:u8glib/u8g_font.c **** 
 222:u8glib/u8g_font.c ****   p += U8G_FONT_DATA_STRUCT_SIZE;       /* skip font general information */  
 223:u8glib/u8g_font.c **** 
 224:u8glib/u8g_font.c ****   i = start;  
 225:u8glib/u8g_font.c ****   for(;;)
 226:u8glib/u8g_font.c ****   {
 227:u8glib/u8g_font.c ****     if ( u8g_pgm_read((u8g_pgm_uint8_t *)(p)) == 255 )
 228:u8glib/u8g_font.c ****     {
 229:u8glib/u8g_font.c ****       p += 1;
 230:u8glib/u8g_font.c ****     }
 231:u8glib/u8g_font.c ****     else
 232:u8glib/u8g_font.c ****     {
 233:u8glib/u8g_font.c ****       p += u8g_pgm_read( ((u8g_pgm_uint8_t *)(p)) + 2 ) & mask;
 234:u8glib/u8g_font.c ****       p += data_structure_size;
 235:u8glib/u8g_font.c ****     }
 236:u8glib/u8g_font.c ****     if ( i == end )
 237:u8glib/u8g_font.c ****       break;
 238:u8glib/u8g_font.c ****     i++;
 239:u8glib/u8g_font.c ****   }
 240:u8glib/u8g_font.c ****     
 241:u8glib/u8g_font.c ****   return p - (uint8_t *)font;
 242:u8glib/u8g_font.c **** }
 243:u8glib/u8g_font.c **** 
 244:u8glib/u8g_font.c **** /*========================================================================*/
 245:u8glib/u8g_font.c **** /* u8g interface, font access */
 246:u8glib/u8g_font.c **** 
 247:u8glib/u8g_font.c **** uint8_t u8g_GetFontBBXWidth(u8g_t *u8g)
 248:u8glib/u8g_font.c **** {
 249:u8glib/u8g_font.c ****   return u8g_font_GetBBXWidth(u8g->font);
 250:u8glib/u8g_font.c **** }
 251:u8glib/u8g_font.c **** 
 252:u8glib/u8g_font.c **** uint8_t u8g_GetFontBBXHeight(u8g_t *u8g)
 253:u8glib/u8g_font.c **** {
 254:u8glib/u8g_font.c ****   return u8g_font_GetBBXHeight(u8g->font);
 255:u8glib/u8g_font.c **** }
 256:u8glib/u8g_font.c **** 
 257:u8glib/u8g_font.c **** int8_t u8g_GetFontBBXOffX(u8g_t *u8g) U8G_NOINLINE;
 258:u8glib/u8g_font.c **** int8_t u8g_GetFontBBXOffX(u8g_t *u8g)
 259:u8glib/u8g_font.c **** {
 260:u8glib/u8g_font.c ****   return u8g_font_GetBBXOffX(u8g->font);
ARM GAS  C:\Users\master\AppData\Local\Temp\cc4icg2r.s 			page 10


 261:u8glib/u8g_font.c **** }
 262:u8glib/u8g_font.c **** 
 263:u8glib/u8g_font.c **** int8_t u8g_GetFontBBXOffY(u8g_t *u8g) U8G_NOINLINE;
 264:u8glib/u8g_font.c **** int8_t u8g_GetFontBBXOffY(u8g_t *u8g)
 265:u8glib/u8g_font.c **** {
 266:u8glib/u8g_font.c ****   return u8g_font_GetBBXOffY(u8g->font);
 267:u8glib/u8g_font.c **** }
 268:u8glib/u8g_font.c **** 
 269:u8glib/u8g_font.c **** uint8_t u8g_GetFontCapitalAHeight(u8g_t *u8g) U8G_NOINLINE; 
 270:u8glib/u8g_font.c **** uint8_t u8g_GetFontCapitalAHeight(u8g_t *u8g)
 271:u8glib/u8g_font.c **** {
 272:u8glib/u8g_font.c ****   return u8g_font_GetCapitalAHeight(u8g->font);
 273:u8glib/u8g_font.c **** }
 274:u8glib/u8g_font.c **** 
 275:u8glib/u8g_font.c **** /*========================================================================*/
 276:u8glib/u8g_font.c **** /* glyph handling */
 277:u8glib/u8g_font.c **** 
 278:u8glib/u8g_font.c **** static void u8g_CopyGlyphDataToCache(u8g_t *u8g, u8g_glyph_t g)
 279:u8glib/u8g_font.c **** {
 273              		.loc 1 279 0
 274              		.cfi_startproc
 275              		@ args = 0, pretend = 0, frame = 0
 276              		@ frame_needed = 0, uses_anonymous_args = 0
 277              	.LVL21:
 278 0000 38B5     		push	{r3, r4, r5, lr}
 279              	.LCFI7:
 280              		.cfi_def_cfa_offset 16
 281              		.cfi_offset 3, -16
 282              		.cfi_offset 4, -12
 283              		.cfi_offset 5, -8
 284              		.cfi_offset 14, -4
 285 0002 0446     		mov	r4, r0
 286 0004 0D46     		mov	r5, r1
 280:u8glib/u8g_font.c ****   uint8_t tmp;
 281:u8glib/u8g_font.c ****   switch( u8g_font_GetFormat(u8g->font) )
 287              		.loc 1 281 0
 288 0006 8068     		ldr	r0, [r0, #8]
 289              	.LVL22:
 290 0008 FFF7FEFF 		bl	u8g_font_GetFormat
 291              	.LVL23:
 292 000c 08B1     		cbz	r0, .L23
 293 000e 0228     		cmp	r0, #2
 294 0010 0BD1     		bne	.L25
 295              	.L23:
 282:u8glib/u8g_font.c ****   {
 283:u8glib/u8g_font.c ****     case 0:
 284:u8glib/u8g_font.c ****     case 2:
 285:u8glib/u8g_font.c ****   /*
 286:u8glib/u8g_font.c ****     format 0
 287:u8glib/u8g_font.c ****     glyph information 
 288:u8glib/u8g_font.c ****     offset
 289:u8glib/u8g_font.c ****     0             BBX width                                       unsigned
 290:u8glib/u8g_font.c ****     1             BBX height                                      unsigned
 291:u8glib/u8g_font.c ****     2             data size                                          unsigned    (BBX width + 7)/8 
 292:u8glib/u8g_font.c ****     3             DWIDTH                                          signed
 293:u8glib/u8g_font.c ****     4             BBX xoffset                                    signed
 294:u8glib/u8g_font.c ****     5             BBX yoffset                                    signed
ARM GAS  C:\Users\master\AppData\Local\Temp\cc4icg2r.s 			page 11


 295:u8glib/u8g_font.c ****   byte 0 == 255 indicates empty glyph
 296:u8glib/u8g_font.c ****   */
 297:u8glib/u8g_font.c ****       u8g->glyph_width =  u8g_pgm_read( ((u8g_pgm_uint8_t *)g) + 0 );
 296              		.loc 1 297 0
 297 0012 2B78     		ldrb	r3, [r5]	@ zero_extendqisi2
 298 0014 E377     		strb	r3, [r4, #31]
 298:u8glib/u8g_font.c ****       u8g->glyph_height =  u8g_pgm_read( ((u8g_pgm_uint8_t *)g) + 1 );
 299              		.loc 1 298 0
 300 0016 6B78     		ldrb	r3, [r5, #1]	@ zero_extendqisi2
 301 0018 84F82030 		strb	r3, [r4, #32]
 299:u8glib/u8g_font.c ****       u8g->glyph_dx =  u8g_pgm_read( ((u8g_pgm_uint8_t *)g) + 3 );
 302              		.loc 1 299 0
 303 001c EB78     		ldrb	r3, [r5, #3]	@ zero_extendqisi2
 304 001e 2377     		strb	r3, [r4, #28]
 300:u8glib/u8g_font.c ****       u8g->glyph_x =  u8g_pgm_read( ((u8g_pgm_uint8_t *)g) + 4 );
 305              		.loc 1 300 0
 306 0020 2B79     		ldrb	r3, [r5, #4]	@ zero_extendqisi2
 307 0022 6377     		strb	r3, [r4, #29]
 301:u8glib/u8g_font.c ****       u8g->glyph_y =  u8g_pgm_read( ((u8g_pgm_uint8_t *)g) + 5 );
 308              		.loc 1 301 0
 309 0024 6B79     		ldrb	r3, [r5, #5]	@ zero_extendqisi2
 310 0026 A377     		strb	r3, [r4, #30]
 302:u8glib/u8g_font.c ****       break;
 311              		.loc 1 302 0
 312 0028 38BD     		pop	{r3, r4, r5, pc}
 313              	.LVL24:
 314              	.L25:
 303:u8glib/u8g_font.c ****     case 1:
 304:u8glib/u8g_font.c ****     default:
 305:u8glib/u8g_font.c ****       /*
 306:u8glib/u8g_font.c **** format 1
 307:u8glib/u8g_font.c ****   0             BBX xoffset                                    signed   --> upper 4 Bit
 308:u8glib/u8g_font.c ****   0             BBX yoffset                                    signed --> lower 4 Bit
 309:u8glib/u8g_font.c ****   1             BBX width                                       unsigned --> upper 4 Bit
 310:u8glib/u8g_font.c ****   1             BBX height                                      unsigned --> lower 4 Bit
 311:u8glib/u8g_font.c ****   2             data size                                           unsigned -(BBX width + 7)/8 * B
 312:u8glib/u8g_font.c ****   2             DWIDTH                                          signed --> upper  4 Bit
 313:u8glib/u8g_font.c ****   byte 0 == 255 indicates empty glyph
 314:u8glib/u8g_font.c ****       */
 315:u8glib/u8g_font.c ****     
 316:u8glib/u8g_font.c ****       tmp = u8g_pgm_read( ((u8g_pgm_uint8_t *)g) + 0 );
 315              		.loc 1 316 0
 316 002a 2B78     		ldrb	r3, [r5]	@ zero_extendqisi2
 317              	.LVL25:
 317:u8glib/u8g_font.c ****       u8g->glyph_y =  tmp & 15;
 318              		.loc 1 317 0
 319 002c 03F00F02 		and	r2, r3, #15
 318:u8glib/u8g_font.c ****       u8g->glyph_y-=2;
 320              		.loc 1 318 0
 321 0030 023A     		subs	r2, r2, #2
 322 0032 A277     		strb	r2, [r4, #30]
 319:u8glib/u8g_font.c ****       tmp >>= 4;
 323              		.loc 1 319 0
 324 0034 1B09     		lsrs	r3, r3, #4
 325              	.LVL26:
 320:u8glib/u8g_font.c ****       u8g->glyph_x =  tmp;
 326              		.loc 1 320 0
ARM GAS  C:\Users\master\AppData\Local\Temp\cc4icg2r.s 			page 12


 327 0036 6377     		strb	r3, [r4, #29]
 321:u8glib/u8g_font.c ****     
 322:u8glib/u8g_font.c ****       tmp = u8g_pgm_read( ((u8g_pgm_uint8_t *)g) + 1 );
 328              		.loc 1 322 0
 329 0038 6B78     		ldrb	r3, [r5, #1]	@ zero_extendqisi2
 330              	.LVL27:
 323:u8glib/u8g_font.c ****       u8g->glyph_height =  tmp & 15;
 331              		.loc 1 323 0
 332 003a 03F00F02 		and	r2, r3, #15
 333 003e 84F82020 		strb	r2, [r4, #32]
 324:u8glib/u8g_font.c ****       tmp >>= 4;
 334              		.loc 1 324 0
 335 0042 1B09     		lsrs	r3, r3, #4
 336              	.LVL28:
 325:u8glib/u8g_font.c ****       u8g->glyph_width =  tmp;
 337              		.loc 1 325 0
 338 0044 E377     		strb	r3, [r4, #31]
 326:u8glib/u8g_font.c ****       
 327:u8glib/u8g_font.c ****       tmp = u8g_pgm_read( ((u8g_pgm_uint8_t *)g) + 2 );
 339              		.loc 1 327 0
 340 0046 AB78     		ldrb	r3, [r5, #2]	@ zero_extendqisi2
 341              	.LVL29:
 328:u8glib/u8g_font.c ****       tmp >>= 4;
 342              		.loc 1 328 0
 343 0048 1B09     		lsrs	r3, r3, #4
 344              	.LVL30:
 329:u8glib/u8g_font.c ****       u8g->glyph_dx = tmp;
 345              		.loc 1 329 0
 346 004a 2377     		strb	r3, [r4, #28]
 347 004c 38BD     		pop	{r3, r4, r5, pc}
 348              		.cfi_endproc
 349              	.LFE25:
 351              		.section	.text.u8g_FillEmptyGlyphCache,"ax",%progbits
 352              		.align	2
 353              		.thumb
 354              		.thumb_func
 356              	u8g_FillEmptyGlyphCache:
 357              	.LFB26:
 330:u8glib/u8g_font.c ****     
 331:u8glib/u8g_font.c ****       
 332:u8glib/u8g_font.c ****       break;
 333:u8glib/u8g_font.c ****   }
 334:u8glib/u8g_font.c **** }
 335:u8glib/u8g_font.c **** 
 336:u8glib/u8g_font.c **** //void u8g_FillEmptyGlyphCache(u8g_t *u8g) U8G_NOINLINE;
 337:u8glib/u8g_font.c **** static void u8g_FillEmptyGlyphCache(u8g_t *u8g)
 338:u8glib/u8g_font.c **** {
 358              		.loc 1 338 0
 359              		.cfi_startproc
 360              		@ args = 0, pretend = 0, frame = 0
 361              		@ frame_needed = 0, uses_anonymous_args = 0
 362              		@ link register save eliminated.
 363              	.LVL31:
 339:u8glib/u8g_font.c ****   u8g->glyph_dx = 0;
 364              		.loc 1 339 0
 365 0000 0023     		movs	r3, #0
 366 0002 0377     		strb	r3, [r0, #28]
ARM GAS  C:\Users\master\AppData\Local\Temp\cc4icg2r.s 			page 13


 340:u8glib/u8g_font.c ****   u8g->glyph_width = 0;
 367              		.loc 1 340 0
 368 0004 C377     		strb	r3, [r0, #31]
 341:u8glib/u8g_font.c ****   u8g->glyph_height = 0;
 369              		.loc 1 341 0
 370 0006 80F82030 		strb	r3, [r0, #32]
 342:u8glib/u8g_font.c ****   u8g->glyph_x = 0;
 371              		.loc 1 342 0
 372 000a 4377     		strb	r3, [r0, #29]
 343:u8glib/u8g_font.c ****   u8g->glyph_y = 0;
 373              		.loc 1 343 0
 374 000c 8377     		strb	r3, [r0, #30]
 375 000e 7047     		bx	lr
 376              		.cfi_endproc
 377              	.LFE26:
 379              		.section	.text.u8g_font_calc_vref_font,"ax",%progbits
 380              		.align	2
 381              		.global	u8g_font_calc_vref_font
 382              		.thumb
 383              		.thumb_func
 385              	u8g_font_calc_vref_font:
 386              	.LFB54:
 344:u8glib/u8g_font.c **** }
 345:u8glib/u8g_font.c **** 
 346:u8glib/u8g_font.c **** /*
 347:u8glib/u8g_font.c ****   Find (with some speed optimization) and return a pointer to the glyph data structure
 348:u8glib/u8g_font.c ****   Also uncompress (format 1) and copy the content of the data structure to the u8g structure
 349:u8glib/u8g_font.c **** */
 350:u8glib/u8g_font.c **** u8g_glyph_t u8g_GetGlyph(u8g_t *u8g, uint8_t requested_encoding)
 351:u8glib/u8g_font.c **** {
 352:u8glib/u8g_font.c ****   uint8_t *p = (uint8_t *)(u8g->font);
 353:u8glib/u8g_font.c ****   uint8_t font_format = u8g_font_GetFormat(u8g->font);
 354:u8glib/u8g_font.c ****   uint8_t data_structure_size = u8g_font_GetFontGlyphStructureSize(u8g->font);
 355:u8glib/u8g_font.c ****   uint8_t start, end;
 356:u8glib/u8g_font.c ****   uint16_t pos;
 357:u8glib/u8g_font.c ****   uint8_t i;
 358:u8glib/u8g_font.c ****   uint8_t mask = 255;
 359:u8glib/u8g_font.c **** 
 360:u8glib/u8g_font.c ****   if ( font_format == 1 )
 361:u8glib/u8g_font.c ****     mask = 15;
 362:u8glib/u8g_font.c ****   
 363:u8glib/u8g_font.c ****   start = u8g_font_GetFontStartEncoding(u8g->font);
 364:u8glib/u8g_font.c ****   end = u8g_font_GetFontEndEncoding(u8g->font);
 365:u8glib/u8g_font.c **** 
 366:u8glib/u8g_font.c ****   pos = u8g_font_GetEncoding97Pos(u8g->font);
 367:u8glib/u8g_font.c ****   if ( requested_encoding >= 97 && pos > 0 )
 368:u8glib/u8g_font.c ****   {
 369:u8glib/u8g_font.c ****     p+= pos;
 370:u8glib/u8g_font.c ****     start = 97;
 371:u8glib/u8g_font.c ****   }
 372:u8glib/u8g_font.c ****   else 
 373:u8glib/u8g_font.c ****   {
 374:u8glib/u8g_font.c ****     pos = u8g_font_GetEncoding65Pos(u8g->font);
 375:u8glib/u8g_font.c ****     if ( requested_encoding >= 65 && pos > 0 )
 376:u8glib/u8g_font.c ****     {
 377:u8glib/u8g_font.c ****       p+= pos;
 378:u8glib/u8g_font.c ****       start = 65;
ARM GAS  C:\Users\master\AppData\Local\Temp\cc4icg2r.s 			page 14


 379:u8glib/u8g_font.c ****     }
 380:u8glib/u8g_font.c ****     else
 381:u8glib/u8g_font.c ****       p += U8G_FONT_DATA_STRUCT_SIZE;       /* skip font general information */  
 382:u8glib/u8g_font.c ****   }
 383:u8glib/u8g_font.c ****   
 384:u8glib/u8g_font.c ****   if ( requested_encoding > end )
 385:u8glib/u8g_font.c ****   {
 386:u8glib/u8g_font.c ****     u8g_FillEmptyGlyphCache(u8g);
 387:u8glib/u8g_font.c ****     return NULL;                      /* not found */
 388:u8glib/u8g_font.c ****   }
 389:u8glib/u8g_font.c ****   
 390:u8glib/u8g_font.c ****   i = start;
 391:u8glib/u8g_font.c ****   if ( i <= end )
 392:u8glib/u8g_font.c ****   {
 393:u8glib/u8g_font.c ****     for(;;)
 394:u8glib/u8g_font.c ****     {
 395:u8glib/u8g_font.c ****       if ( u8g_pgm_read((u8g_pgm_uint8_t *)(p)) == 255 )
 396:u8glib/u8g_font.c ****       {
 397:u8glib/u8g_font.c ****         p += 1;
 398:u8glib/u8g_font.c ****       }
 399:u8glib/u8g_font.c ****       else
 400:u8glib/u8g_font.c ****       {
 401:u8glib/u8g_font.c ****         if ( i == requested_encoding )
 402:u8glib/u8g_font.c ****         {
 403:u8glib/u8g_font.c ****           u8g_CopyGlyphDataToCache(u8g, p);
 404:u8glib/u8g_font.c ****           return p;
 405:u8glib/u8g_font.c ****         }
 406:u8glib/u8g_font.c ****         p += u8g_pgm_read( ((u8g_pgm_uint8_t *)(p)) + 2 ) & mask;
 407:u8glib/u8g_font.c ****         p += data_structure_size;
 408:u8glib/u8g_font.c ****       }
 409:u8glib/u8g_font.c ****       if ( i == end )
 410:u8glib/u8g_font.c ****         break;
 411:u8glib/u8g_font.c ****       i++;
 412:u8glib/u8g_font.c ****     }
 413:u8glib/u8g_font.c ****   }
 414:u8glib/u8g_font.c ****   
 415:u8glib/u8g_font.c ****   u8g_FillEmptyGlyphCache(u8g);
 416:u8glib/u8g_font.c ****     
 417:u8glib/u8g_font.c ****   return NULL;
 418:u8glib/u8g_font.c **** }
 419:u8glib/u8g_font.c **** 
 420:u8glib/u8g_font.c **** uint8_t u8g_IsGlyph(u8g_t *u8g, uint8_t requested_encoding)
 421:u8glib/u8g_font.c **** {
 422:u8glib/u8g_font.c ****   if ( u8g_GetGlyph(u8g, requested_encoding) != NULL )
 423:u8glib/u8g_font.c ****     return 1;
 424:u8glib/u8g_font.c ****   return 0;
 425:u8glib/u8g_font.c **** }
 426:u8glib/u8g_font.c **** 
 427:u8glib/u8g_font.c **** int8_t u8g_GetGlyphDeltaX(u8g_t *u8g, uint8_t requested_encoding)
 428:u8glib/u8g_font.c **** {
 429:u8glib/u8g_font.c ****   if ( u8g_GetGlyph(u8g, requested_encoding) == NULL )
 430:u8glib/u8g_font.c ****     return 0;  /* should never happen, so return something */
 431:u8glib/u8g_font.c ****   return u8g->glyph_dx;
 432:u8glib/u8g_font.c **** }
 433:u8glib/u8g_font.c **** 
 434:u8glib/u8g_font.c **** 
 435:u8glib/u8g_font.c **** /*========================================================================*/
ARM GAS  C:\Users\master\AppData\Local\Temp\cc4icg2r.s 			page 15


 436:u8glib/u8g_font.c **** /* glyph drawing procedures */
 437:u8glib/u8g_font.c **** 
 438:u8glib/u8g_font.c **** #ifdef OBSOLETE
 439:u8glib/u8g_font.c **** /*
 440:u8glib/u8g_font.c ****   Draw a glyph
 441:u8glib/u8g_font.c ****   x,y: left baseline position of the glyph
 442:u8glib/u8g_font.c **** */
 443:u8glib/u8g_font.c **** int8_t u8g_DrawGlyphDir(u8g_t *u8g, u8g_uint_t x, u8g_uint_t y, uint8_t dir, uint8_t encoding)
 444:u8glib/u8g_font.c **** {
 445:u8glib/u8g_font.c ****   u8g_glyph_t g;
 446:u8glib/u8g_font.c ****   uint8_t w, h, i, j;
 447:u8glib/u8g_font.c ****   const u8g_pgm_uint8_t *data;
 448:u8glib/u8g_font.c ****   uint8_t bytes_per_line;
 449:u8glib/u8g_font.c ****   u8g_uint_t ix, iy;
 450:u8glib/u8g_font.c **** 
 451:u8glib/u8g_font.c ****   g = u8g_GetGlyph(u8g, encoding);
 452:u8glib/u8g_font.c ****   if ( g == NULL  )
 453:u8glib/u8g_font.c ****     return 0;
 454:u8glib/u8g_font.c ****   w = u8g->glyph_width;
 455:u8glib/u8g_font.c ****   h = u8g->glyph_height;
 456:u8glib/u8g_font.c **** 
 457:u8glib/u8g_font.c ****   bytes_per_line = w;
 458:u8glib/u8g_font.c ****   bytes_per_line += 7;
 459:u8glib/u8g_font.c ****   bytes_per_line /= 8;
 460:u8glib/u8g_font.c ****   
 461:u8glib/u8g_font.c ****   data = u8g_font_GetGlyphDataStart(u8g->font, g);
 462:u8glib/u8g_font.c **** 
 463:u8glib/u8g_font.c ****   switch(dir)
 464:u8glib/u8g_font.c ****   {
 465:u8glib/u8g_font.c ****     case 0:
 466:u8glib/u8g_font.c ****       x += u8g->glyph_x;
 467:u8glib/u8g_font.c ****       y -= u8g->glyph_y;
 468:u8glib/u8g_font.c ****       y--;
 469:u8glib/u8g_font.c ****       //u8g_DrawFrame(u8g, x, y-h+1, w, h);
 470:u8glib/u8g_font.c ****       if ( u8g_IsBBXIntersection(u8g, x, y-h+1, w, h) == 0 )
 471:u8glib/u8g_font.c ****         return u8g->glyph_dx;
 472:u8glib/u8g_font.c ****       
 473:u8glib/u8g_font.c ****       iy = y;
 474:u8glib/u8g_font.c ****       iy -= h;
 475:u8glib/u8g_font.c ****       iy++;
 476:u8glib/u8g_font.c ****       
 477:u8glib/u8g_font.c ****       for( j = 0; j < h; j++ )
 478:u8glib/u8g_font.c ****       {
 479:u8glib/u8g_font.c ****         ix = x;
 480:u8glib/u8g_font.c ****         for( i = 0; i < bytes_per_line; i++ )
 481:u8glib/u8g_font.c ****         {
 482:u8glib/u8g_font.c ****           u8g_Draw8Pixel(u8g, ix, iy, dir, u8g_pgm_read(data));
 483:u8glib/u8g_font.c ****           data++;
 484:u8glib/u8g_font.c ****           ix+=8;
 485:u8glib/u8g_font.c ****         }
 486:u8glib/u8g_font.c ****         iy++;
 487:u8glib/u8g_font.c ****       }
 488:u8glib/u8g_font.c ****       break;
 489:u8glib/u8g_font.c ****     case 1:
 490:u8glib/u8g_font.c ****       x += u8g->glyph_y;
 491:u8glib/u8g_font.c ****       x++;
 492:u8glib/u8g_font.c ****       y += u8g->glyph_x;
ARM GAS  C:\Users\master\AppData\Local\Temp\cc4icg2r.s 			page 16


 493:u8glib/u8g_font.c ****       //printf("enc %d, dir %d, x %d, y %d, w %d, h %d\n", encoding, dir, x, y, w, h);
 494:u8glib/u8g_font.c ****       //u8g_DrawFrame(u8g, x, y, h, w);
 495:u8glib/u8g_font.c ****       if ( u8g_IsBBXIntersection(u8g, x, y, h, w) == 0 )
 496:u8glib/u8g_font.c ****         return u8g->glyph_dx;
 497:u8glib/u8g_font.c ****       
 498:u8glib/u8g_font.c ****       ix = x;
 499:u8glib/u8g_font.c ****       ix += h;
 500:u8glib/u8g_font.c ****       ix--;
 501:u8glib/u8g_font.c ****       for( j = 0; j < h; j++ )
 502:u8glib/u8g_font.c ****       {
 503:u8glib/u8g_font.c ****         iy = y;
 504:u8glib/u8g_font.c ****         for( i = 0; i < bytes_per_line; i++ )
 505:u8glib/u8g_font.c ****         {
 506:u8glib/u8g_font.c ****           u8g_Draw8Pixel(u8g, ix, iy, dir, u8g_pgm_read(data));
 507:u8glib/u8g_font.c ****           data++;
 508:u8glib/u8g_font.c ****           iy+=8;
 509:u8glib/u8g_font.c ****         }
 510:u8glib/u8g_font.c ****         ix--;
 511:u8glib/u8g_font.c ****       }
 512:u8glib/u8g_font.c ****       break;
 513:u8glib/u8g_font.c ****     case 2:
 514:u8glib/u8g_font.c ****       x -= u8g->glyph_x;
 515:u8glib/u8g_font.c ****       y += u8g->glyph_y;
 516:u8glib/u8g_font.c ****       y++;
 517:u8glib/u8g_font.c ****       if ( u8g_IsBBXIntersection(u8g, x-w-1, y, w, h) == 0 )
 518:u8glib/u8g_font.c ****         return u8g->glyph_dx;
 519:u8glib/u8g_font.c ****       
 520:u8glib/u8g_font.c ****       iy = y;
 521:u8glib/u8g_font.c ****       iy += h;
 522:u8glib/u8g_font.c ****       iy--;
 523:u8glib/u8g_font.c ****       for( j = 0; j < h; j++ )
 524:u8glib/u8g_font.c ****       {
 525:u8glib/u8g_font.c ****         ix = x;
 526:u8glib/u8g_font.c ****         for( i = 0; i < bytes_per_line; i++ )
 527:u8glib/u8g_font.c ****         {
 528:u8glib/u8g_font.c ****           u8g_Draw8Pixel(u8g, ix, iy, dir, u8g_pgm_read(data));
 529:u8glib/u8g_font.c ****           data++;
 530:u8glib/u8g_font.c ****           ix-=8;
 531:u8glib/u8g_font.c ****         }
 532:u8glib/u8g_font.c ****         iy--;
 533:u8glib/u8g_font.c ****       }
 534:u8glib/u8g_font.c ****       break;
 535:u8glib/u8g_font.c ****     case 3:
 536:u8glib/u8g_font.c ****       x -= u8g->glyph_y;
 537:u8glib/u8g_font.c ****       x--;
 538:u8glib/u8g_font.c ****       y -= u8g->glyph_x;
 539:u8glib/u8g_font.c ****       
 540:u8glib/u8g_font.c ****       if ( u8g_IsBBXIntersection(u8g, x-h-1, y-w-1, h, w) == 0 )
 541:u8glib/u8g_font.c ****         return u8g->glyph_dx;
 542:u8glib/u8g_font.c ****       
 543:u8glib/u8g_font.c ****       ix = x;
 544:u8glib/u8g_font.c ****       ix -= h;
 545:u8glib/u8g_font.c ****       ix++;
 546:u8glib/u8g_font.c ****       
 547:u8glib/u8g_font.c ****       for( j = 0; j < h; j++ )
 548:u8glib/u8g_font.c ****       {
 549:u8glib/u8g_font.c ****         iy = y;
ARM GAS  C:\Users\master\AppData\Local\Temp\cc4icg2r.s 			page 17


 550:u8glib/u8g_font.c ****         for( i = 0; i < bytes_per_line; i++ )
 551:u8glib/u8g_font.c ****         {
 552:u8glib/u8g_font.c ****           u8g_Draw8Pixel(u8g, ix, iy, dir, u8g_pgm_read(data));
 553:u8glib/u8g_font.c ****           data++;
 554:u8glib/u8g_font.c ****           iy-=8;
 555:u8glib/u8g_font.c ****         }
 556:u8glib/u8g_font.c ****         ix++;
 557:u8glib/u8g_font.c ****       }
 558:u8glib/u8g_font.c ****       break;    
 559:u8glib/u8g_font.c ****   }
 560:u8glib/u8g_font.c ****   return u8g->glyph_dx;
 561:u8glib/u8g_font.c **** }
 562:u8glib/u8g_font.c **** #endif
 563:u8glib/u8g_font.c **** 
 564:u8glib/u8g_font.c **** int8_t u8g_draw_glyph(u8g_t *u8g, u8g_uint_t x, u8g_uint_t y, uint8_t encoding)
 565:u8glib/u8g_font.c **** {
 566:u8glib/u8g_font.c ****   const u8g_pgm_uint8_t *data;
 567:u8glib/u8g_font.c ****   uint8_t w, h;
 568:u8glib/u8g_font.c ****   uint8_t i, j;
 569:u8glib/u8g_font.c ****   u8g_uint_t ix, iy;
 570:u8glib/u8g_font.c **** 
 571:u8glib/u8g_font.c ****   {
 572:u8glib/u8g_font.c ****     u8g_glyph_t g = u8g_GetGlyph(u8g, encoding);
 573:u8glib/u8g_font.c ****     if ( g == NULL  )
 574:u8glib/u8g_font.c ****       return 0;
 575:u8glib/u8g_font.c ****     data = u8g_font_GetGlyphDataStart(u8g->font, g);
 576:u8glib/u8g_font.c ****   }
 577:u8glib/u8g_font.c ****   
 578:u8glib/u8g_font.c ****   w = u8g->glyph_width;
 579:u8glib/u8g_font.c ****   h = u8g->glyph_height;
 580:u8glib/u8g_font.c ****   
 581:u8glib/u8g_font.c ****   x += u8g->glyph_x;
 582:u8glib/u8g_font.c ****   y -= u8g->glyph_y;
 583:u8glib/u8g_font.c ****   y--;
 584:u8glib/u8g_font.c ****   
 585:u8glib/u8g_font.c ****   if ( u8g_IsBBXIntersection(u8g, x, y-h+1, w, h) == 0 )
 586:u8glib/u8g_font.c ****     return u8g->glyph_dx;
 587:u8glib/u8g_font.c **** 
 588:u8glib/u8g_font.c ****   /* now, w is reused as bytes per line */
 589:u8glib/u8g_font.c ****   w += 7;
 590:u8glib/u8g_font.c ****   w /= 8;
 591:u8glib/u8g_font.c ****   
 592:u8glib/u8g_font.c ****   iy = y;
 593:u8glib/u8g_font.c ****   iy -= h;
 594:u8glib/u8g_font.c ****   iy++;
 595:u8glib/u8g_font.c **** 
 596:u8glib/u8g_font.c ****   for( j = 0; j < h; j++ )
 597:u8glib/u8g_font.c ****   {
 598:u8glib/u8g_font.c ****     ix = x;
 599:u8glib/u8g_font.c ****     for( i = 0; i < w; i++ )
 600:u8glib/u8g_font.c ****     {
 601:u8glib/u8g_font.c ****       u8g_Draw8Pixel(u8g, ix, iy, 0, u8g_pgm_read(data));
 602:u8glib/u8g_font.c ****       data++;
 603:u8glib/u8g_font.c ****       ix+=8;
 604:u8glib/u8g_font.c ****     }
 605:u8glib/u8g_font.c ****     iy++;
 606:u8glib/u8g_font.c ****   }
ARM GAS  C:\Users\master\AppData\Local\Temp\cc4icg2r.s 			page 18


 607:u8glib/u8g_font.c ****   return u8g->glyph_dx;
 608:u8glib/u8g_font.c **** }
 609:u8glib/u8g_font.c **** 
 610:u8glib/u8g_font.c **** int8_t u8g_DrawGlyph(u8g_t *u8g, u8g_uint_t x, u8g_uint_t y, uint8_t encoding)
 611:u8glib/u8g_font.c **** {
 612:u8glib/u8g_font.c ****   y += u8g->font_calc_vref(u8g);
 613:u8glib/u8g_font.c ****   return u8g_draw_glyph(u8g, x, y, encoding);
 614:u8glib/u8g_font.c **** }
 615:u8glib/u8g_font.c **** 
 616:u8glib/u8g_font.c **** int8_t u8g_draw_glyph90(u8g_t *u8g, u8g_uint_t x, u8g_uint_t y, uint8_t encoding)
 617:u8glib/u8g_font.c **** {
 618:u8glib/u8g_font.c ****   const u8g_pgm_uint8_t *data;
 619:u8glib/u8g_font.c ****   uint8_t w, h;
 620:u8glib/u8g_font.c ****   uint8_t i, j;
 621:u8glib/u8g_font.c ****   u8g_uint_t ix, iy;
 622:u8glib/u8g_font.c **** 
 623:u8glib/u8g_font.c ****   {
 624:u8glib/u8g_font.c ****     u8g_glyph_t g = u8g_GetGlyph(u8g, encoding);
 625:u8glib/u8g_font.c ****     if ( g == NULL  )
 626:u8glib/u8g_font.c ****       return 0;
 627:u8glib/u8g_font.c ****     data = u8g_font_GetGlyphDataStart(u8g->font, g);
 628:u8glib/u8g_font.c ****   }
 629:u8glib/u8g_font.c ****   
 630:u8glib/u8g_font.c ****   w = u8g->glyph_width;
 631:u8glib/u8g_font.c ****   h = u8g->glyph_height;
 632:u8glib/u8g_font.c ****   
 633:u8glib/u8g_font.c ****   x += u8g->glyph_y;
 634:u8glib/u8g_font.c ****   x++;
 635:u8glib/u8g_font.c ****   y += u8g->glyph_x;
 636:u8glib/u8g_font.c ****   
 637:u8glib/u8g_font.c ****   if ( u8g_IsBBXIntersection(u8g, x, y, h, w) == 0 )
 638:u8glib/u8g_font.c ****     return u8g->glyph_dx;
 639:u8glib/u8g_font.c **** 
 640:u8glib/u8g_font.c ****   /* now, w is reused as bytes per line */
 641:u8glib/u8g_font.c ****   w += 7;
 642:u8glib/u8g_font.c ****   w /= 8;
 643:u8glib/u8g_font.c ****   
 644:u8glib/u8g_font.c ****   ix = x;
 645:u8glib/u8g_font.c ****   ix += h;
 646:u8glib/u8g_font.c ****   ix--;
 647:u8glib/u8g_font.c ****   for( j = 0; j < h; j++ )
 648:u8glib/u8g_font.c ****   {
 649:u8glib/u8g_font.c ****     iy = y;
 650:u8glib/u8g_font.c ****     for( i = 0; i < w; i++ )
 651:u8glib/u8g_font.c ****     {
 652:u8glib/u8g_font.c ****       u8g_Draw8Pixel(u8g, ix, iy, 1, u8g_pgm_read(data));
 653:u8glib/u8g_font.c ****       data++;
 654:u8glib/u8g_font.c ****       iy+=8;
 655:u8glib/u8g_font.c ****     }
 656:u8glib/u8g_font.c ****     ix--;
 657:u8glib/u8g_font.c ****   }
 658:u8glib/u8g_font.c ****   return u8g->glyph_dx;
 659:u8glib/u8g_font.c **** }
 660:u8glib/u8g_font.c **** 
 661:u8glib/u8g_font.c **** int8_t u8g_DrawGlyph90(u8g_t *u8g, u8g_uint_t x, u8g_uint_t y, uint8_t encoding)
 662:u8glib/u8g_font.c **** {
 663:u8glib/u8g_font.c ****   x -= u8g->font_calc_vref(u8g);
ARM GAS  C:\Users\master\AppData\Local\Temp\cc4icg2r.s 			page 19


 664:u8glib/u8g_font.c ****   return u8g_draw_glyph90(u8g, x, y, encoding);
 665:u8glib/u8g_font.c **** }
 666:u8glib/u8g_font.c **** 
 667:u8glib/u8g_font.c **** 
 668:u8glib/u8g_font.c **** int8_t u8g_draw_glyph180(u8g_t *u8g, u8g_uint_t x, u8g_uint_t y, uint8_t encoding)
 669:u8glib/u8g_font.c **** {
 670:u8glib/u8g_font.c ****   const u8g_pgm_uint8_t *data;
 671:u8glib/u8g_font.c ****   uint8_t w, h;
 672:u8glib/u8g_font.c ****   uint8_t i, j;
 673:u8glib/u8g_font.c ****   u8g_uint_t ix, iy;
 674:u8glib/u8g_font.c **** 
 675:u8glib/u8g_font.c ****   {
 676:u8glib/u8g_font.c ****     u8g_glyph_t g = u8g_GetGlyph(u8g, encoding);
 677:u8glib/u8g_font.c ****     if ( g == NULL  )
 678:u8glib/u8g_font.c ****       return 0;
 679:u8glib/u8g_font.c ****     data = u8g_font_GetGlyphDataStart(u8g->font, g);
 680:u8glib/u8g_font.c ****   }
 681:u8glib/u8g_font.c ****   
 682:u8glib/u8g_font.c ****   w = u8g->glyph_width;
 683:u8glib/u8g_font.c ****   h = u8g->glyph_height;
 684:u8glib/u8g_font.c ****   
 685:u8glib/u8g_font.c ****   x -= u8g->glyph_x;
 686:u8glib/u8g_font.c ****   y += u8g->glyph_y;
 687:u8glib/u8g_font.c ****   y++;
 688:u8glib/u8g_font.c ****   
 689:u8glib/u8g_font.c ****   if ( u8g_IsBBXIntersection(u8g, x-(w-1), y, w, h) == 0 )
 690:u8glib/u8g_font.c ****     return u8g->glyph_dx;
 691:u8glib/u8g_font.c **** 
 692:u8glib/u8g_font.c ****   /* now, w is reused as bytes per line */
 693:u8glib/u8g_font.c ****   w += 7;
 694:u8glib/u8g_font.c ****   w /= 8;
 695:u8glib/u8g_font.c ****   
 696:u8glib/u8g_font.c ****   iy = y;
 697:u8glib/u8g_font.c ****   iy += h;
 698:u8glib/u8g_font.c ****   iy--;
 699:u8glib/u8g_font.c ****   for( j = 0; j < h; j++ )
 700:u8glib/u8g_font.c ****   {
 701:u8glib/u8g_font.c ****     ix = x;
 702:u8glib/u8g_font.c ****     for( i = 0; i < w; i++ )
 703:u8glib/u8g_font.c ****     {
 704:u8glib/u8g_font.c ****       u8g_Draw8Pixel(u8g, ix, iy, 2, u8g_pgm_read(data));
 705:u8glib/u8g_font.c ****       data++;
 706:u8glib/u8g_font.c ****       ix-=8;
 707:u8glib/u8g_font.c ****     }
 708:u8glib/u8g_font.c ****     iy--;
 709:u8glib/u8g_font.c ****   }
 710:u8glib/u8g_font.c ****   return u8g->glyph_dx;
 711:u8glib/u8g_font.c **** }
 712:u8glib/u8g_font.c **** 
 713:u8glib/u8g_font.c **** int8_t u8g_DrawGlyph180(u8g_t *u8g, u8g_uint_t x, u8g_uint_t y, uint8_t encoding)
 714:u8glib/u8g_font.c **** {
 715:u8glib/u8g_font.c ****   y -= u8g->font_calc_vref(u8g);
 716:u8glib/u8g_font.c ****   return u8g_draw_glyph180(u8g, x, y, encoding);
 717:u8glib/u8g_font.c **** }
 718:u8glib/u8g_font.c **** 
 719:u8glib/u8g_font.c **** 
 720:u8glib/u8g_font.c **** int8_t u8g_draw_glyph270(u8g_t *u8g, u8g_uint_t x, u8g_uint_t y, uint8_t encoding)
ARM GAS  C:\Users\master\AppData\Local\Temp\cc4icg2r.s 			page 20


 721:u8glib/u8g_font.c **** {
 722:u8glib/u8g_font.c ****   const u8g_pgm_uint8_t *data;
 723:u8glib/u8g_font.c ****   uint8_t w, h;
 724:u8glib/u8g_font.c ****   uint8_t i, j;
 725:u8glib/u8g_font.c ****   u8g_uint_t ix, iy;
 726:u8glib/u8g_font.c **** 
 727:u8glib/u8g_font.c ****   {
 728:u8glib/u8g_font.c ****     u8g_glyph_t g = u8g_GetGlyph(u8g, encoding);
 729:u8glib/u8g_font.c ****     if ( g == NULL  )
 730:u8glib/u8g_font.c ****       return 0;
 731:u8glib/u8g_font.c ****     data = u8g_font_GetGlyphDataStart(u8g->font, g);
 732:u8glib/u8g_font.c ****   }
 733:u8glib/u8g_font.c ****   
 734:u8glib/u8g_font.c ****   w = u8g->glyph_width;
 735:u8glib/u8g_font.c ****   h = u8g->glyph_height;
 736:u8glib/u8g_font.c ****   
 737:u8glib/u8g_font.c ****   x -= u8g->glyph_y;
 738:u8glib/u8g_font.c ****   x--;
 739:u8glib/u8g_font.c ****   y -= u8g->glyph_x;
 740:u8glib/u8g_font.c ****   
 741:u8glib/u8g_font.c ****   if ( u8g_IsBBXIntersection(u8g, x-(h-1), y-(w-1), h, w) == 0 )
 742:u8glib/u8g_font.c ****     return u8g->glyph_dx;
 743:u8glib/u8g_font.c ****   
 744:u8glib/u8g_font.c **** 
 745:u8glib/u8g_font.c ****   /* now, w is reused as bytes per line */
 746:u8glib/u8g_font.c ****   w += 7;
 747:u8glib/u8g_font.c ****   w /= 8;  
 748:u8glib/u8g_font.c ****       
 749:u8glib/u8g_font.c ****   ix = x;
 750:u8glib/u8g_font.c ****   ix -= h;
 751:u8glib/u8g_font.c ****   ix++;
 752:u8glib/u8g_font.c ****   
 753:u8glib/u8g_font.c ****   for( j = 0; j < h; j++ )
 754:u8glib/u8g_font.c ****   {
 755:u8glib/u8g_font.c ****     iy = y;
 756:u8glib/u8g_font.c ****     for( i = 0; i < w; i++ )
 757:u8glib/u8g_font.c ****     {
 758:u8glib/u8g_font.c ****       u8g_Draw8Pixel(u8g, ix, iy, 3, u8g_pgm_read(data));
 759:u8glib/u8g_font.c ****       data++;
 760:u8glib/u8g_font.c ****       iy-=8;
 761:u8glib/u8g_font.c ****     }
 762:u8glib/u8g_font.c ****     ix++;
 763:u8glib/u8g_font.c ****   }
 764:u8glib/u8g_font.c ****   return u8g->glyph_dx;
 765:u8glib/u8g_font.c **** }
 766:u8glib/u8g_font.c **** 
 767:u8glib/u8g_font.c **** int8_t u8g_DrawGlyph270(u8g_t *u8g, u8g_uint_t x, u8g_uint_t y, uint8_t encoding)
 768:u8glib/u8g_font.c **** {
 769:u8glib/u8g_font.c ****   x += u8g->font_calc_vref(u8g);
 770:u8glib/u8g_font.c ****   return u8g_draw_glyph270(u8g, x, y, encoding);
 771:u8glib/u8g_font.c **** }
 772:u8glib/u8g_font.c **** 
 773:u8glib/u8g_font.c **** 
 774:u8glib/u8g_font.c **** 
 775:u8glib/u8g_font.c **** #ifdef OBSOLETE
 776:u8glib/u8g_font.c **** /*
 777:u8glib/u8g_font.c ****   Draw a glyph
ARM GAS  C:\Users\master\AppData\Local\Temp\cc4icg2r.s 			page 21


 778:u8glib/u8g_font.c ****   x,y: lower left corner of the font bounding box
 779:u8glib/u8g_font.c **** */
 780:u8glib/u8g_font.c **** int8_t u8g_DrawGlyphFontBBX(u8g_t *u8g, u8g_uint_t x, u8g_uint_t y, uint8_t dir, uint8_t encoding)
 781:u8glib/u8g_font.c **** {
 782:u8glib/u8g_font.c ****   /* TODO: apply "dir" */
 783:u8glib/u8g_font.c ****   x -= u8g_GetFontBBXOffX(u8g);
 784:u8glib/u8g_font.c ****   y += u8g_GetFontBBXOffY(u8g);
 785:u8glib/u8g_font.c ****   return u8g_DrawGlyphDir(u8g, x, y, dir, encoding);
 786:u8glib/u8g_font.c **** }
 787:u8glib/u8g_font.c **** #endif
 788:u8glib/u8g_font.c **** 
 789:u8glib/u8g_font.c **** /*========================================================================*/
 790:u8glib/u8g_font.c **** /* string drawing procedures */
 791:u8glib/u8g_font.c **** 
 792:u8glib/u8g_font.c **** 
 793:u8glib/u8g_font.c **** u8g_uint_t u8g_DrawStr(u8g_t *u8g, u8g_uint_t x, u8g_uint_t y, const char *s)
 794:u8glib/u8g_font.c **** {
 795:u8glib/u8g_font.c ****   u8g_uint_t t = 0;
 796:u8glib/u8g_font.c ****   int8_t d;
 797:u8glib/u8g_font.c ****   
 798:u8glib/u8g_font.c ****   //u8g_uint_t u8g_GetStrWidth(u8g, s);
 799:u8glib/u8g_font.c ****   //u8g_font_GetFontAscent(u8g->font)-u8g_font_GetFontDescent(u8g->font);
 800:u8glib/u8g_font.c ****   
 801:u8glib/u8g_font.c ****   y += u8g->font_calc_vref(u8g);
 802:u8glib/u8g_font.c ****   
 803:u8glib/u8g_font.c ****   while( *s != '\0' )
 804:u8glib/u8g_font.c ****   {
 805:u8glib/u8g_font.c ****     d = u8g_draw_glyph(u8g, x, y, *s);
 806:u8glib/u8g_font.c ****     x += d;
 807:u8glib/u8g_font.c ****     t += d;
 808:u8glib/u8g_font.c ****     s++;
 809:u8glib/u8g_font.c ****   }
 810:u8glib/u8g_font.c ****   return t;
 811:u8glib/u8g_font.c **** }
 812:u8glib/u8g_font.c **** 
 813:u8glib/u8g_font.c **** u8g_uint_t u8g_DrawStr90(u8g_t *u8g, u8g_uint_t x, u8g_uint_t y, const char *s)
 814:u8glib/u8g_font.c **** {
 815:u8glib/u8g_font.c ****   u8g_uint_t t = 0;
 816:u8glib/u8g_font.c ****   int8_t d;
 817:u8glib/u8g_font.c ****     
 818:u8glib/u8g_font.c ****   x -= u8g->font_calc_vref(u8g);
 819:u8glib/u8g_font.c **** 
 820:u8glib/u8g_font.c ****   while( *s != '\0' )
 821:u8glib/u8g_font.c ****   {
 822:u8glib/u8g_font.c ****     d = u8g_draw_glyph90(u8g, x, y, *s);
 823:u8glib/u8g_font.c ****     y += d;
 824:u8glib/u8g_font.c ****     t += d;
 825:u8glib/u8g_font.c ****     s++;
 826:u8glib/u8g_font.c ****   }
 827:u8glib/u8g_font.c ****   return t;
 828:u8glib/u8g_font.c **** }
 829:u8glib/u8g_font.c **** 
 830:u8glib/u8g_font.c **** u8g_uint_t u8g_DrawStr180(u8g_t *u8g, u8g_uint_t x, u8g_uint_t y, const char *s)
 831:u8glib/u8g_font.c **** {
 832:u8glib/u8g_font.c ****   u8g_uint_t t = 0;
 833:u8glib/u8g_font.c ****   int8_t d;
 834:u8glib/u8g_font.c **** 
ARM GAS  C:\Users\master\AppData\Local\Temp\cc4icg2r.s 			page 22


 835:u8glib/u8g_font.c ****   y -= u8g->font_calc_vref(u8g);
 836:u8glib/u8g_font.c ****   
 837:u8glib/u8g_font.c ****   while( *s != '\0' )
 838:u8glib/u8g_font.c ****   {
 839:u8glib/u8g_font.c ****     d = u8g_draw_glyph180(u8g, x, y, *s);
 840:u8glib/u8g_font.c ****     x -= d;
 841:u8glib/u8g_font.c ****     t += d;
 842:u8glib/u8g_font.c ****     s++;
 843:u8glib/u8g_font.c ****   }
 844:u8glib/u8g_font.c ****   return t;
 845:u8glib/u8g_font.c **** }
 846:u8glib/u8g_font.c **** 
 847:u8glib/u8g_font.c **** u8g_uint_t u8g_DrawStr270(u8g_t *u8g, u8g_uint_t x, u8g_uint_t y, const char *s)
 848:u8glib/u8g_font.c **** {
 849:u8glib/u8g_font.c ****   u8g_uint_t t = 0;
 850:u8glib/u8g_font.c ****   int8_t d;
 851:u8glib/u8g_font.c **** 
 852:u8glib/u8g_font.c ****   x += u8g->font_calc_vref(u8g);
 853:u8glib/u8g_font.c **** 
 854:u8glib/u8g_font.c ****   while( *s != '\0' )
 855:u8glib/u8g_font.c ****   {
 856:u8glib/u8g_font.c ****     d = u8g_draw_glyph270(u8g, x, y, *s);
 857:u8glib/u8g_font.c ****     y -= d;
 858:u8glib/u8g_font.c ****     t += d;
 859:u8glib/u8g_font.c ****     s++;
 860:u8glib/u8g_font.c ****   }
 861:u8glib/u8g_font.c ****   return t;
 862:u8glib/u8g_font.c **** }
 863:u8glib/u8g_font.c **** 
 864:u8glib/u8g_font.c **** u8g_uint_t u8g_DrawStrDir(u8g_t *u8g, u8g_uint_t x, u8g_uint_t y, uint8_t dir, const char *s)
 865:u8glib/u8g_font.c **** {
 866:u8glib/u8g_font.c ****   switch(dir)
 867:u8glib/u8g_font.c ****   {
 868:u8glib/u8g_font.c ****     case 0:
 869:u8glib/u8g_font.c ****       return u8g_DrawStr(u8g, x, y, s);
 870:u8glib/u8g_font.c ****     case 1:
 871:u8glib/u8g_font.c ****       return u8g_DrawStr90(u8g, x, y, s);
 872:u8glib/u8g_font.c ****     case 2:
 873:u8glib/u8g_font.c ****       return u8g_DrawStr180(u8g, x, y, s);
 874:u8glib/u8g_font.c ****     case 3:
 875:u8glib/u8g_font.c ****       return u8g_DrawStr270(u8g, x, y, s);
 876:u8glib/u8g_font.c ****   }
 877:u8glib/u8g_font.c ****   return 0;
 878:u8glib/u8g_font.c **** }
 879:u8glib/u8g_font.c **** 
 880:u8glib/u8g_font.c **** u8g_uint_t u8g_DrawStrP(u8g_t *u8g, u8g_uint_t x, u8g_uint_t y, const u8g_pgm_uint8_t *s)
 881:u8glib/u8g_font.c **** {
 882:u8glib/u8g_font.c ****   u8g_uint_t t = 0;
 883:u8glib/u8g_font.c ****   int8_t d;
 884:u8glib/u8g_font.c ****   uint8_t c;
 885:u8glib/u8g_font.c ****   
 886:u8glib/u8g_font.c ****   y += u8g->font_calc_vref(u8g);
 887:u8glib/u8g_font.c ****   
 888:u8glib/u8g_font.c ****   for(;;)
 889:u8glib/u8g_font.c ****   {
 890:u8glib/u8g_font.c ****     c = u8g_pgm_read(s);
 891:u8glib/u8g_font.c ****     if ( c == '\0' )
ARM GAS  C:\Users\master\AppData\Local\Temp\cc4icg2r.s 			page 23


 892:u8glib/u8g_font.c ****       break;
 893:u8glib/u8g_font.c ****     d = u8g_draw_glyph(u8g, x, y, c);
 894:u8glib/u8g_font.c ****     x += d;
 895:u8glib/u8g_font.c ****     t += d;
 896:u8glib/u8g_font.c ****     s++;
 897:u8glib/u8g_font.c ****   }
 898:u8glib/u8g_font.c ****   return t;
 899:u8glib/u8g_font.c **** }
 900:u8glib/u8g_font.c **** 
 901:u8glib/u8g_font.c **** u8g_uint_t u8g_DrawStr90P(u8g_t *u8g, u8g_uint_t x, u8g_uint_t y, const u8g_pgm_uint8_t *s)
 902:u8glib/u8g_font.c **** {
 903:u8glib/u8g_font.c ****   u8g_uint_t t = 0;
 904:u8glib/u8g_font.c ****   int8_t d;
 905:u8glib/u8g_font.c ****   uint8_t c;
 906:u8glib/u8g_font.c ****   
 907:u8glib/u8g_font.c ****   x -= u8g->font_calc_vref(u8g);
 908:u8glib/u8g_font.c **** 
 909:u8glib/u8g_font.c ****   for(;;)
 910:u8glib/u8g_font.c ****   {
 911:u8glib/u8g_font.c ****     c = u8g_pgm_read(s);
 912:u8glib/u8g_font.c ****     if ( c == '\0' )
 913:u8glib/u8g_font.c ****       break;
 914:u8glib/u8g_font.c ****     d = u8g_DrawGlyph90(u8g, x, y, c);
 915:u8glib/u8g_font.c ****     y += d;
 916:u8glib/u8g_font.c ****     t += d;
 917:u8glib/u8g_font.c ****     s++;
 918:u8glib/u8g_font.c ****   }
 919:u8glib/u8g_font.c ****   return t;
 920:u8glib/u8g_font.c **** }
 921:u8glib/u8g_font.c **** 
 922:u8glib/u8g_font.c **** u8g_uint_t u8g_DrawStr180P(u8g_t *u8g, u8g_uint_t x, u8g_uint_t y, const u8g_pgm_uint8_t *s)
 923:u8glib/u8g_font.c **** {
 924:u8glib/u8g_font.c ****   u8g_uint_t t = 0;
 925:u8glib/u8g_font.c ****   int8_t d;
 926:u8glib/u8g_font.c ****   uint8_t c;
 927:u8glib/u8g_font.c **** 
 928:u8glib/u8g_font.c ****   y -= u8g->font_calc_vref(u8g);
 929:u8glib/u8g_font.c ****   
 930:u8glib/u8g_font.c ****   for(;;)
 931:u8glib/u8g_font.c ****   {
 932:u8glib/u8g_font.c ****     c = u8g_pgm_read(s);
 933:u8glib/u8g_font.c ****     if ( c == '\0' )
 934:u8glib/u8g_font.c ****       break;
 935:u8glib/u8g_font.c ****     d = u8g_DrawGlyph180(u8g, x, y, c);
 936:u8glib/u8g_font.c ****     x -= d;
 937:u8glib/u8g_font.c ****     t += d;
 938:u8glib/u8g_font.c ****     s++;
 939:u8glib/u8g_font.c ****   }
 940:u8glib/u8g_font.c ****   return t;
 941:u8glib/u8g_font.c **** }
 942:u8glib/u8g_font.c **** 
 943:u8glib/u8g_font.c **** u8g_uint_t u8g_DrawStr270P(u8g_t *u8g, u8g_uint_t x, u8g_uint_t y, const u8g_pgm_uint8_t *s)
 944:u8glib/u8g_font.c **** {
 945:u8glib/u8g_font.c ****   u8g_uint_t t = 0;
 946:u8glib/u8g_font.c ****   int8_t d;
 947:u8glib/u8g_font.c ****   uint8_t c;
 948:u8glib/u8g_font.c **** 
ARM GAS  C:\Users\master\AppData\Local\Temp\cc4icg2r.s 			page 24


 949:u8glib/u8g_font.c ****   x += u8g->font_calc_vref(u8g);
 950:u8glib/u8g_font.c **** 
 951:u8glib/u8g_font.c ****   for(;;)
 952:u8glib/u8g_font.c ****   {
 953:u8glib/u8g_font.c ****     c = u8g_pgm_read(s);
 954:u8glib/u8g_font.c ****     if ( c == '\0' )
 955:u8glib/u8g_font.c ****       break;
 956:u8glib/u8g_font.c ****     d = u8g_DrawGlyph270(u8g, x, y, c);
 957:u8glib/u8g_font.c ****     y -= d;
 958:u8glib/u8g_font.c ****     t += d;
 959:u8glib/u8g_font.c ****     s++;
 960:u8glib/u8g_font.c ****   }
 961:u8glib/u8g_font.c ****   return t;
 962:u8glib/u8g_font.c **** }
 963:u8glib/u8g_font.c **** 
 964:u8glib/u8g_font.c **** u8g_uint_t u8g_DrawStrFontBBX(u8g_t *u8g, u8g_uint_t x, u8g_uint_t y, uint8_t dir, const char *s)
 965:u8glib/u8g_font.c **** {
 966:u8glib/u8g_font.c ****   x -= u8g_GetFontBBXOffX(u8g);
 967:u8glib/u8g_font.c ****   y += u8g_GetFontBBXOffY(u8g);
 968:u8glib/u8g_font.c ****   return u8g_DrawStrDir(u8g, x, y, dir, s);
 969:u8glib/u8g_font.c **** }
 970:u8glib/u8g_font.c **** 
 971:u8glib/u8g_font.c **** /* still used by picgen.c, dir argument is ignored */
 972:u8glib/u8g_font.c **** int8_t u8g_DrawGlyphFontBBX(u8g_t *u8g, u8g_uint_t x, u8g_uint_t y, uint8_t dir, uint8_t encoding)
 973:u8glib/u8g_font.c **** {
 974:u8glib/u8g_font.c ****   x -= u8g_GetFontBBXOffX(u8g);
 975:u8glib/u8g_font.c ****   y += u8g_GetFontBBXOffY(u8g);
 976:u8glib/u8g_font.c ****   u8g_draw_glyph(u8g, x, y, encoding);
 977:u8glib/u8g_font.c ****   return 0;
 978:u8glib/u8g_font.c **** }
 979:u8glib/u8g_font.c **** 
 980:u8glib/u8g_font.c **** 
 981:u8glib/u8g_font.c **** /*========================================================================*/
 982:u8glib/u8g_font.c **** /* set ascent/descent for reference point calculation */
 983:u8glib/u8g_font.c **** 
 984:u8glib/u8g_font.c **** void u8g_UpdateRefHeight(u8g_t *u8g)
 985:u8glib/u8g_font.c **** {
 986:u8glib/u8g_font.c ****   uint16_t ls;
 987:u8glib/u8g_font.c ****   if ( u8g->font == NULL )
 988:u8glib/u8g_font.c ****     return;
 989:u8glib/u8g_font.c ****   if ( u8g->font_height_mode == U8G_FONT_HEIGHT_MODE_TEXT )
 990:u8glib/u8g_font.c ****   {
 991:u8glib/u8g_font.c ****     u8g->font_ref_ascent = u8g_font_GetCapitalAHeight(u8g->font);
 992:u8glib/u8g_font.c ****     u8g->font_ref_descent = u8g_font_GetLowerGDescent(u8g->font);
 993:u8glib/u8g_font.c ****   }
 994:u8glib/u8g_font.c ****   else if ( u8g->font_height_mode == U8G_FONT_HEIGHT_MODE_XTEXT )
 995:u8glib/u8g_font.c ****   {
 996:u8glib/u8g_font.c ****     u8g->font_ref_ascent = u8g_font_GetFontXAscent(u8g->font);
 997:u8glib/u8g_font.c ****     u8g->font_ref_descent = u8g_font_GetFontXDescent(u8g->font);
 998:u8glib/u8g_font.c ****   }
 999:u8glib/u8g_font.c ****   else
1000:u8glib/u8g_font.c ****   {
1001:u8glib/u8g_font.c ****     u8g->font_ref_ascent = u8g_font_GetFontAscent(u8g->font);
1002:u8glib/u8g_font.c ****     u8g->font_ref_descent = u8g_font_GetFontDescent(u8g->font);
1003:u8glib/u8g_font.c ****   }
1004:u8glib/u8g_font.c ****   
1005:u8glib/u8g_font.c ****   ls = u8g->font_ref_ascent - u8g->font_ref_descent;
ARM GAS  C:\Users\master\AppData\Local\Temp\cc4icg2r.s 			page 25


1006:u8glib/u8g_font.c ****   if ( u8g->font_line_spacing_factor != 64 )
1007:u8glib/u8g_font.c ****   {
1008:u8glib/u8g_font.c ****     ls &= 255;
1009:u8glib/u8g_font.c ****     ls *= u8g->font_line_spacing_factor;
1010:u8glib/u8g_font.c ****     ls >>= 6;
1011:u8glib/u8g_font.c ****   }
1012:u8glib/u8g_font.c ****   u8g->line_spacing = ls;
1013:u8glib/u8g_font.c **** }
1014:u8glib/u8g_font.c **** 
1015:u8glib/u8g_font.c **** void u8g_SetFontRefHeightText(u8g_t *u8g)
1016:u8glib/u8g_font.c **** {
1017:u8glib/u8g_font.c ****   u8g->font_height_mode = U8G_FONT_HEIGHT_MODE_TEXT;
1018:u8glib/u8g_font.c ****   u8g_UpdateRefHeight(u8g);
1019:u8glib/u8g_font.c **** }
1020:u8glib/u8g_font.c **** 
1021:u8glib/u8g_font.c **** void u8g_SetFontRefHeightExtendedText(u8g_t *u8g)
1022:u8glib/u8g_font.c **** {
1023:u8glib/u8g_font.c ****   u8g->font_height_mode = U8G_FONT_HEIGHT_MODE_XTEXT;
1024:u8glib/u8g_font.c ****   u8g_UpdateRefHeight(u8g);
1025:u8glib/u8g_font.c **** }
1026:u8glib/u8g_font.c **** 
1027:u8glib/u8g_font.c **** 
1028:u8glib/u8g_font.c **** void u8g_SetFontRefHeightAll(u8g_t *u8g)
1029:u8glib/u8g_font.c **** {
1030:u8glib/u8g_font.c ****   u8g->font_height_mode = U8G_FONT_HEIGHT_MODE_ALL;
1031:u8glib/u8g_font.c ****   u8g_UpdateRefHeight(u8g);
1032:u8glib/u8g_font.c **** }
1033:u8glib/u8g_font.c **** 
1034:u8glib/u8g_font.c **** /* factor = 64: linespaceing == ascent and descent */
1035:u8glib/u8g_font.c **** void u8g_SetFontLineSpacingFactor(u8g_t *u8g, uint8_t  factor)
1036:u8glib/u8g_font.c **** {
1037:u8glib/u8g_font.c ****   u8g->font_line_spacing_factor = factor;
1038:u8glib/u8g_font.c ****   u8g_UpdateRefHeight(u8g);
1039:u8glib/u8g_font.c **** }
1040:u8glib/u8g_font.c **** 
1041:u8glib/u8g_font.c **** 
1042:u8glib/u8g_font.c **** 
1043:u8glib/u8g_font.c **** /*========================================================================*/
1044:u8glib/u8g_font.c **** /* callback procedures to correct the y position */
1045:u8glib/u8g_font.c **** 
1046:u8glib/u8g_font.c **** u8g_uint_t u8g_font_calc_vref_font(u8g_t *u8g)
1047:u8glib/u8g_font.c **** {
 387              		.loc 1 1047 0
 388              		.cfi_startproc
 389              		@ args = 0, pretend = 0, frame = 0
 390              		@ frame_needed = 0, uses_anonymous_args = 0
 391              		@ link register save eliminated.
 392              	.LVL32:
1048:u8glib/u8g_font.c ****   return 0;
1049:u8glib/u8g_font.c **** }
 393              		.loc 1 1049 0
 394 0000 0020     		movs	r0, #0
 395              	.LVL33:
 396 0002 7047     		bx	lr
 397              		.cfi_endproc
 398              	.LFE54:
 400              		.section	.text.u8g_font_calc_vref_bottom,"ax",%progbits
ARM GAS  C:\Users\master\AppData\Local\Temp\cc4icg2r.s 			page 26


 401              		.align	2
 402              		.global	u8g_font_calc_vref_bottom
 403              		.thumb
 404              		.thumb_func
 406              	u8g_font_calc_vref_bottom:
 407              	.LFB56:
1050:u8glib/u8g_font.c **** 
1051:u8glib/u8g_font.c **** void u8g_SetFontPosBaseline(u8g_t *u8g)
1052:u8glib/u8g_font.c **** {
1053:u8glib/u8g_font.c ****   u8g->font_calc_vref = u8g_font_calc_vref_font;
1054:u8glib/u8g_font.c **** }
1055:u8glib/u8g_font.c **** 
1056:u8glib/u8g_font.c **** 
1057:u8glib/u8g_font.c **** u8g_uint_t u8g_font_calc_vref_bottom(u8g_t *u8g)
1058:u8glib/u8g_font.c **** {
 408              		.loc 1 1058 0
 409              		.cfi_startproc
 410              		@ args = 0, pretend = 0, frame = 0
 411              		@ frame_needed = 0, uses_anonymous_args = 0
 412              		@ link register save eliminated.
 413              	.LVL34:
1059:u8glib/u8g_font.c ****   /* y += (u8g_uint_t)(u8g_int_t)(u8g->font_ref_descent); */
1060:u8glib/u8g_font.c ****   return (u8g_uint_t)(u8g_int_t)(u8g->font_ref_descent);
1061:u8glib/u8g_font.c **** }
 414              		.loc 1 1061 0
 415 0000 90F82A00 		ldrb	r0, [r0, #42]	@ zero_extendqisi2
 416              	.LVL35:
 417 0004 7047     		bx	lr
 418              		.cfi_endproc
 419              	.LFE56:
 421 0006 00BF     		.section	.text.u8g_font_calc_vref_top,"ax",%progbits
 422              		.align	2
 423              		.global	u8g_font_calc_vref_top
 424              		.thumb
 425              		.thumb_func
 427              	u8g_font_calc_vref_top:
 428              	.LFB58:
1062:u8glib/u8g_font.c **** 
1063:u8glib/u8g_font.c **** void u8g_SetFontPosBottom(u8g_t *u8g)
1064:u8glib/u8g_font.c **** {
1065:u8glib/u8g_font.c ****   u8g->font_calc_vref = u8g_font_calc_vref_bottom;
1066:u8glib/u8g_font.c **** }
1067:u8glib/u8g_font.c **** 
1068:u8glib/u8g_font.c **** u8g_uint_t u8g_font_calc_vref_top(u8g_t *u8g)
1069:u8glib/u8g_font.c **** {
 429              		.loc 1 1069 0
 430              		.cfi_startproc
 431              		@ args = 0, pretend = 0, frame = 0
 432              		@ frame_needed = 0, uses_anonymous_args = 0
 433              		@ link register save eliminated.
 434              	.LVL36:
1070:u8glib/u8g_font.c ****   u8g_uint_t tmp;
1071:u8glib/u8g_font.c ****   /* reference pos is one pixel above the upper edge of the reference glyph */
1072:u8glib/u8g_font.c **** 
1073:u8glib/u8g_font.c ****   /*
1074:u8glib/u8g_font.c ****   y += (u8g_uint_t)(u8g_int_t)(u8g->font_ref_ascent);
1075:u8glib/u8g_font.c ****   y++;
ARM GAS  C:\Users\master\AppData\Local\Temp\cc4icg2r.s 			page 27


1076:u8glib/u8g_font.c ****   */
1077:u8glib/u8g_font.c ****   tmp = (u8g_uint_t)(u8g_int_t)(u8g->font_ref_ascent);
 435              		.loc 1 1077 0
 436 0000 90F82900 		ldrb	r0, [r0, #41]	@ zero_extendqisi2
 437              	.LVL37:
1078:u8glib/u8g_font.c ****   tmp++;
 438              		.loc 1 1078 0
 439 0004 0130     		adds	r0, r0, #1
 440              	.LVL38:
1079:u8glib/u8g_font.c ****   return tmp;
1080:u8glib/u8g_font.c **** }
 441              		.loc 1 1080 0
 442 0006 C0B2     		uxtb	r0, r0
 443 0008 7047     		bx	lr
 444              		.cfi_endproc
 445              	.LFE58:
 447 000a 00BF     		.section	.text.u8g_font_calc_vref_center,"ax",%progbits
 448              		.align	2
 449              		.global	u8g_font_calc_vref_center
 450              		.thumb
 451              		.thumb_func
 453              	u8g_font_calc_vref_center:
 454              	.LFB60:
1081:u8glib/u8g_font.c **** 
1082:u8glib/u8g_font.c **** void u8g_SetFontPosTop(u8g_t *u8g)
1083:u8glib/u8g_font.c **** {
1084:u8glib/u8g_font.c ****   u8g->font_calc_vref = u8g_font_calc_vref_top;
1085:u8glib/u8g_font.c **** }
1086:u8glib/u8g_font.c **** 
1087:u8glib/u8g_font.c **** u8g_uint_t u8g_font_calc_vref_center(u8g_t *u8g)
1088:u8glib/u8g_font.c **** {
 455              		.loc 1 1088 0
 456              		.cfi_startproc
 457              		@ args = 0, pretend = 0, frame = 0
 458              		@ frame_needed = 0, uses_anonymous_args = 0
 459              		@ link register save eliminated.
 460              	.LVL39:
1089:u8glib/u8g_font.c ****   int8_t tmp;
1090:u8glib/u8g_font.c ****   tmp = u8g->font_ref_ascent;
 461              		.loc 1 1090 0
 462 0000 90F92930 		ldrsb	r3, [r0, #41]
 463              	.LVL40:
1091:u8glib/u8g_font.c ****   tmp -= u8g->font_ref_descent;
 464              		.loc 1 1091 0
 465 0004 90F82A00 		ldrb	r0, [r0, #42]	@ zero_extendqisi2
 466              	.LVL41:
 467 0008 1B1A     		subs	r3, r3, r0
 468              	.LVL42:
 469 000a 5BB2     		sxtb	r3, r3
 470              	.LVL43:
1092:u8glib/u8g_font.c ****   tmp /= 2;
 471              		.loc 1 1092 0
 472 000c 03EBD373 		add	r3, r3, r3, lsr #31
 473              	.LVL44:
1093:u8glib/u8g_font.c ****   tmp += u8g->font_ref_descent;  
 474              		.loc 1 1093 0
 475 0010 00EB6300 		add	r0, r0, r3, asr #1
ARM GAS  C:\Users\master\AppData\Local\Temp\cc4icg2r.s 			page 28


 476              	.LVL45:
1094:u8glib/u8g_font.c ****   /* y += (u8g_uint_t)(u8g_int_t)(tmp); */
1095:u8glib/u8g_font.c ****   return tmp;
1096:u8glib/u8g_font.c **** }
 477              		.loc 1 1096 0
 478 0014 C0B2     		uxtb	r0, r0
 479 0016 7047     		bx	lr
 480              		.cfi_endproc
 481              	.LFE60:
 483              		.section	.text.u8g_font_get_char,"ax",%progbits
 484              		.align	2
 485              		.global	u8g_font_get_char
 486              		.thumb
 487              		.thumb_func
 489              	u8g_font_get_char:
 490              	.LFB62:
1097:u8glib/u8g_font.c **** 
1098:u8glib/u8g_font.c **** void u8g_SetFontPosCenter(u8g_t *u8g)
1099:u8glib/u8g_font.c **** {
1100:u8glib/u8g_font.c ****   u8g->font_calc_vref = u8g_font_calc_vref_center;
1101:u8glib/u8g_font.c **** }
1102:u8glib/u8g_font.c **** 
1103:u8glib/u8g_font.c **** /*========================================================================*/
1104:u8glib/u8g_font.c **** /* string pixel width calculation */
1105:u8glib/u8g_font.c **** 
1106:u8glib/u8g_font.c **** char u8g_font_get_char(const void *s)
1107:u8glib/u8g_font.c **** {
 491              		.loc 1 1107 0
 492              		.cfi_startproc
 493              		@ args = 0, pretend = 0, frame = 0
 494              		@ frame_needed = 0, uses_anonymous_args = 0
 495              		@ link register save eliminated.
 496              	.LVL46:
1108:u8glib/u8g_font.c ****   return *(const char *)(s);
1109:u8glib/u8g_font.c **** }
 497              		.loc 1 1109 0
 498 0000 0078     		ldrb	r0, [r0]	@ zero_extendqisi2
 499              	.LVL47:
 500 0002 7047     		bx	lr
 501              		.cfi_endproc
 502              	.LFE62:
 504              		.section	.text.u8g_font_get_charP,"ax",%progbits
 505              		.align	2
 506              		.global	u8g_font_get_charP
 507              		.thumb
 508              		.thumb_func
 510              	u8g_font_get_charP:
 511              	.LFB63:
1110:u8glib/u8g_font.c **** 
1111:u8glib/u8g_font.c **** char u8g_font_get_charP(const void *s)
1112:u8glib/u8g_font.c **** {
 512              		.loc 1 1112 0
 513              		.cfi_startproc
 514              		@ args = 0, pretend = 0, frame = 0
 515              		@ frame_needed = 0, uses_anonymous_args = 0
 516              		@ link register save eliminated.
 517              	.LVL48:
ARM GAS  C:\Users\master\AppData\Local\Temp\cc4icg2r.s 			page 29


1113:u8glib/u8g_font.c ****   return u8g_pgm_read(s);
1114:u8glib/u8g_font.c **** }
 518              		.loc 1 1114 0
 519 0000 0078     		ldrb	r0, [r0]	@ zero_extendqisi2
 520              	.LVL49:
 521 0002 7047     		bx	lr
 522              		.cfi_endproc
 523              	.LFE63:
 525              		.section	.text.u8g_font_GetCapitalAHeight,"ax",%progbits
 526              		.align	2
 527              		.global	u8g_font_GetCapitalAHeight
 528              		.thumb
 529              		.thumb_func
 531              	u8g_font_GetCapitalAHeight:
 532              	.LFB8:
 148:u8glib/u8g_font.c ****   return u8g_font_get_byte(font, 5);
 533              		.loc 1 148 0
 534              		.cfi_startproc
 535              		@ args = 0, pretend = 0, frame = 0
 536              		@ frame_needed = 0, uses_anonymous_args = 0
 537              	.LVL50:
 538 0000 08B5     		push	{r3, lr}
 539              	.LCFI8:
 540              		.cfi_def_cfa_offset 8
 541              		.cfi_offset 3, -8
 542              		.cfi_offset 14, -4
 149:u8glib/u8g_font.c **** }
 543              		.loc 1 149 0
 544 0002 0521     		movs	r1, #5
 545 0004 FFF7FEFF 		bl	u8g_font_get_byte
 546              	.LVL51:
 150:u8glib/u8g_font.c **** 
 547              		.loc 1 150 0
 548 0008 08BD     		pop	{r3, pc}
 549              		.cfi_endproc
 550              	.LFE8:
 552 000a 00BF     		.section	.text.u8g_font_GetEncoding65Pos,"ax",%progbits
 553              		.align	2
 554              		.global	u8g_font_GetEncoding65Pos
 555              		.thumb
 556              		.thumb_func
 558              	u8g_font_GetEncoding65Pos:
 559              	.LFB9:
 154:u8glib/u8g_font.c ****     return u8g_font_get_word(font, 6);
 560              		.loc 1 154 0
 561              		.cfi_startproc
 562              		@ args = 0, pretend = 0, frame = 0
 563              		@ frame_needed = 0, uses_anonymous_args = 0
 564              	.LVL52:
 565 0000 08B5     		push	{r3, lr}
 566              	.LCFI9:
 567              		.cfi_def_cfa_offset 8
 568              		.cfi_offset 3, -8
 569              		.cfi_offset 14, -4
 155:u8glib/u8g_font.c **** }
 570              		.loc 1 155 0
 571 0002 0621     		movs	r1, #6
ARM GAS  C:\Users\master\AppData\Local\Temp\cc4icg2r.s 			page 30


 572 0004 FFF7FEFF 		bl	u8g_font_get_word
 573              	.LVL53:
 156:u8glib/u8g_font.c **** 
 574              		.loc 1 156 0
 575 0008 08BD     		pop	{r3, pc}
 576              		.cfi_endproc
 577              	.LFE9:
 579 000a 00BF     		.section	.text.u8g_font_GetEncoding97Pos,"ax",%progbits
 580              		.align	2
 581              		.global	u8g_font_GetEncoding97Pos
 582              		.thumb
 583              		.thumb_func
 585              	u8g_font_GetEncoding97Pos:
 586              	.LFB10:
 160:u8glib/u8g_font.c ****     return u8g_font_get_word(font, 8);
 587              		.loc 1 160 0
 588              		.cfi_startproc
 589              		@ args = 0, pretend = 0, frame = 0
 590              		@ frame_needed = 0, uses_anonymous_args = 0
 591              	.LVL54:
 592 0000 08B5     		push	{r3, lr}
 593              	.LCFI10:
 594              		.cfi_def_cfa_offset 8
 595              		.cfi_offset 3, -8
 596              		.cfi_offset 14, -4
 161:u8glib/u8g_font.c **** }
 597              		.loc 1 161 0
 598 0002 0821     		movs	r1, #8
 599 0004 FFF7FEFF 		bl	u8g_font_get_word
 600              	.LVL55:
 162:u8glib/u8g_font.c **** 
 601              		.loc 1 162 0
 602 0008 08BD     		pop	{r3, pc}
 603              		.cfi_endproc
 604              	.LFE10:
 606 000a 00BF     		.section	.text.u8g_font_GetFontStartEncoding,"ax",%progbits
 607              		.align	2
 608              		.global	u8g_font_GetFontStartEncoding
 609              		.thumb
 610              		.thumb_func
 612              	u8g_font_GetFontStartEncoding:
 613              	.LFB11:
 165:u8glib/u8g_font.c ****   return u8g_font_get_byte(font, 10);
 614              		.loc 1 165 0
 615              		.cfi_startproc
 616              		@ args = 0, pretend = 0, frame = 0
 617              		@ frame_needed = 0, uses_anonymous_args = 0
 618              	.LVL56:
 619 0000 08B5     		push	{r3, lr}
 620              	.LCFI11:
 621              		.cfi_def_cfa_offset 8
 622              		.cfi_offset 3, -8
 623              		.cfi_offset 14, -4
 166:u8glib/u8g_font.c **** }
 624              		.loc 1 166 0
 625 0002 0A21     		movs	r1, #10
 626 0004 FFF7FEFF 		bl	u8g_font_get_byte
ARM GAS  C:\Users\master\AppData\Local\Temp\cc4icg2r.s 			page 31


 627              	.LVL57:
 167:u8glib/u8g_font.c **** 
 628              		.loc 1 167 0
 629 0008 08BD     		pop	{r3, pc}
 630              		.cfi_endproc
 631              	.LFE11:
 633 000a 00BF     		.section	.text.u8g_font_GetFontEndEncoding,"ax",%progbits
 634              		.align	2
 635              		.global	u8g_font_GetFontEndEncoding
 636              		.thumb
 637              		.thumb_func
 639              	u8g_font_GetFontEndEncoding:
 640              	.LFB12:
 170:u8glib/u8g_font.c ****   return u8g_font_get_byte(font, 11);
 641              		.loc 1 170 0
 642              		.cfi_startproc
 643              		@ args = 0, pretend = 0, frame = 0
 644              		@ frame_needed = 0, uses_anonymous_args = 0
 645              	.LVL58:
 646 0000 08B5     		push	{r3, lr}
 647              	.LCFI12:
 648              		.cfi_def_cfa_offset 8
 649              		.cfi_offset 3, -8
 650              		.cfi_offset 14, -4
 171:u8glib/u8g_font.c **** }
 651              		.loc 1 171 0
 652 0002 0B21     		movs	r1, #11
 653 0004 FFF7FEFF 		bl	u8g_font_get_byte
 654              	.LVL59:
 172:u8glib/u8g_font.c **** 
 655              		.loc 1 172 0
 656 0008 08BD     		pop	{r3, pc}
 657              		.cfi_endproc
 658              	.LFE12:
 660 000a 00BF     		.section	.text.u8g_font_GetLowerGDescent,"ax",%progbits
 661              		.align	2
 662              		.global	u8g_font_GetLowerGDescent
 663              		.thumb
 664              		.thumb_func
 666              	u8g_font_GetLowerGDescent:
 667              	.LFB13:
 175:u8glib/u8g_font.c ****   return u8g_font_get_byte(font, 12);
 668              		.loc 1 175 0
 669              		.cfi_startproc
 670              		@ args = 0, pretend = 0, frame = 0
 671              		@ frame_needed = 0, uses_anonymous_args = 0
 672              	.LVL60:
 673 0000 08B5     		push	{r3, lr}
 674              	.LCFI13:
 675              		.cfi_def_cfa_offset 8
 676              		.cfi_offset 3, -8
 677              		.cfi_offset 14, -4
 176:u8glib/u8g_font.c **** }
 678              		.loc 1 176 0
 679 0002 0C21     		movs	r1, #12
 680 0004 FFF7FEFF 		bl	u8g_font_get_byte
 681              	.LVL61:
ARM GAS  C:\Users\master\AppData\Local\Temp\cc4icg2r.s 			page 32


 177:u8glib/u8g_font.c **** 
 682              		.loc 1 177 0
 683 0008 40B2     		sxtb	r0, r0
 684 000a 08BD     		pop	{r3, pc}
 685              		.cfi_endproc
 686              	.LFE13:
 688              		.section	.text.u8g_font_GetFontAscent,"ax",%progbits
 689              		.align	2
 690              		.global	u8g_font_GetFontAscent
 691              		.thumb
 692              		.thumb_func
 694              	u8g_font_GetFontAscent:
 695              	.LFB14:
 180:u8glib/u8g_font.c ****   return u8g_font_get_byte(font, 13);
 696              		.loc 1 180 0
 697              		.cfi_startproc
 698              		@ args = 0, pretend = 0, frame = 0
 699              		@ frame_needed = 0, uses_anonymous_args = 0
 700              	.LVL62:
 701 0000 08B5     		push	{r3, lr}
 702              	.LCFI14:
 703              		.cfi_def_cfa_offset 8
 704              		.cfi_offset 3, -8
 705              		.cfi_offset 14, -4
 181:u8glib/u8g_font.c **** }
 706              		.loc 1 181 0
 707 0002 0D21     		movs	r1, #13
 708 0004 FFF7FEFF 		bl	u8g_font_get_byte
 709              	.LVL63:
 182:u8glib/u8g_font.c **** 
 710              		.loc 1 182 0
 711 0008 40B2     		sxtb	r0, r0
 712 000a 08BD     		pop	{r3, pc}
 713              		.cfi_endproc
 714              	.LFE14:
 716              		.section	.text.u8g_font_GetFontDescent,"ax",%progbits
 717              		.align	2
 718              		.global	u8g_font_GetFontDescent
 719              		.thumb
 720              		.thumb_func
 722              	u8g_font_GetFontDescent:
 723              	.LFB15:
 185:u8glib/u8g_font.c ****   return u8g_font_get_byte(font, 14);
 724              		.loc 1 185 0
 725              		.cfi_startproc
 726              		@ args = 0, pretend = 0, frame = 0
 727              		@ frame_needed = 0, uses_anonymous_args = 0
 728              	.LVL64:
 729 0000 08B5     		push	{r3, lr}
 730              	.LCFI15:
 731              		.cfi_def_cfa_offset 8
 732              		.cfi_offset 3, -8
 733              		.cfi_offset 14, -4
 186:u8glib/u8g_font.c **** }
 734              		.loc 1 186 0
 735 0002 0E21     		movs	r1, #14
 736 0004 FFF7FEFF 		bl	u8g_font_get_byte
ARM GAS  C:\Users\master\AppData\Local\Temp\cc4icg2r.s 			page 33


 737              	.LVL65:
 187:u8glib/u8g_font.c **** 
 738              		.loc 1 187 0
 739 0008 40B2     		sxtb	r0, r0
 740 000a 08BD     		pop	{r3, pc}
 741              		.cfi_endproc
 742              	.LFE15:
 744              		.section	.text.u8g_font_GetFontXAscent,"ax",%progbits
 745              		.align	2
 746              		.global	u8g_font_GetFontXAscent
 747              		.thumb
 748              		.thumb_func
 750              	u8g_font_GetFontXAscent:
 751              	.LFB16:
 190:u8glib/u8g_font.c ****   return u8g_font_get_byte(font, 15);
 752              		.loc 1 190 0
 753              		.cfi_startproc
 754              		@ args = 0, pretend = 0, frame = 0
 755              		@ frame_needed = 0, uses_anonymous_args = 0
 756              	.LVL66:
 757 0000 08B5     		push	{r3, lr}
 758              	.LCFI16:
 759              		.cfi_def_cfa_offset 8
 760              		.cfi_offset 3, -8
 761              		.cfi_offset 14, -4
 191:u8glib/u8g_font.c **** }
 762              		.loc 1 191 0
 763 0002 0F21     		movs	r1, #15
 764 0004 FFF7FEFF 		bl	u8g_font_get_byte
 765              	.LVL67:
 192:u8glib/u8g_font.c **** 
 766              		.loc 1 192 0
 767 0008 40B2     		sxtb	r0, r0
 768 000a 08BD     		pop	{r3, pc}
 769              		.cfi_endproc
 770              	.LFE16:
 772              		.section	.text.u8g_font_GetFontXDescent,"ax",%progbits
 773              		.align	2
 774              		.global	u8g_font_GetFontXDescent
 775              		.thumb
 776              		.thumb_func
 778              	u8g_font_GetFontXDescent:
 779              	.LFB17:
 195:u8glib/u8g_font.c ****   return u8g_font_get_byte(font, 16);
 780              		.loc 1 195 0
 781              		.cfi_startproc
 782              		@ args = 0, pretend = 0, frame = 0
 783              		@ frame_needed = 0, uses_anonymous_args = 0
 784              	.LVL68:
 785 0000 08B5     		push	{r3, lr}
 786              	.LCFI17:
 787              		.cfi_def_cfa_offset 8
 788              		.cfi_offset 3, -8
 789              		.cfi_offset 14, -4
 196:u8glib/u8g_font.c **** }
 790              		.loc 1 196 0
 791 0002 1021     		movs	r1, #16
ARM GAS  C:\Users\master\AppData\Local\Temp\cc4icg2r.s 			page 34


 792 0004 FFF7FEFF 		bl	u8g_font_get_byte
 793              	.LVL69:
 197:u8glib/u8g_font.c **** 
 794              		.loc 1 197 0
 795 0008 40B2     		sxtb	r0, r0
 796 000a 08BD     		pop	{r3, pc}
 797              		.cfi_endproc
 798              	.LFE17:
 800              		.section	.text.u8g_font_GetSize,"ax",%progbits
 801              		.align	2
 802              		.global	u8g_font_GetSize
 803              		.thumb
 804              		.thumb_func
 806              	u8g_font_GetSize:
 807              	.LFB19:
 208:u8glib/u8g_font.c ****   uint8_t *p = (uint8_t *)(font);
 808              		.loc 1 208 0
 809              		.cfi_startproc
 810              		@ args = 0, pretend = 0, frame = 0
 811              		@ frame_needed = 0, uses_anonymous_args = 0
 812              	.LVL70:
 813 0000 F8B5     		push	{r3, r4, r5, r6, r7, lr}
 814              	.LCFI18:
 815              		.cfi_def_cfa_offset 24
 816              		.cfi_offset 3, -24
 817              		.cfi_offset 4, -20
 818              		.cfi_offset 5, -16
 819              		.cfi_offset 6, -12
 820              		.cfi_offset 7, -8
 821              		.cfi_offset 14, -4
 822 0002 0646     		mov	r6, r0
 823              	.LVL71:
 210:u8glib/u8g_font.c ****   uint8_t data_structure_size = u8g_font_GetFontGlyphStructureSize(font);
 824              		.loc 1 210 0
 825 0004 FFF7FEFF 		bl	u8g_font_GetFormat
 826              	.LVL72:
 827 0008 0746     		mov	r7, r0
 828              	.LVL73:
 211:u8glib/u8g_font.c ****   uint8_t start, end;
 829              		.loc 1 211 0
 830 000a 3046     		mov	r0, r6
 831 000c FFF7FEFF 		bl	u8g_font_GetFontGlyphStructureSize
 832              	.LVL74:
 833 0010 0546     		mov	r5, r0
 834              	.LVL75:
 216:u8glib/u8g_font.c ****   end = u8g_font_GetFontEndEncoding(font);
 835              		.loc 1 216 0
 836 0012 3046     		mov	r0, r6
 837 0014 FFF7FEFF 		bl	u8g_font_GetFontStartEncoding
 838              	.LVL76:
 839 0018 0446     		mov	r4, r0
 840              	.LVL77:
 217:u8glib/u8g_font.c **** 
 841              		.loc 1 217 0
 842 001a 3046     		mov	r0, r6
 843 001c FFF7FEFF 		bl	u8g_font_GetFontEndEncoding
 844              	.LVL78:
ARM GAS  C:\Users\master\AppData\Local\Temp\cc4icg2r.s 			page 35


 219:u8glib/u8g_font.c ****     mask = 15;
 845              		.loc 1 219 0
 846 0020 012F     		cmp	r7, #1
 847 0022 01D0     		beq	.L60
 214:u8glib/u8g_font.c ****   
 848              		.loc 1 214 0
 849 0024 FF21     		movs	r1, #255
 850 0026 00E0     		b	.L55
 851              	.L60:
 220:u8glib/u8g_font.c **** 
 852              		.loc 1 220 0
 853 0028 0F21     		movs	r1, #15
 854              	.L55:
 855              	.LVL79:
 222:u8glib/u8g_font.c **** 
 856              		.loc 1 222 0
 857 002a 06F11102 		add	r2, r6, #17
 858              	.LVL80:
 859              	.L59:
 227:u8glib/u8g_font.c ****     {
 860              		.loc 1 227 0
 861 002e 1378     		ldrb	r3, [r2]	@ zero_extendqisi2
 862 0030 FF2B     		cmp	r3, #255
 863 0032 01D1     		bne	.L56
 229:u8glib/u8g_font.c ****     }
 864              		.loc 1 229 0
 865 0034 0132     		adds	r2, r2, #1
 866              	.LVL81:
 867 0036 03E0     		b	.L57
 868              	.L56:
 233:u8glib/u8g_font.c ****       p += data_structure_size;
 869              		.loc 1 233 0
 870 0038 9378     		ldrb	r3, [r2, #2]	@ zero_extendqisi2
 871 003a 0B40     		ands	r3, r3, r1
 872              	.LVL82:
 234:u8glib/u8g_font.c ****     }
 873              		.loc 1 234 0
 874 003c 2B44     		add	r3, r3, r5
 875              	.LVL83:
 876 003e 1A44     		add	r2, r2, r3
 877              	.LVL84:
 878              	.L57:
 236:u8glib/u8g_font.c ****       break;
 879              		.loc 1 236 0
 880 0040 8442     		cmp	r4, r0
 881 0042 02D0     		beq	.L58
 238:u8glib/u8g_font.c ****   }
 882              		.loc 1 238 0
 883 0044 0134     		adds	r4, r4, #1
 884              	.LVL85:
 885 0046 E4B2     		uxtb	r4, r4
 886              	.LVL86:
 239:u8glib/u8g_font.c ****     
 887              		.loc 1 239 0
 888 0048 F1E7     		b	.L59
 889              	.L58:
 242:u8glib/u8g_font.c **** 
ARM GAS  C:\Users\master\AppData\Local\Temp\cc4icg2r.s 			page 36


 890              		.loc 1 242 0
 891 004a 901B     		subs	r0, r2, r6
 892              	.LVL87:
 893 004c F8BD     		pop	{r3, r4, r5, r6, r7, pc}
 894              		.cfi_endproc
 895              	.LFE19:
 897 004e 00BF     		.section	.text.u8g_GetFontBBXWidth,"ax",%progbits
 898              		.align	2
 899              		.global	u8g_GetFontBBXWidth
 900              		.thumb
 901              		.thumb_func
 903              	u8g_GetFontBBXWidth:
 904              	.LFB20:
 248:u8glib/u8g_font.c ****   return u8g_font_GetBBXWidth(u8g->font);
 905              		.loc 1 248 0
 906              		.cfi_startproc
 907              		@ args = 0, pretend = 0, frame = 0
 908              		@ frame_needed = 0, uses_anonymous_args = 0
 909              	.LVL88:
 910 0000 08B5     		push	{r3, lr}
 911              	.LCFI19:
 912              		.cfi_def_cfa_offset 8
 913              		.cfi_offset 3, -8
 914              		.cfi_offset 14, -4
 249:u8glib/u8g_font.c **** }
 915              		.loc 1 249 0
 916 0002 8068     		ldr	r0, [r0, #8]
 917              	.LVL89:
 918 0004 FFF7FEFF 		bl	u8g_font_GetBBXWidth
 919              	.LVL90:
 250:u8glib/u8g_font.c **** 
 920              		.loc 1 250 0
 921 0008 08BD     		pop	{r3, pc}
 922              		.cfi_endproc
 923              	.LFE20:
 925 000a 00BF     		.section	.text.u8g_GetFontBBXHeight,"ax",%progbits
 926              		.align	2
 927              		.global	u8g_GetFontBBXHeight
 928              		.thumb
 929              		.thumb_func
 931              	u8g_GetFontBBXHeight:
 932              	.LFB21:
 253:u8glib/u8g_font.c ****   return u8g_font_GetBBXHeight(u8g->font);
 933              		.loc 1 253 0
 934              		.cfi_startproc
 935              		@ args = 0, pretend = 0, frame = 0
 936              		@ frame_needed = 0, uses_anonymous_args = 0
 937              	.LVL91:
 938 0000 08B5     		push	{r3, lr}
 939              	.LCFI20:
 940              		.cfi_def_cfa_offset 8
 941              		.cfi_offset 3, -8
 942              		.cfi_offset 14, -4
 254:u8glib/u8g_font.c **** }
 943              		.loc 1 254 0
 944 0002 8068     		ldr	r0, [r0, #8]
 945              	.LVL92:
ARM GAS  C:\Users\master\AppData\Local\Temp\cc4icg2r.s 			page 37


 946 0004 FFF7FEFF 		bl	u8g_font_GetBBXHeight
 947              	.LVL93:
 255:u8glib/u8g_font.c **** 
 948              		.loc 1 255 0
 949 0008 08BD     		pop	{r3, pc}
 950              		.cfi_endproc
 951              	.LFE21:
 953 000a 00BF     		.section	.text.u8g_GetFontBBXOffX,"ax",%progbits
 954              		.align	2
 955              		.global	u8g_GetFontBBXOffX
 956              		.thumb
 957              		.thumb_func
 959              	u8g_GetFontBBXOffX:
 960              	.LFB22:
 259:u8glib/u8g_font.c ****   return u8g_font_GetBBXOffX(u8g->font);
 961              		.loc 1 259 0
 962              		.cfi_startproc
 963              		@ args = 0, pretend = 0, frame = 0
 964              		@ frame_needed = 0, uses_anonymous_args = 0
 965              	.LVL94:
 966 0000 08B5     		push	{r3, lr}
 967              	.LCFI21:
 968              		.cfi_def_cfa_offset 8
 969              		.cfi_offset 3, -8
 970              		.cfi_offset 14, -4
 260:u8glib/u8g_font.c **** }
 971              		.loc 1 260 0
 972 0002 8068     		ldr	r0, [r0, #8]
 973              	.LVL95:
 974 0004 FFF7FEFF 		bl	u8g_font_GetBBXOffX
 975              	.LVL96:
 261:u8glib/u8g_font.c **** 
 976              		.loc 1 261 0
 977 0008 08BD     		pop	{r3, pc}
 978              		.cfi_endproc
 979              	.LFE22:
 981 000a 00BF     		.section	.text.u8g_GetFontBBXOffY,"ax",%progbits
 982              		.align	2
 983              		.global	u8g_GetFontBBXOffY
 984              		.thumb
 985              		.thumb_func
 987              	u8g_GetFontBBXOffY:
 988              	.LFB23:
 265:u8glib/u8g_font.c ****   return u8g_font_GetBBXOffY(u8g->font);
 989              		.loc 1 265 0
 990              		.cfi_startproc
 991              		@ args = 0, pretend = 0, frame = 0
 992              		@ frame_needed = 0, uses_anonymous_args = 0
 993              	.LVL97:
 994 0000 08B5     		push	{r3, lr}
 995              	.LCFI22:
 996              		.cfi_def_cfa_offset 8
 997              		.cfi_offset 3, -8
 998              		.cfi_offset 14, -4
 266:u8glib/u8g_font.c **** }
 999              		.loc 1 266 0
 1000 0002 8068     		ldr	r0, [r0, #8]
ARM GAS  C:\Users\master\AppData\Local\Temp\cc4icg2r.s 			page 38


 1001              	.LVL98:
 1002 0004 FFF7FEFF 		bl	u8g_font_GetBBXOffY
 1003              	.LVL99:
 267:u8glib/u8g_font.c **** 
 1004              		.loc 1 267 0
 1005 0008 08BD     		pop	{r3, pc}
 1006              		.cfi_endproc
 1007              	.LFE23:
 1009 000a 00BF     		.section	.text.u8g_GetFontCapitalAHeight,"ax",%progbits
 1010              		.align	2
 1011              		.global	u8g_GetFontCapitalAHeight
 1012              		.thumb
 1013              		.thumb_func
 1015              	u8g_GetFontCapitalAHeight:
 1016              	.LFB24:
 271:u8glib/u8g_font.c ****   return u8g_font_GetCapitalAHeight(u8g->font);
 1017              		.loc 1 271 0
 1018              		.cfi_startproc
 1019              		@ args = 0, pretend = 0, frame = 0
 1020              		@ frame_needed = 0, uses_anonymous_args = 0
 1021              	.LVL100:
 1022 0000 08B5     		push	{r3, lr}
 1023              	.LCFI23:
 1024              		.cfi_def_cfa_offset 8
 1025              		.cfi_offset 3, -8
 1026              		.cfi_offset 14, -4
 272:u8glib/u8g_font.c **** }
 1027              		.loc 1 272 0
 1028 0002 8068     		ldr	r0, [r0, #8]
 1029              	.LVL101:
 1030 0004 FFF7FEFF 		bl	u8g_font_GetCapitalAHeight
 1031              	.LVL102:
 273:u8glib/u8g_font.c **** 
 1032              		.loc 1 273 0
 1033 0008 08BD     		pop	{r3, pc}
 1034              		.cfi_endproc
 1035              	.LFE24:
 1037 000a 00BF     		.section	.text.u8g_GetGlyph,"ax",%progbits
 1038              		.align	2
 1039              		.global	u8g_GetGlyph
 1040              		.thumb
 1041              		.thumb_func
 1043              	u8g_GetGlyph:
 1044              	.LFB27:
 351:u8glib/u8g_font.c ****   uint8_t *p = (uint8_t *)(u8g->font);
 1045              		.loc 1 351 0
 1046              		.cfi_startproc
 1047              		@ args = 0, pretend = 0, frame = 0
 1048              		@ frame_needed = 0, uses_anonymous_args = 0
 1049              	.LVL103:
 1050 0000 2DE9F047 		push	{r4, r5, r6, r7, r8, r9, r10, lr}
 1051              	.LCFI24:
 1052              		.cfi_def_cfa_offset 32
 1053              		.cfi_offset 4, -32
 1054              		.cfi_offset 5, -28
 1055              		.cfi_offset 6, -24
 1056              		.cfi_offset 7, -20
ARM GAS  C:\Users\master\AppData\Local\Temp\cc4icg2r.s 			page 39


 1057              		.cfi_offset 8, -16
 1058              		.cfi_offset 9, -12
 1059              		.cfi_offset 10, -8
 1060              		.cfi_offset 14, -4
 1061 0004 8246     		mov	r10, r0
 1062 0006 0F46     		mov	r7, r1
 352:u8glib/u8g_font.c ****   uint8_t font_format = u8g_font_GetFormat(u8g->font);
 1063              		.loc 1 352 0
 1064 0008 8568     		ldr	r5, [r0, #8]
 1065              	.LVL104:
 353:u8glib/u8g_font.c ****   uint8_t data_structure_size = u8g_font_GetFontGlyphStructureSize(u8g->font);
 1066              		.loc 1 353 0
 1067 000a 2846     		mov	r0, r5
 1068              	.LVL105:
 1069 000c FFF7FEFF 		bl	u8g_font_GetFormat
 1070              	.LVL106:
 1071 0010 0446     		mov	r4, r0
 1072              	.LVL107:
 354:u8glib/u8g_font.c ****   uint8_t start, end;
 1073              		.loc 1 354 0
 1074 0012 2846     		mov	r0, r5
 1075 0014 FFF7FEFF 		bl	u8g_font_GetFontGlyphStructureSize
 1076              	.LVL108:
 1077 0018 8046     		mov	r8, r0
 1078              	.LVL109:
 360:u8glib/u8g_font.c ****     mask = 15;
 1079              		.loc 1 360 0
 1080 001a 012C     		cmp	r4, #1
 1081 001c 02D0     		beq	.L84
 358:u8glib/u8g_font.c **** 
 1082              		.loc 1 358 0
 1083 001e 4FF0FF09 		mov	r9, #255
 1084 0022 01E0     		b	.L73
 1085              	.L84:
 361:u8glib/u8g_font.c ****   
 1086              		.loc 1 361 0
 1087 0024 4FF00F09 		mov	r9, #15
 1088              	.L73:
 1089              	.LVL110:
 363:u8glib/u8g_font.c ****   end = u8g_font_GetFontEndEncoding(u8g->font);
 1090              		.loc 1 363 0
 1091 0028 2846     		mov	r0, r5
 1092 002a FFF7FEFF 		bl	u8g_font_GetFontStartEncoding
 1093              	.LVL111:
 1094 002e 0446     		mov	r4, r0
 1095              	.LVL112:
 364:u8glib/u8g_font.c **** 
 1096              		.loc 1 364 0
 1097 0030 2846     		mov	r0, r5
 1098 0032 FFF7FEFF 		bl	u8g_font_GetFontEndEncoding
 1099              	.LVL113:
 1100 0036 0646     		mov	r6, r0
 1101              	.LVL114:
 366:u8glib/u8g_font.c ****   if ( requested_encoding >= 97 && pos > 0 )
 1102              		.loc 1 366 0
 1103 0038 2846     		mov	r0, r5
 1104 003a FFF7FEFF 		bl	u8g_font_GetEncoding97Pos
ARM GAS  C:\Users\master\AppData\Local\Temp\cc4icg2r.s 			page 40


 1105              	.LVL115:
 367:u8glib/u8g_font.c ****   {
 1106              		.loc 1 367 0
 1107 003e 602F     		cmp	r7, #96
 1108 0040 03D9     		bls	.L74
 367:u8glib/u8g_font.c ****   {
 1109              		.loc 1 367 0 is_stmt 0 discriminator 1
 1110 0042 10B1     		cbz	r0, .L74
 369:u8glib/u8g_font.c ****     start = 97;
 1111              		.loc 1 369 0 is_stmt 1
 1112 0044 0544     		add	r5, r5, r0
 1113              	.LVL116:
 370:u8glib/u8g_font.c ****   }
 1114              		.loc 1 370 0
 1115 0046 6124     		movs	r4, #97
 1116 0048 09E0     		b	.L75
 1117              	.LVL117:
 1118              	.L74:
 374:u8glib/u8g_font.c ****     if ( requested_encoding >= 65 && pos > 0 )
 1119              		.loc 1 374 0
 1120 004a 2846     		mov	r0, r5
 1121              	.LVL118:
 1122 004c FFF7FEFF 		bl	u8g_font_GetEncoding65Pos
 1123              	.LVL119:
 375:u8glib/u8g_font.c ****     {
 1124              		.loc 1 375 0
 1125 0050 402F     		cmp	r7, #64
 1126 0052 03D9     		bls	.L76
 375:u8glib/u8g_font.c ****     {
 1127              		.loc 1 375 0 is_stmt 0 discriminator 1
 1128 0054 10B1     		cbz	r0, .L76
 377:u8glib/u8g_font.c ****       start = 65;
 1129              		.loc 1 377 0 is_stmt 1
 1130 0056 0544     		add	r5, r5, r0
 1131              	.LVL120:
 378:u8glib/u8g_font.c ****     }
 1132              		.loc 1 378 0
 1133 0058 4124     		movs	r4, #65
 1134 005a 00E0     		b	.L75
 1135              	.LVL121:
 1136              	.L76:
 381:u8glib/u8g_font.c ****   }
 1137              		.loc 1 381 0
 1138 005c 1135     		adds	r5, r5, #17
 1139              	.LVL122:
 1140              	.L75:
 384:u8glib/u8g_font.c ****   {
 1141              		.loc 1 384 0
 1142 005e BE42     		cmp	r6, r7
 1143 0060 05D2     		bcs	.L77
 386:u8glib/u8g_font.c ****     return NULL;                      /* not found */
 1144              		.loc 1 386 0
 1145 0062 5046     		mov	r0, r10
 1146              	.LVL123:
 1147 0064 FFF7FEFF 		bl	u8g_FillEmptyGlyphCache
 1148              	.LVL124:
 387:u8glib/u8g_font.c ****   }
ARM GAS  C:\Users\master\AppData\Local\Temp\cc4icg2r.s 			page 41


 1149              		.loc 1 387 0
 1150 0068 0020     		movs	r0, #0
 1151 006a BDE8F087 		pop	{r4, r5, r6, r7, r8, r9, r10, pc}
 1152              	.LVL125:
 1153              	.L77:
 391:u8glib/u8g_font.c ****   {
 1154              		.loc 1 391 0
 1155 006e B442     		cmp	r4, r6
 1156 0070 17D8     		bhi	.L79
 1157              	.LVL126:
 1158              	.L83:
 395:u8glib/u8g_font.c ****       {
 1159              		.loc 1 395 0
 1160 0072 2B78     		ldrb	r3, [r5]	@ zero_extendqisi2
 1161 0074 FF2B     		cmp	r3, #255
 1162 0076 01D1     		bne	.L80
 397:u8glib/u8g_font.c ****       }
 1163              		.loc 1 397 0
 1164 0078 0135     		adds	r5, r5, #1
 1165              	.LVL127:
 1166 007a 0DE0     		b	.L81
 1167              	.L80:
 401:u8glib/u8g_font.c ****         {
 1168              		.loc 1 401 0
 1169 007c BC42     		cmp	r4, r7
 1170 007e 06D1     		bne	.L82
 403:u8glib/u8g_font.c ****           return p;
 1171              		.loc 1 403 0
 1172 0080 2946     		mov	r1, r5
 1173 0082 5046     		mov	r0, r10
 1174              	.LVL128:
 1175 0084 FFF7FEFF 		bl	u8g_CopyGlyphDataToCache
 1176              	.LVL129:
 404:u8glib/u8g_font.c ****         }
 1177              		.loc 1 404 0
 1178 0088 2846     		mov	r0, r5
 1179 008a BDE8F087 		pop	{r4, r5, r6, r7, r8, r9, r10, pc}
 1180              	.LVL130:
 1181              	.L82:
 406:u8glib/u8g_font.c ****         p += data_structure_size;
 1182              		.loc 1 406 0
 1183 008e AB78     		ldrb	r3, [r5, #2]	@ zero_extendqisi2
 1184 0090 09EA0303 		and	r3, r9, r3
 1185              	.LVL131:
 407:u8glib/u8g_font.c ****       }
 1186              		.loc 1 407 0
 1187 0094 4344     		add	r3, r3, r8
 1188              	.LVL132:
 1189 0096 1D44     		add	r5, r5, r3
 1190              	.LVL133:
 1191              	.L81:
 409:u8glib/u8g_font.c ****         break;
 1192              		.loc 1 409 0
 1193 0098 B442     		cmp	r4, r6
 1194 009a 02D0     		beq	.L79
 411:u8glib/u8g_font.c ****     }
 1195              		.loc 1 411 0
ARM GAS  C:\Users\master\AppData\Local\Temp\cc4icg2r.s 			page 42


 1196 009c 0134     		adds	r4, r4, #1
 1197              	.LVL134:
 1198 009e E4B2     		uxtb	r4, r4
 1199              	.LVL135:
 412:u8glib/u8g_font.c ****   }
 1200              		.loc 1 412 0
 1201 00a0 E7E7     		b	.L83
 1202              	.L79:
 415:u8glib/u8g_font.c ****     
 1203              		.loc 1 415 0
 1204 00a2 5046     		mov	r0, r10
 1205              	.LVL136:
 1206 00a4 FFF7FEFF 		bl	u8g_FillEmptyGlyphCache
 1207              	.LVL137:
 417:u8glib/u8g_font.c **** }
 1208              		.loc 1 417 0
 1209 00a8 0020     		movs	r0, #0
 418:u8glib/u8g_font.c **** 
 1210              		.loc 1 418 0
 1211 00aa BDE8F087 		pop	{r4, r5, r6, r7, r8, r9, r10, pc}
 1212              		.cfi_endproc
 1213              	.LFE27:
 1215 00ae 00BF     		.section	.text.u8g_font_calc_str_min_box,"ax",%progbits
 1216              		.align	2
 1217              		.thumb
 1218              		.thumb_func
 1220              	u8g_font_calc_str_min_box:
 1221              	.LFB71:
1115:u8glib/u8g_font.c **** 
1116:u8glib/u8g_font.c **** typedef char (*u8g_font_get_char_fn)(const void *s);
1117:u8glib/u8g_font.c **** 
1118:u8glib/u8g_font.c **** 
1119:u8glib/u8g_font.c **** u8g_uint_t u8g_font_calc_str_pixel_width(u8g_t *u8g, const char *s, u8g_font_get_char_fn get_char )
1120:u8glib/u8g_font.c **** {
1121:u8glib/u8g_font.c ****   u8g_uint_t  w;
1122:u8glib/u8g_font.c ****   uint8_t enc;
1123:u8glib/u8g_font.c ****   
1124:u8glib/u8g_font.c ****   /* reset the total minimal width to zero, this will be expanded during calculation */
1125:u8glib/u8g_font.c ****   w = 0;
1126:u8glib/u8g_font.c ****     
1127:u8glib/u8g_font.c ****   enc = get_char(s);
1128:u8glib/u8g_font.c ****   
1129:u8glib/u8g_font.c ****   /* check for empty string, width is already 0 */
1130:u8glib/u8g_font.c ****   if ( enc == '\0' )
1131:u8glib/u8g_font.c ****   {
1132:u8glib/u8g_font.c ****     return w;
1133:u8glib/u8g_font.c ****   }
1134:u8glib/u8g_font.c ****   
1135:u8glib/u8g_font.c ****   /* get the glyph information of the first char. This must be valid, because we already checked fo
1136:u8glib/u8g_font.c ****   /* if *s is not inside the font, then the cached parameters of the glyph are all zero */
1137:u8glib/u8g_font.c ****   u8g_GetGlyph(u8g, enc);
1138:u8glib/u8g_font.c **** 
1139:u8glib/u8g_font.c ****   /* strlen(s) == 1:       width = width(s[0]) */
1140:u8glib/u8g_font.c ****   /* strlen(s) == 2:       width = - offx(s[0]) + deltax(s[0]) + offx(s[1]) + width(s[1]) */
1141:u8glib/u8g_font.c ****   /* strlen(s) == 3:       width = - offx(s[0]) + deltax(s[0]) + deltax(s[1]) + offx(s[2]) + width(
1142:u8glib/u8g_font.c ****   
1143:u8glib/u8g_font.c ****   /* assume that the string has size 2 or more, than start with negative offset-x */
ARM GAS  C:\Users\master\AppData\Local\Temp\cc4icg2r.s 			page 43


1144:u8glib/u8g_font.c ****   /* for string with size 1, this will be nullified after the loop */
1145:u8glib/u8g_font.c ****   w = -u8g->glyph_x;  
1146:u8glib/u8g_font.c ****   for(;;)
1147:u8glib/u8g_font.c ****   {
1148:u8glib/u8g_font.c ****     
1149:u8glib/u8g_font.c ****     /* check and stop if the end of the string is reached */
1150:u8glib/u8g_font.c ****     s++;
1151:u8glib/u8g_font.c ****     if ( get_char(s) == '\0' )
1152:u8glib/u8g_font.c ****       break;
1153:u8glib/u8g_font.c ****     
1154:u8glib/u8g_font.c ****     /* if there are still more characters, add the delta to the next glyph */
1155:u8glib/u8g_font.c ****     w += u8g->glyph_dx;
1156:u8glib/u8g_font.c ****     
1157:u8glib/u8g_font.c ****     /* store the encoding in a local variable, used also after the for(;;) loop */
1158:u8glib/u8g_font.c ****     enc = get_char(s);
1159:u8glib/u8g_font.c ****     
1160:u8glib/u8g_font.c ****     /* load the next glyph information */
1161:u8glib/u8g_font.c ****     u8g_GetGlyph(u8g, enc);
1162:u8glib/u8g_font.c ****   }
1163:u8glib/u8g_font.c ****   
1164:u8glib/u8g_font.c ****   /* finally calculate the width of the last char */
1165:u8glib/u8g_font.c ****   /* here is another exception, if the last char is a black, use the dx value instead */
1166:u8glib/u8g_font.c ****   if ( enc != ' ' )
1167:u8glib/u8g_font.c ****   {
1168:u8glib/u8g_font.c ****     /* if g was not updated in the for loop (strlen() == 1), then the initial offset x gets removed
1169:u8glib/u8g_font.c ****     w += u8g->glyph_width;
1170:u8glib/u8g_font.c ****     w += u8g->glyph_x;
1171:u8glib/u8g_font.c ****   }
1172:u8glib/u8g_font.c ****   else
1173:u8glib/u8g_font.c ****   {
1174:u8glib/u8g_font.c ****     w += u8g->glyph_dx;
1175:u8glib/u8g_font.c ****   }
1176:u8glib/u8g_font.c ****   
1177:u8glib/u8g_font.c ****   
1178:u8glib/u8g_font.c ****   return w;
1179:u8glib/u8g_font.c **** }
1180:u8glib/u8g_font.c **** 
1181:u8glib/u8g_font.c **** u8g_uint_t u8g_GetStrPixelWidth(u8g_t *u8g, const char *s)
1182:u8glib/u8g_font.c **** {
1183:u8glib/u8g_font.c ****   return u8g_font_calc_str_pixel_width(u8g, s, u8g_font_get_char);
1184:u8glib/u8g_font.c **** }
1185:u8glib/u8g_font.c **** 
1186:u8glib/u8g_font.c **** u8g_uint_t u8g_GetStrPixelWidthP(u8g_t *u8g, const u8g_pgm_uint8_t *s)
1187:u8glib/u8g_font.c **** {
1188:u8glib/u8g_font.c ****   return u8g_font_calc_str_pixel_width(u8g, (const char *)s, u8g_font_get_charP);
1189:u8glib/u8g_font.c **** }
1190:u8glib/u8g_font.c **** 
1191:u8glib/u8g_font.c **** int8_t u8g_GetStrX(u8g_t *u8g, const char *s)
1192:u8glib/u8g_font.c **** {
1193:u8glib/u8g_font.c ****   u8g_GetGlyph(u8g, *s);
1194:u8glib/u8g_font.c ****   return u8g->glyph_x;  
1195:u8glib/u8g_font.c **** }
1196:u8glib/u8g_font.c **** 
1197:u8glib/u8g_font.c **** int8_t u8g_GetStrXP(u8g_t *u8g, const u8g_pgm_uint8_t *s)
1198:u8glib/u8g_font.c **** {
1199:u8glib/u8g_font.c ****   u8g_GetGlyph(u8g, u8g_pgm_read(s));
1200:u8glib/u8g_font.c ****   return u8g->glyph_x;  
ARM GAS  C:\Users\master\AppData\Local\Temp\cc4icg2r.s 			page 44


1201:u8glib/u8g_font.c **** }
1202:u8glib/u8g_font.c **** 
1203:u8glib/u8g_font.c **** /*========================================================================*/
1204:u8glib/u8g_font.c **** /* string width calculation */
1205:u8glib/u8g_font.c **** 
1206:u8glib/u8g_font.c **** u8g_uint_t u8g_GetStrWidth(u8g_t *u8g, const char *s)
1207:u8glib/u8g_font.c **** {
1208:u8glib/u8g_font.c ****   u8g_uint_t  w;
1209:u8glib/u8g_font.c ****   uint8_t encoding;
1210:u8glib/u8g_font.c ****   
1211:u8glib/u8g_font.c ****   /* reset the total width to zero, this will be expanded during calculation */
1212:u8glib/u8g_font.c ****   w = 0;
1213:u8glib/u8g_font.c ****   
1214:u8glib/u8g_font.c ****   for(;;)
1215:u8glib/u8g_font.c ****   {
1216:u8glib/u8g_font.c ****     encoding = *s;
1217:u8glib/u8g_font.c ****     if ( encoding == 0 )
1218:u8glib/u8g_font.c ****       break;
1219:u8glib/u8g_font.c **** 
1220:u8glib/u8g_font.c ****     /* load glyph information */
1221:u8glib/u8g_font.c ****     u8g_GetGlyph(u8g, encoding);
1222:u8glib/u8g_font.c ****     w += u8g->glyph_dx;    
1223:u8glib/u8g_font.c ****     
1224:u8glib/u8g_font.c ****     /* goto next char */
1225:u8glib/u8g_font.c ****     s++;
1226:u8glib/u8g_font.c ****   }
1227:u8glib/u8g_font.c ****   
1228:u8glib/u8g_font.c ****   return w;  
1229:u8glib/u8g_font.c **** }
1230:u8glib/u8g_font.c **** 
1231:u8glib/u8g_font.c **** 
1232:u8glib/u8g_font.c **** u8g_uint_t u8g_GetStrWidthP(u8g_t *u8g, const u8g_pgm_uint8_t *s)
1233:u8glib/u8g_font.c **** {
1234:u8glib/u8g_font.c ****   u8g_uint_t  w;
1235:u8glib/u8g_font.c ****   uint8_t encoding;
1236:u8glib/u8g_font.c ****   
1237:u8glib/u8g_font.c ****   /* reset the total width to zero, this will be expanded during calculation */
1238:u8glib/u8g_font.c ****   w = 0;
1239:u8glib/u8g_font.c ****   
1240:u8glib/u8g_font.c ****   for(;;)
1241:u8glib/u8g_font.c ****   {
1242:u8glib/u8g_font.c ****     encoding = u8g_pgm_read(s);
1243:u8glib/u8g_font.c ****     if ( encoding == 0 )
1244:u8glib/u8g_font.c ****       break;
1245:u8glib/u8g_font.c **** 
1246:u8glib/u8g_font.c ****     /* load glyph information */
1247:u8glib/u8g_font.c ****     u8g_GetGlyph(u8g, encoding);
1248:u8glib/u8g_font.c ****     w += u8g->glyph_dx;    
1249:u8glib/u8g_font.c ****     
1250:u8glib/u8g_font.c ****     /* goto next char */
1251:u8glib/u8g_font.c ****     s++;
1252:u8glib/u8g_font.c ****   }
1253:u8glib/u8g_font.c ****   
1254:u8glib/u8g_font.c ****   return w;  
1255:u8glib/u8g_font.c **** }
1256:u8glib/u8g_font.c **** 
1257:u8glib/u8g_font.c **** 
ARM GAS  C:\Users\master\AppData\Local\Temp\cc4icg2r.s 			page 45


1258:u8glib/u8g_font.c **** /*========================================================================*/
1259:u8glib/u8g_font.c **** /* calculation of font/glyph/string characteristics */
1260:u8glib/u8g_font.c **** 
1261:u8glib/u8g_font.c **** 
1262:u8glib/u8g_font.c **** /*
1263:u8glib/u8g_font.c ****   Description:
1264:u8glib/u8g_font.c ****     Calculate parameter for the minimal bounding box on a given string
1265:u8glib/u8g_font.c ****   Output
1266:u8glib/u8g_font.c ****     buf->y_min          extend of the lower left edge if the string below (y_min<0) or above (y_min
1267:u8glib/u8g_font.c ****     buf->y_max          extend of the upper left edge if the string below (y_min<0) or above (y_min
1268:u8glib/u8g_font.c ****     buf->w                 the width of the string
1269:u8glib/u8g_font.c **** */
1270:u8glib/u8g_font.c **** struct u8g_str_size_struct
1271:u8glib/u8g_font.c **** {
1272:u8glib/u8g_font.c ****   int8_t y_min;         /* descent */
1273:u8glib/u8g_font.c ****   int8_t y_max;         /* ascent */
1274:u8glib/u8g_font.c ****   int8_t x, y;             /* the reference point of the font (negated!) */
1275:u8glib/u8g_font.c ****   u8g_uint_t w;         /* width of the overall string */
1276:u8glib/u8g_font.c **** };
1277:u8glib/u8g_font.c **** typedef struct u8g_str_size_struct u8g_str_size_t;
1278:u8glib/u8g_font.c **** 
1279:u8glib/u8g_font.c **** static void u8g_font_calc_str_min_box(u8g_t *u8g, const char *s, u8g_str_size_t *buf)
1280:u8glib/u8g_font.c **** {
 1222              		.loc 1 1280 0
 1223              		.cfi_startproc
 1224              		@ args = 0, pretend = 0, frame = 0
 1225              		@ frame_needed = 0, uses_anonymous_args = 0
 1226              	.LVL138:
 1227 0000 70B5     		push	{r4, r5, r6, lr}
 1228              	.LCFI25:
 1229              		.cfi_def_cfa_offset 16
 1230              		.cfi_offset 4, -16
 1231              		.cfi_offset 5, -12
 1232              		.cfi_offset 6, -8
 1233              		.cfi_offset 14, -4
 1234 0002 1446     		mov	r4, r2
1281:u8glib/u8g_font.c ****   /* u8g_glyph_t g; */
1282:u8glib/u8g_font.c ****   int8_t tmp;
1283:u8glib/u8g_font.c ****   
1284:u8glib/u8g_font.c ****   /* reset the total minimal width to zero, this will be expanded during calculation */
1285:u8glib/u8g_font.c ****   buf->w = 0;
 1235              		.loc 1 1285 0
 1236 0004 0023     		movs	r3, #0
 1237 0006 1371     		strb	r3, [r2, #4]
1286:u8glib/u8g_font.c ****     
1287:u8glib/u8g_font.c ****   /* check for empty string, width is already 0, but also reset y_min and y_max to 0 */
1288:u8glib/u8g_font.c ****   if ( *s == '\0' )
 1238              		.loc 1 1288 0
 1239 0008 0B78     		ldrb	r3, [r1]	@ zero_extendqisi2
 1240 000a 23B9     		cbnz	r3, .L87
1289:u8glib/u8g_font.c ****   {
1290:u8glib/u8g_font.c ****     buf->y_min = 0;
 1241              		.loc 1 1290 0
 1242 000c 1370     		strb	r3, [r2]
1291:u8glib/u8g_font.c ****     buf->y_max = 0;
 1243              		.loc 1 1291 0
 1244 000e 5370     		strb	r3, [r2, #1]
ARM GAS  C:\Users\master\AppData\Local\Temp\cc4icg2r.s 			page 46


1292:u8glib/u8g_font.c ****     buf->x = 0;
 1245              		.loc 1 1292 0
 1246 0010 9370     		strb	r3, [r2, #2]
1293:u8glib/u8g_font.c ****     buf->y = 0;
 1247              		.loc 1 1293 0
 1248 0012 D370     		strb	r3, [r2, #3]
1294:u8glib/u8g_font.c ****     return;
 1249              		.loc 1 1294 0
 1250 0014 70BD     		pop	{r4, r5, r6, pc}
 1251              	.L87:
 1252 0016 0546     		mov	r5, r0
 1253 0018 0E46     		mov	r6, r1
1295:u8glib/u8g_font.c ****   }
1296:u8glib/u8g_font.c ****   
1297:u8glib/u8g_font.c ****   /* reset y_min to the largest possible value. Later we search for the smallest value */
1298:u8glib/u8g_font.c ****   /* y_min contains the position [pixel] of the lower left edge of the glyph above (y_min>0) or bel
1299:u8glib/u8g_font.c ****   buf->y_min = 127;
 1254              		.loc 1 1299 0
 1255 001a 7F23     		movs	r3, #127
 1256 001c 1370     		strb	r3, [r2]
1300:u8glib/u8g_font.c ****   /* reset y_max to the smallest possible value. Later we search for the highest value */
1301:u8glib/u8g_font.c ****   /* y_max contains the position [pixel] of the upper left edge of the glyph above (y_max>0) or bel
1302:u8glib/u8g_font.c ****   buf->y_max = -128;
 1257              		.loc 1 1302 0
 1258 001e 8023     		movs	r3, #128
 1259 0020 5370     		strb	r3, [r2, #1]
1303:u8glib/u8g_font.c **** 
1304:u8glib/u8g_font.c ****   /* get the glyph information of the first char. This must be valid, because we already checked fo
1305:u8glib/u8g_font.c ****   u8g_GetGlyph(u8g, *s);
 1260              		.loc 1 1305 0
 1261 0022 0978     		ldrb	r1, [r1]	@ zero_extendqisi2
 1262              	.LVL139:
 1263 0024 FFF7FEFF 		bl	u8g_GetGlyph
 1264              	.LVL140:
1306:u8glib/u8g_font.c **** 
1307:u8glib/u8g_font.c ****   /* strlen(s) == 1:       width = width(s[0]) */
1308:u8glib/u8g_font.c ****   /* strlen(s) == 2:       width = - offx(s[0]) + deltax(s[0]) + offx(s[1]) + width(s[1]) */
1309:u8glib/u8g_font.c ****   /* strlen(s) == 3:       width = - offx(s[0]) + deltax(s[0]) + deltax(s[1]) + offx(s[2]) + width(
1310:u8glib/u8g_font.c ****   
1311:u8glib/u8g_font.c ****   /* assume that the string has size 2 or more, than start with negative offset-x */
1312:u8glib/u8g_font.c ****   /* for string with size 1, this will be nullified after the loop */
1313:u8glib/u8g_font.c ****   // buf->w = - u8g_font_GetGlyphBBXOffX(u8g->font, g);
1314:u8glib/u8g_font.c ****   buf->w = - u8g->glyph_x;
 1265              		.loc 1 1314 0
 1266 0028 95F91D30 		ldrsb	r3, [r5, #29]
 1267 002c 5B42     		negs	r3, r3
 1268 002e 2371     		strb	r3, [r4, #4]
1315:u8glib/u8g_font.c ****   
1316:u8glib/u8g_font.c ****   /* Also copy the position of the first glyph. This is the reference point of the string (negated)
1317:u8glib/u8g_font.c ****   buf->x = u8g->glyph_x;
 1269              		.loc 1 1317 0
 1270 0030 95F91D30 		ldrsb	r3, [r5, #29]
 1271 0034 A370     		strb	r3, [r4, #2]
1318:u8glib/u8g_font.c ****   buf->y = u8g->glyph_y;
 1272              		.loc 1 1318 0
 1273 0036 95F91E30 		ldrsb	r3, [r5, #30]
 1274 003a E370     		strb	r3, [r4, #3]
ARM GAS  C:\Users\master\AppData\Local\Temp\cc4icg2r.s 			page 47


 1275              	.LVL141:
 1276              	.L92:
1319:u8glib/u8g_font.c ****   
1320:u8glib/u8g_font.c ****   for(;;)
1321:u8glib/u8g_font.c ****   {
1322:u8glib/u8g_font.c ****     
1323:u8glib/u8g_font.c ****     /* calculated y position of the upper left corner (y_max) and lower left corner (y_min) of the 
1324:u8glib/u8g_font.c ****     /* relative to the base line */
1325:u8glib/u8g_font.c ****     
1326:u8glib/u8g_font.c ****     tmp = u8g->glyph_y;
 1277              		.loc 1 1326 0
 1278 003c 95F91E30 		ldrsb	r3, [r5, #30]
 1279              	.LVL142:
1327:u8glib/u8g_font.c ****     if ( buf->y_min > tmp )
 1280              		.loc 1 1327 0
 1281 0040 94F90020 		ldrsb	r2, [r4]
 1282 0044 9342     		cmp	r3, r2
 1283 0046 00DA     		bge	.L89
1328:u8glib/u8g_font.c ****       buf->y_min = tmp;
 1284              		.loc 1 1328 0
 1285 0048 2370     		strb	r3, [r4]
 1286              	.L89:
1329:u8glib/u8g_font.c ****     
1330:u8glib/u8g_font.c ****     tmp +=u8g->glyph_height;
 1287              		.loc 1 1330 0
 1288 004a 95F82020 		ldrb	r2, [r5, #32]	@ zero_extendqisi2
 1289 004e 1344     		add	r3, r3, r2
 1290              	.LVL143:
 1291 0050 5BB2     		sxtb	r3, r3
 1292              	.LVL144:
1331:u8glib/u8g_font.c ****     if ( buf->y_max < tmp )
 1293              		.loc 1 1331 0
 1294 0052 94F90120 		ldrsb	r2, [r4, #1]
 1295 0056 9342     		cmp	r3, r2
 1296 0058 00DD     		ble	.L90
1332:u8glib/u8g_font.c ****       buf->y_max = tmp;
 1297              		.loc 1 1332 0
 1298 005a 6370     		strb	r3, [r4, #1]
 1299              	.L90:
1333:u8glib/u8g_font.c ****     
1334:u8glib/u8g_font.c ****     /* check and stop if the end of the string is reached */
1335:u8glib/u8g_font.c ****     s++;
1336:u8glib/u8g_font.c ****     if ( *s == '\0' )
 1300              		.loc 1 1336 0
 1301 005c 16F8013F 		ldrb	r3, [r6, #1]!	@ zero_extendqisi2
 1302              	.LVL145:
 1303 0060 4BB1     		cbz	r3, .L91
1337:u8glib/u8g_font.c ****       break;
1338:u8glib/u8g_font.c ****     
1339:u8glib/u8g_font.c ****     /* if there are still more characters, add the delta to the next glyph */
1340:u8glib/u8g_font.c ****     buf->w += u8g->glyph_dx;
 1304              		.loc 1 1340 0
 1305 0062 95F91C30 		ldrsb	r3, [r5, #28]
 1306 0066 2279     		ldrb	r2, [r4, #4]	@ zero_extendqisi2
 1307 0068 1344     		add	r3, r3, r2
 1308 006a 2371     		strb	r3, [r4, #4]
1341:u8glib/u8g_font.c ****     
ARM GAS  C:\Users\master\AppData\Local\Temp\cc4icg2r.s 			page 48


1342:u8glib/u8g_font.c ****     /* load the next glyph information */
1343:u8glib/u8g_font.c ****     u8g_GetGlyph(u8g, *s);
 1309              		.loc 1 1343 0
 1310 006c 3178     		ldrb	r1, [r6]	@ zero_extendqisi2
 1311 006e 2846     		mov	r0, r5
 1312 0070 FFF7FEFF 		bl	u8g_GetGlyph
 1313              	.LVL146:
1344:u8glib/u8g_font.c ****   }
 1314              		.loc 1 1344 0
 1315 0074 E2E7     		b	.L92
 1316              	.L91:
1345:u8glib/u8g_font.c ****   
1346:u8glib/u8g_font.c ****   /* finally calculate the width of the last char */
1347:u8glib/u8g_font.c ****   /* if g was not updated in the for loop (strlen() == 1), then the initial offset x gets removed *
1348:u8glib/u8g_font.c ****   buf->w += u8g->glyph_width;
 1317              		.loc 1 1348 0
 1318 0076 EA7F     		ldrb	r2, [r5, #31]	@ zero_extendqisi2
 1319 0078 2379     		ldrb	r3, [r4, #4]	@ zero_extendqisi2
 1320 007a 1344     		add	r3, r3, r2
 1321 007c DBB2     		uxtb	r3, r3
 1322 007e 2371     		strb	r3, [r4, #4]
1349:u8glib/u8g_font.c ****   // buf->w += u8g_font_GetGlyphBBXOffX(u8g->font, g);
1350:u8glib/u8g_font.c ****   
1351:u8glib/u8g_font.c ****   buf->w += u8g->glyph_x;
 1323              		.loc 1 1351 0
 1324 0080 95F91D20 		ldrsb	r2, [r5, #29]
 1325 0084 1344     		add	r3, r3, r2
 1326 0086 2371     		strb	r3, [r4, #4]
 1327 0088 70BD     		pop	{r4, r5, r6, pc}
 1328              		.cfi_endproc
 1329              	.LFE71:
 1331 008a 00BF     		.section	.text.u8g_font_get_str_box_fill_args,"ax",%progbits
 1332              		.align	2
 1333              		.thumb
 1334              		.thumb_func
 1336              	u8g_font_get_str_box_fill_args:
 1337              	.LFB75:
1352:u8glib/u8g_font.c **** }
1353:u8glib/u8g_font.c **** 
1354:u8glib/u8g_font.c **** /* calculate minimal box */
1355:u8glib/u8g_font.c **** void u8g_font_box_min(u8g_t *u8g, const char *s, u8g_str_size_t *buf)
1356:u8glib/u8g_font.c **** {
1357:u8glib/u8g_font.c ****   u8g_font_calc_str_min_box(u8g, s, buf);
1358:u8glib/u8g_font.c **** }
1359:u8glib/u8g_font.c **** 
1360:u8glib/u8g_font.c **** /* calculate gA box, but do not calculate the overall width */
1361:u8glib/u8g_font.c **** void u8g_font_box_left_gA(u8g_t *u8g, const char *s, u8g_str_size_t *buf)
1362:u8glib/u8g_font.c **** {
1363:u8glib/u8g_font.c ****   
1364:u8glib/u8g_font.c **** }
1365:u8glib/u8g_font.c **** 
1366:u8glib/u8g_font.c **** /* calculate gA box, including overall width */
1367:u8glib/u8g_font.c **** void u8g_font_box_all_gA(u8g_t *u8g, const char *s, u8g_str_size_t *buf)
1368:u8glib/u8g_font.c **** {
1369:u8glib/u8g_font.c ****   
1370:u8glib/u8g_font.c **** }
1371:u8glib/u8g_font.c **** 
ARM GAS  C:\Users\master\AppData\Local\Temp\cc4icg2r.s 			page 49


1372:u8glib/u8g_font.c **** 
1373:u8glib/u8g_font.c **** static void u8g_font_get_str_box_fill_args(u8g_t *u8g, const char *s, u8g_str_size_t *buf, u8g_uint
1374:u8glib/u8g_font.c **** {
 1338              		.loc 1 1374 0
 1339              		.cfi_startproc
 1340              		@ args = 12, pretend = 0, frame = 0
 1341              		@ frame_needed = 0, uses_anonymous_args = 0
 1342              	.LVL147:
 1343 0000 2DE9F041 		push	{r4, r5, r6, r7, r8, lr}
 1344              	.LCFI26:
 1345              		.cfi_def_cfa_offset 24
 1346              		.cfi_offset 4, -24
 1347              		.cfi_offset 5, -20
 1348              		.cfi_offset 6, -16
 1349              		.cfi_offset 7, -12
 1350              		.cfi_offset 8, -8
 1351              		.cfi_offset 14, -4
 1352 0004 8046     		mov	r8, r0
 1353 0006 1446     		mov	r4, r2
 1354 0008 1F46     		mov	r7, r3
 1355 000a 069E     		ldr	r6, [sp, #24]
 1356 000c 089D     		ldr	r5, [sp, #32]
1375:u8glib/u8g_font.c ****   /*
1376:u8glib/u8g_font.c ****   u8g_glyph_t g;
1377:u8glib/u8g_font.c ****   g =
1378:u8glib/u8g_font.c ****   */  
1379:u8glib/u8g_font.c ****   u8g_GetGlyph(u8g, *s);
 1357              		.loc 1 1379 0
 1358 000e 0978     		ldrb	r1, [r1]	@ zero_extendqisi2
 1359              	.LVL148:
 1360 0010 FFF7FEFF 		bl	u8g_GetGlyph
 1361              	.LVL149:
1380:u8glib/u8g_font.c ****   *x += u8g->glyph_x;
 1362              		.loc 1 1380 0
 1363 0014 98F91D30 		ldrsb	r3, [r8, #29]
 1364 0018 3A78     		ldrb	r2, [r7]	@ zero_extendqisi2
 1365 001a 1344     		add	r3, r3, r2
 1366 001c 3B70     		strb	r3, [r7]
1381:u8glib/u8g_font.c ****   *width = buf->w;
 1367              		.loc 1 1381 0
 1368 001e 2279     		ldrb	r2, [r4, #4]	@ zero_extendqisi2
 1369 0020 079B     		ldr	r3, [sp, #28]
 1370 0022 1A70     		strb	r2, [r3]
1382:u8glib/u8g_font.c ****   *y -= buf->y_max;
 1371              		.loc 1 1382 0
 1372 0024 94F90120 		ldrsb	r2, [r4, #1]
 1373 0028 3378     		ldrb	r3, [r6]	@ zero_extendqisi2
 1374 002a 9B1A     		subs	r3, r3, r2
 1375 002c 3370     		strb	r3, [r6]
1383:u8glib/u8g_font.c ****   /* +1 because y_max is a height, this compensates the next step */
1384:u8glib/u8g_font.c ****   //*y += 1;                      
1385:u8glib/u8g_font.c ****   /* because the reference point is one below the string, this compensates the previous step */
1386:u8glib/u8g_font.c ****   //*y -= 1;
1387:u8glib/u8g_font.c ****   *height = buf->y_max;
 1376              		.loc 1 1387 0
 1377 002e 6378     		ldrb	r3, [r4, #1]	@ zero_extendqisi2
 1378 0030 2B70     		strb	r3, [r5]
ARM GAS  C:\Users\master\AppData\Local\Temp\cc4icg2r.s 			page 50


1388:u8glib/u8g_font.c ****   *height -= buf->y_min;
 1379              		.loc 1 1388 0
 1380 0032 94F90020 		ldrsb	r2, [r4]
 1381 0036 9B1A     		subs	r3, r3, r2
 1382 0038 2B70     		strb	r3, [r5]
 1383 003a BDE8F081 		pop	{r4, r5, r6, r7, r8, pc}
 1384              		.cfi_endproc
 1385              	.LFE75:
 1387 003e 00BF     		.section	.text.u8g_IsGlyph,"ax",%progbits
 1388              		.align	2
 1389              		.global	u8g_IsGlyph
 1390              		.thumb
 1391              		.thumb_func
 1393              	u8g_IsGlyph:
 1394              	.LFB28:
 421:u8glib/u8g_font.c ****   if ( u8g_GetGlyph(u8g, requested_encoding) != NULL )
 1395              		.loc 1 421 0
 1396              		.cfi_startproc
 1397              		@ args = 0, pretend = 0, frame = 0
 1398              		@ frame_needed = 0, uses_anonymous_args = 0
 1399              	.LVL150:
 1400 0000 08B5     		push	{r3, lr}
 1401              	.LCFI27:
 1402              		.cfi_def_cfa_offset 8
 1403              		.cfi_offset 3, -8
 1404              		.cfi_offset 14, -4
 422:u8glib/u8g_font.c ****     return 1;
 1405              		.loc 1 422 0
 1406 0002 FFF7FEFF 		bl	u8g_GetGlyph
 1407              	.LVL151:
 1408 0006 08B1     		cbz	r0, .L98
 423:u8glib/u8g_font.c ****   return 0;
 1409              		.loc 1 423 0
 1410 0008 0120     		movs	r0, #1
 1411 000a 08BD     		pop	{r3, pc}
 1412              	.L98:
 424:u8glib/u8g_font.c **** }
 1413              		.loc 1 424 0
 1414 000c 0020     		movs	r0, #0
 425:u8glib/u8g_font.c **** 
 1415              		.loc 1 425 0
 1416 000e 08BD     		pop	{r3, pc}
 1417              		.cfi_endproc
 1418              	.LFE28:
 1420              		.section	.text.u8g_GetGlyphDeltaX,"ax",%progbits
 1421              		.align	2
 1422              		.global	u8g_GetGlyphDeltaX
 1423              		.thumb
 1424              		.thumb_func
 1426              	u8g_GetGlyphDeltaX:
 1427              	.LFB29:
 428:u8glib/u8g_font.c ****   if ( u8g_GetGlyph(u8g, requested_encoding) == NULL )
 1428              		.loc 1 428 0
 1429              		.cfi_startproc
 1430              		@ args = 0, pretend = 0, frame = 0
 1431              		@ frame_needed = 0, uses_anonymous_args = 0
 1432              	.LVL152:
ARM GAS  C:\Users\master\AppData\Local\Temp\cc4icg2r.s 			page 51


 1433 0000 10B5     		push	{r4, lr}
 1434              	.LCFI28:
 1435              		.cfi_def_cfa_offset 8
 1436              		.cfi_offset 4, -8
 1437              		.cfi_offset 14, -4
 1438 0002 0446     		mov	r4, r0
 429:u8glib/u8g_font.c ****     return 0;  /* should never happen, so return something */
 1439              		.loc 1 429 0
 1440 0004 FFF7FEFF 		bl	u8g_GetGlyph
 1441              	.LVL153:
 1442 0008 10B1     		cbz	r0, .L102
 431:u8glib/u8g_font.c **** }
 1443              		.loc 1 431 0
 1444 000a 94F91C00 		ldrsb	r0, [r4, #28]
 1445 000e 10BD     		pop	{r4, pc}
 1446              	.LVL154:
 1447              	.L102:
 430:u8glib/u8g_font.c ****   return u8g->glyph_dx;
 1448              		.loc 1 430 0
 1449 0010 0020     		movs	r0, #0
 432:u8glib/u8g_font.c **** 
 1450              		.loc 1 432 0
 1451 0012 10BD     		pop	{r4, pc}
 1452              		.cfi_endproc
 1453              	.LFE29:
 1455              		.section	.text.u8g_draw_glyph,"ax",%progbits
 1456              		.align	2
 1457              		.global	u8g_draw_glyph
 1458              		.thumb
 1459              		.thumb_func
 1461              	u8g_draw_glyph:
 1462              	.LFB30:
 565:u8glib/u8g_font.c ****   const u8g_pgm_uint8_t *data;
 1463              		.loc 1 565 0
 1464              		.cfi_startproc
 1465              		@ args = 0, pretend = 0, frame = 8
 1466              		@ frame_needed = 0, uses_anonymous_args = 0
 1467              	.LVL155:
 1468 0000 2DE9F04F 		push	{r4, r5, r6, r7, r8, r9, r10, fp, lr}
 1469              	.LCFI29:
 1470              		.cfi_def_cfa_offset 36
 1471              		.cfi_offset 4, -36
 1472              		.cfi_offset 5, -32
 1473              		.cfi_offset 6, -28
 1474              		.cfi_offset 7, -24
 1475              		.cfi_offset 8, -20
 1476              		.cfi_offset 9, -16
 1477              		.cfi_offset 10, -12
 1478              		.cfi_offset 11, -8
 1479              		.cfi_offset 14, -4
 1480 0004 85B0     		sub	sp, sp, #20
 1481              	.LCFI30:
 1482              		.cfi_def_cfa_offset 56
 1483 0006 8146     		mov	r9, r0
 1484 0008 0F46     		mov	r7, r1
 1485 000a 1446     		mov	r4, r2
 1486              	.LBB2:
ARM GAS  C:\Users\master\AppData\Local\Temp\cc4icg2r.s 			page 52


 572:u8glib/u8g_font.c ****     if ( g == NULL  )
 1487              		.loc 1 572 0
 1488 000c 1946     		mov	r1, r3
 1489              	.LVL156:
 1490 000e FFF7FEFF 		bl	u8g_GetGlyph
 1491              	.LVL157:
 573:u8glib/u8g_font.c ****       return 0;
 1492              		.loc 1 573 0
 1493 0012 0028     		cmp	r0, #0
 1494 0014 47D0     		beq	.L110
 1495 0016 0146     		mov	r1, r0
 575:u8glib/u8g_font.c ****   }
 1496              		.loc 1 575 0
 1497 0018 D9F80800 		ldr	r0, [r9, #8]
 1498              	.LVL158:
 1499 001c FFF7FEFF 		bl	u8g_font_GetGlyphDataStart
 1500              	.LVL159:
 1501 0020 0646     		mov	r6, r0
 1502              	.LVL160:
 1503              	.LBE2:
 578:u8glib/u8g_font.c ****   h = u8g->glyph_height;
 1504              		.loc 1 578 0
 1505 0022 99F81F50 		ldrb	r5, [r9, #31]	@ zero_extendqisi2
 1506              	.LVL161:
 579:u8glib/u8g_font.c ****   
 1507              		.loc 1 579 0
 1508 0026 99F820B0 		ldrb	fp, [r9, #32]	@ zero_extendqisi2
 1509              	.LVL162:
 581:u8glib/u8g_font.c ****   y -= u8g->glyph_y;
 1510              		.loc 1 581 0
 1511 002a 99F91D30 		ldrsb	r3, [r9, #29]
 1512 002e 3B44     		add	r3, r3, r7
 1513 0030 DBB2     		uxtb	r3, r3
 1514 0032 1946     		mov	r1, r3
 1515 0034 0393     		str	r3, [sp, #12]
 1516              	.LVL163:
 582:u8glib/u8g_font.c ****   y--;
 1517              		.loc 1 582 0
 1518 0036 99F91E70 		ldrsb	r7, [r9, #30]
 1519 003a E71B     		subs	r7, r4, r7
 1520 003c FFB2     		uxtb	r7, r7
 1521              	.LVL164:
 583:u8glib/u8g_font.c ****   
 1522              		.loc 1 583 0
 1523 003e 013F     		subs	r7, r7, #1
 1524              	.LVL165:
 1525 0040 FFB2     		uxtb	r7, r7
 1526              	.LVL166:
 585:u8glib/u8g_font.c ****     return u8g->glyph_dx;
 1527              		.loc 1 585 0
 1528 0042 CBEB0707 		rsb	r7, fp, r7
 1529              	.LVL167:
 1530 0046 0137     		adds	r7, r7, #1
 1531 0048 FFB2     		uxtb	r7, r7
 1532 004a CDF800B0 		str	fp, [sp]
 1533              	.LVL168:
 1534 004e 2B46     		mov	r3, r5
ARM GAS  C:\Users\master\AppData\Local\Temp\cc4icg2r.s 			page 53


 1535 0050 3A46     		mov	r2, r7
 1536 0052 4846     		mov	r0, r9
 1537              	.LVL169:
 1538 0054 FFF7FEFF 		bl	u8g_IsBBXIntersection
 1539              	.LVL170:
 1540 0058 10B9     		cbnz	r0, .L106
 586:u8glib/u8g_font.c **** 
 1541              		.loc 1 586 0
 1542 005a 99F91C00 		ldrsb	r0, [r9, #28]
 1543 005e 23E0     		b	.L105
 1544              	.L106:
 589:u8glib/u8g_font.c ****   w /= 8;
 1545              		.loc 1 589 0
 1546 0060 0735     		adds	r5, r5, #7
 1547              	.LVL171:
 590:u8glib/u8g_font.c ****   
 1548              		.loc 1 590 0
 1549 0062 C5F3C408 		ubfx	r8, r5, #3, #5
 1550              	.LVL172:
 596:u8glib/u8g_font.c ****   {
 1551              		.loc 1 596 0
 1552 0066 4FF0000A 		mov	r10, #0
 1553 006a 17E0     		b	.L107
 1554              	.LVL173:
 1555              	.L108:
 601:u8glib/u8g_font.c ****       data++;
 1556              		.loc 1 601 0 discriminator 3
 1557 006c 16F8013B 		ldrb	r3, [r6], #1	@ zero_extendqisi2
 1558              	.LVL174:
 1559 0070 0093     		str	r3, [sp]
 1560 0072 0023     		movs	r3, #0
 1561 0074 3A46     		mov	r2, r7
 1562 0076 2946     		mov	r1, r5
 1563 0078 4846     		mov	r0, r9
 1564 007a FFF7FEFF 		bl	u8g_Draw8Pixel
 1565              	.LVL175:
 603:u8glib/u8g_font.c ****     }
 1566              		.loc 1 603 0 discriminator 3
 1567 007e 0835     		adds	r5, r5, #8
 1568              	.LVL176:
 1569 0080 EDB2     		uxtb	r5, r5
 1570              	.LVL177:
 599:u8glib/u8g_font.c ****     {
 1571              		.loc 1 599 0 discriminator 3
 1572 0082 0134     		adds	r4, r4, #1
 1573              	.LVL178:
 1574 0084 E4B2     		uxtb	r4, r4
 1575              	.LVL179:
 1576 0086 01E0     		b	.L109
 1577              	.LVL180:
 1578              	.L111:
 1579 0088 039D     		ldr	r5, [sp, #12]
 1580 008a 0024     		movs	r4, #0
 1581              	.L109:
 1582              	.LVL181:
 599:u8glib/u8g_font.c ****     {
 1583              		.loc 1 599 0 is_stmt 0 discriminator 1
ARM GAS  C:\Users\master\AppData\Local\Temp\cc4icg2r.s 			page 54


 1584 008c 4445     		cmp	r4, r8
 1585 008e EDD3     		bcc	.L108
 605:u8glib/u8g_font.c ****   }
 1586              		.loc 1 605 0 is_stmt 1 discriminator 2
 1587 0090 0137     		adds	r7, r7, #1
 1588              	.LVL182:
 1589 0092 FFB2     		uxtb	r7, r7
 1590              	.LVL183:
 596:u8glib/u8g_font.c ****   {
 1591              		.loc 1 596 0 discriminator 2
 1592 0094 0AF1010A 		add	r10, r10, #1
 1593              	.LVL184:
 1594 0098 5FFA8AFA 		uxtb	r10, r10
 1595              	.LVL185:
 1596              	.L107:
 596:u8glib/u8g_font.c ****   {
 1597              		.loc 1 596 0 is_stmt 0 discriminator 1
 1598 009c DA45     		cmp	r10, fp
 1599 009e F3D3     		bcc	.L111
 607:u8glib/u8g_font.c **** }
 1600              		.loc 1 607 0 is_stmt 1
 1601 00a0 99F91C00 		ldrsb	r0, [r9, #28]
 1602 00a4 00E0     		b	.L105
 1603              	.LVL186:
 1604              	.L110:
 1605              	.LBB3:
 574:u8glib/u8g_font.c ****     data = u8g_font_GetGlyphDataStart(u8g->font, g);
 1606              		.loc 1 574 0
 1607 00a6 0020     		movs	r0, #0
 1608              	.LVL187:
 1609              	.L105:
 1610              	.LBE3:
 608:u8glib/u8g_font.c **** 
 1611              		.loc 1 608 0
 1612 00a8 05B0     		add	sp, sp, #20
 1613              	.LCFI31:
 1614              		.cfi_def_cfa_offset 36
 1615              		@ sp needed
 1616 00aa BDE8F08F 		pop	{r4, r5, r6, r7, r8, r9, r10, fp, pc}
 1617              		.cfi_endproc
 1618              	.LFE30:
 1620 00ae 00BF     		.section	.text.u8g_DrawGlyph,"ax",%progbits
 1621              		.align	2
 1622              		.global	u8g_DrawGlyph
 1623              		.thumb
 1624              		.thumb_func
 1626              	u8g_DrawGlyph:
 1627              	.LFB31:
 611:u8glib/u8g_font.c ****   y += u8g->font_calc_vref(u8g);
 1628              		.loc 1 611 0
 1629              		.cfi_startproc
 1630              		@ args = 0, pretend = 0, frame = 0
 1631              		@ frame_needed = 0, uses_anonymous_args = 0
 1632              	.LVL188:
 1633 0000 F8B5     		push	{r3, r4, r5, r6, r7, lr}
 1634              	.LCFI32:
 1635              		.cfi_def_cfa_offset 24
ARM GAS  C:\Users\master\AppData\Local\Temp\cc4icg2r.s 			page 55


 1636              		.cfi_offset 3, -24
 1637              		.cfi_offset 4, -20
 1638              		.cfi_offset 5, -16
 1639              		.cfi_offset 6, -12
 1640              		.cfi_offset 7, -8
 1641              		.cfi_offset 14, -4
 1642 0002 0546     		mov	r5, r0
 1643 0004 0E46     		mov	r6, r1
 1644 0006 1446     		mov	r4, r2
 1645 0008 1F46     		mov	r7, r3
 612:u8glib/u8g_font.c ****   return u8g_draw_glyph(u8g, x, y, encoding);
 1646              		.loc 1 612 0
 1647 000a 436A     		ldr	r3, [r0, #36]
 1648              	.LVL189:
 1649 000c 9847     		blx	r3
 1650              	.LVL190:
 1651 000e 0219     		adds	r2, r0, r4
 1652              	.LVL191:
 613:u8glib/u8g_font.c **** }
 1653              		.loc 1 613 0
 1654 0010 3B46     		mov	r3, r7
 1655 0012 D2B2     		uxtb	r2, r2
 1656 0014 3146     		mov	r1, r6
 1657 0016 2846     		mov	r0, r5
 1658 0018 FFF7FEFF 		bl	u8g_draw_glyph
 1659              	.LVL192:
 614:u8glib/u8g_font.c **** 
 1660              		.loc 1 614 0
 1661 001c F8BD     		pop	{r3, r4, r5, r6, r7, pc}
 1662              		.cfi_endproc
 1663              	.LFE31:
 1665 001e 00BF     		.section	.text.u8g_draw_glyph90,"ax",%progbits
 1666              		.align	2
 1667              		.global	u8g_draw_glyph90
 1668              		.thumb
 1669              		.thumb_func
 1671              	u8g_draw_glyph90:
 1672              	.LFB32:
 617:u8glib/u8g_font.c ****   const u8g_pgm_uint8_t *data;
 1673              		.loc 1 617 0
 1674              		.cfi_startproc
 1675              		@ args = 0, pretend = 0, frame = 8
 1676              		@ frame_needed = 0, uses_anonymous_args = 0
 1677              	.LVL193:
 1678 0000 2DE9F04F 		push	{r4, r5, r6, r7, r8, r9, r10, fp, lr}
 1679              	.LCFI33:
 1680              		.cfi_def_cfa_offset 36
 1681              		.cfi_offset 4, -36
 1682              		.cfi_offset 5, -32
 1683              		.cfi_offset 6, -28
 1684              		.cfi_offset 7, -24
 1685              		.cfi_offset 8, -20
 1686              		.cfi_offset 9, -16
 1687              		.cfi_offset 10, -12
 1688              		.cfi_offset 11, -8
 1689              		.cfi_offset 14, -4
 1690 0004 85B0     		sub	sp, sp, #20
ARM GAS  C:\Users\master\AppData\Local\Temp\cc4icg2r.s 			page 56


 1691              	.LCFI34:
 1692              		.cfi_def_cfa_offset 56
 1693 0006 8146     		mov	r9, r0
 1694 0008 0C46     		mov	r4, r1
 1695 000a 1746     		mov	r7, r2
 1696              	.LBB4:
 624:u8glib/u8g_font.c ****     if ( g == NULL  )
 1697              		.loc 1 624 0
 1698 000c 1946     		mov	r1, r3
 1699              	.LVL194:
 1700 000e FFF7FEFF 		bl	u8g_GetGlyph
 1701              	.LVL195:
 625:u8glib/u8g_font.c ****       return 0;
 1702              		.loc 1 625 0
 1703 0012 0028     		cmp	r0, #0
 1704 0014 47D0     		beq	.L121
 1705 0016 0146     		mov	r1, r0
 627:u8glib/u8g_font.c ****   }
 1706              		.loc 1 627 0
 1707 0018 D9F80800 		ldr	r0, [r9, #8]
 1708              	.LVL196:
 1709 001c FFF7FEFF 		bl	u8g_font_GetGlyphDataStart
 1710              	.LVL197:
 1711 0020 0646     		mov	r6, r0
 1712              	.LVL198:
 1713              	.LBE4:
 630:u8glib/u8g_font.c ****   h = u8g->glyph_height;
 1714              		.loc 1 630 0
 1715 0022 99F81F50 		ldrb	r5, [r9, #31]	@ zero_extendqisi2
 1716              	.LVL199:
 631:u8glib/u8g_font.c ****   
 1717              		.loc 1 631 0
 1718 0026 99F820B0 		ldrb	fp, [r9, #32]	@ zero_extendqisi2
 1719              	.LVL200:
 633:u8glib/u8g_font.c ****   x++;
 1720              		.loc 1 633 0
 1721 002a 99F91E30 		ldrsb	r3, [r9, #30]
 1722 002e 1C44     		add	r4, r4, r3
 1723 0030 E4B2     		uxtb	r4, r4
 1724              	.LVL201:
 634:u8glib/u8g_font.c ****   y += u8g->glyph_x;
 1725              		.loc 1 634 0
 1726 0032 0134     		adds	r4, r4, #1
 1727              	.LVL202:
 1728 0034 E4B2     		uxtb	r4, r4
 1729              	.LVL203:
 635:u8glib/u8g_font.c ****   
 1730              		.loc 1 635 0
 1731 0036 99F91D30 		ldrsb	r3, [r9, #29]
 1732 003a 1F44     		add	r7, r7, r3
 1733 003c FBB2     		uxtb	r3, r7
 1734 003e 1A46     		mov	r2, r3
 1735 0040 0393     		str	r3, [sp, #12]
 1736              	.LVL204:
 637:u8glib/u8g_font.c ****     return u8g->glyph_dx;
 1737              		.loc 1 637 0
 1738 0042 0095     		str	r5, [sp]
ARM GAS  C:\Users\master\AppData\Local\Temp\cc4icg2r.s 			page 57


 1739 0044 5B46     		mov	r3, fp
 1740 0046 2146     		mov	r1, r4
 1741 0048 4846     		mov	r0, r9
 1742              	.LVL205:
 1743 004a FFF7FEFF 		bl	u8g_IsBBXIntersection
 1744              	.LVL206:
 1745 004e 10B9     		cbnz	r0, .L117
 638:u8glib/u8g_font.c **** 
 1746              		.loc 1 638 0
 1747 0050 99F91C00 		ldrsb	r0, [r9, #28]
 1748 0054 28E0     		b	.L116
 1749              	.L117:
 641:u8glib/u8g_font.c ****   w /= 8;
 1750              		.loc 1 641 0
 1751 0056 0735     		adds	r5, r5, #7
 1752              	.LVL207:
 642:u8glib/u8g_font.c ****   
 1753              		.loc 1 642 0
 1754 0058 C5F3C408 		ubfx	r8, r5, #3, #5
 1755              	.LVL208:
 645:u8glib/u8g_font.c ****   ix--;
 1756              		.loc 1 645 0
 1757 005c 0BEB0407 		add	r7, fp, r4
 1758 0060 FFB2     		uxtb	r7, r7
 1759              	.LVL209:
 646:u8glib/u8g_font.c ****   for( j = 0; j < h; j++ )
 1760              		.loc 1 646 0
 1761 0062 013F     		subs	r7, r7, #1
 1762              	.LVL210:
 1763 0064 FFB2     		uxtb	r7, r7
 1764              	.LVL211:
 647:u8glib/u8g_font.c ****   {
 1765              		.loc 1 647 0
 1766 0066 4FF0000A 		mov	r10, #0
 1767 006a 17E0     		b	.L118
 1768              	.LVL212:
 1769              	.L119:
 652:u8glib/u8g_font.c ****       data++;
 1770              		.loc 1 652 0 discriminator 3
 1771 006c 16F8013B 		ldrb	r3, [r6], #1	@ zero_extendqisi2
 1772              	.LVL213:
 1773 0070 0093     		str	r3, [sp]
 1774 0072 0123     		movs	r3, #1
 1775 0074 2A46     		mov	r2, r5
 1776 0076 3946     		mov	r1, r7
 1777 0078 4846     		mov	r0, r9
 1778 007a FFF7FEFF 		bl	u8g_Draw8Pixel
 1779              	.LVL214:
 654:u8glib/u8g_font.c ****     }
 1780              		.loc 1 654 0 discriminator 3
 1781 007e 0835     		adds	r5, r5, #8
 1782              	.LVL215:
 1783 0080 EDB2     		uxtb	r5, r5
 1784              	.LVL216:
 650:u8glib/u8g_font.c ****     {
 1785              		.loc 1 650 0 discriminator 3
 1786 0082 0134     		adds	r4, r4, #1
ARM GAS  C:\Users\master\AppData\Local\Temp\cc4icg2r.s 			page 58


 1787              	.LVL217:
 1788 0084 E4B2     		uxtb	r4, r4
 1789              	.LVL218:
 1790 0086 01E0     		b	.L120
 1791              	.LVL219:
 1792              	.L122:
 1793 0088 039D     		ldr	r5, [sp, #12]
 1794 008a 0024     		movs	r4, #0
 1795              	.L120:
 1796              	.LVL220:
 650:u8glib/u8g_font.c ****     {
 1797              		.loc 1 650 0 is_stmt 0 discriminator 1
 1798 008c 4445     		cmp	r4, r8
 1799 008e EDD3     		bcc	.L119
 656:u8glib/u8g_font.c ****   }
 1800              		.loc 1 656 0 is_stmt 1 discriminator 2
 1801 0090 013F     		subs	r7, r7, #1
 1802              	.LVL221:
 1803 0092 FFB2     		uxtb	r7, r7
 1804              	.LVL222:
 647:u8glib/u8g_font.c ****   {
 1805              		.loc 1 647 0 discriminator 2
 1806 0094 0AF1010A 		add	r10, r10, #1
 1807              	.LVL223:
 1808 0098 5FFA8AFA 		uxtb	r10, r10
 1809              	.LVL224:
 1810              	.L118:
 647:u8glib/u8g_font.c ****   {
 1811              		.loc 1 647 0 is_stmt 0 discriminator 1
 1812 009c DA45     		cmp	r10, fp
 1813 009e F3D3     		bcc	.L122
 658:u8glib/u8g_font.c **** }
 1814              		.loc 1 658 0 is_stmt 1
 1815 00a0 99F91C00 		ldrsb	r0, [r9, #28]
 1816 00a4 00E0     		b	.L116
 1817              	.LVL225:
 1818              	.L121:
 1819              	.LBB5:
 626:u8glib/u8g_font.c ****     data = u8g_font_GetGlyphDataStart(u8g->font, g);
 1820              		.loc 1 626 0
 1821 00a6 0020     		movs	r0, #0
 1822              	.LVL226:
 1823              	.L116:
 1824              	.LBE5:
 659:u8glib/u8g_font.c **** 
 1825              		.loc 1 659 0
 1826 00a8 05B0     		add	sp, sp, #20
 1827              	.LCFI35:
 1828              		.cfi_def_cfa_offset 36
 1829              		@ sp needed
 1830 00aa BDE8F08F 		pop	{r4, r5, r6, r7, r8, r9, r10, fp, pc}
 1831              		.cfi_endproc
 1832              	.LFE32:
 1834 00ae 00BF     		.section	.text.u8g_DrawGlyph90,"ax",%progbits
 1835              		.align	2
 1836              		.global	u8g_DrawGlyph90
 1837              		.thumb
ARM GAS  C:\Users\master\AppData\Local\Temp\cc4icg2r.s 			page 59


 1838              		.thumb_func
 1840              	u8g_DrawGlyph90:
 1841              	.LFB33:
 662:u8glib/u8g_font.c ****   x -= u8g->font_calc_vref(u8g);
 1842              		.loc 1 662 0
 1843              		.cfi_startproc
 1844              		@ args = 0, pretend = 0, frame = 0
 1845              		@ frame_needed = 0, uses_anonymous_args = 0
 1846              	.LVL227:
 1847 0000 F8B5     		push	{r3, r4, r5, r6, r7, lr}
 1848              	.LCFI36:
 1849              		.cfi_def_cfa_offset 24
 1850              		.cfi_offset 3, -24
 1851              		.cfi_offset 4, -20
 1852              		.cfi_offset 5, -16
 1853              		.cfi_offset 6, -12
 1854              		.cfi_offset 7, -8
 1855              		.cfi_offset 14, -4
 1856 0002 0546     		mov	r5, r0
 1857 0004 0C46     		mov	r4, r1
 1858 0006 1646     		mov	r6, r2
 1859 0008 1F46     		mov	r7, r3
 663:u8glib/u8g_font.c ****   return u8g_draw_glyph90(u8g, x, y, encoding);
 1860              		.loc 1 663 0
 1861 000a 436A     		ldr	r3, [r0, #36]
 1862              	.LVL228:
 1863 000c 9847     		blx	r3
 1864              	.LVL229:
 1865 000e 211A     		subs	r1, r4, r0
 1866              	.LVL230:
 664:u8glib/u8g_font.c **** }
 1867              		.loc 1 664 0
 1868 0010 3B46     		mov	r3, r7
 1869 0012 3246     		mov	r2, r6
 1870 0014 C9B2     		uxtb	r1, r1
 1871 0016 2846     		mov	r0, r5
 1872 0018 FFF7FEFF 		bl	u8g_draw_glyph90
 1873              	.LVL231:
 665:u8glib/u8g_font.c **** 
 1874              		.loc 1 665 0
 1875 001c F8BD     		pop	{r3, r4, r5, r6, r7, pc}
 1876              		.cfi_endproc
 1877              	.LFE33:
 1879 001e 00BF     		.section	.text.u8g_draw_glyph180,"ax",%progbits
 1880              		.align	2
 1881              		.global	u8g_draw_glyph180
 1882              		.thumb
 1883              		.thumb_func
 1885              	u8g_draw_glyph180:
 1886              	.LFB34:
 669:u8glib/u8g_font.c ****   const u8g_pgm_uint8_t *data;
 1887              		.loc 1 669 0
 1888              		.cfi_startproc
 1889              		@ args = 0, pretend = 0, frame = 8
 1890              		@ frame_needed = 0, uses_anonymous_args = 0
 1891              	.LVL232:
 1892 0000 2DE9F04F 		push	{r4, r5, r6, r7, r8, r9, r10, fp, lr}
ARM GAS  C:\Users\master\AppData\Local\Temp\cc4icg2r.s 			page 60


 1893              	.LCFI37:
 1894              		.cfi_def_cfa_offset 36
 1895              		.cfi_offset 4, -36
 1896              		.cfi_offset 5, -32
 1897              		.cfi_offset 6, -28
 1898              		.cfi_offset 7, -24
 1899              		.cfi_offset 8, -20
 1900              		.cfi_offset 9, -16
 1901              		.cfi_offset 10, -12
 1902              		.cfi_offset 11, -8
 1903              		.cfi_offset 14, -4
 1904 0004 85B0     		sub	sp, sp, #20
 1905              	.LCFI38:
 1906              		.cfi_def_cfa_offset 56
 1907 0006 8146     		mov	r9, r0
 1908 0008 0F46     		mov	r7, r1
 1909 000a 1446     		mov	r4, r2
 1910              	.LBB6:
 676:u8glib/u8g_font.c ****     if ( g == NULL  )
 1911              		.loc 1 676 0
 1912 000c 1946     		mov	r1, r3
 1913              	.LVL233:
 1914 000e FFF7FEFF 		bl	u8g_GetGlyph
 1915              	.LVL234:
 677:u8glib/u8g_font.c ****       return 0;
 1916              		.loc 1 677 0
 1917 0012 0028     		cmp	r0, #0
 1918 0014 4BD0     		beq	.L132
 1919 0016 0146     		mov	r1, r0
 679:u8glib/u8g_font.c ****   }
 1920              		.loc 1 679 0
 1921 0018 D9F80800 		ldr	r0, [r9, #8]
 1922              	.LVL235:
 1923 001c FFF7FEFF 		bl	u8g_font_GetGlyphDataStart
 1924              	.LVL236:
 1925 0020 0646     		mov	r6, r0
 1926              	.LVL237:
 1927              	.LBE6:
 682:u8glib/u8g_font.c ****   h = u8g->glyph_height;
 1928              		.loc 1 682 0
 1929 0022 99F81F50 		ldrb	r5, [r9, #31]	@ zero_extendqisi2
 1930              	.LVL238:
 683:u8glib/u8g_font.c ****   
 1931              		.loc 1 683 0
 1932 0026 99F820B0 		ldrb	fp, [r9, #32]	@ zero_extendqisi2
 1933              	.LVL239:
 685:u8glib/u8g_font.c ****   y += u8g->glyph_y;
 1934              		.loc 1 685 0
 1935 002a 99F91D30 		ldrsb	r3, [r9, #29]
 1936 002e FF1A     		subs	r7, r7, r3
 1937 0030 FBB2     		uxtb	r3, r7
 1938 0032 1A46     		mov	r2, r3
 1939 0034 0393     		str	r3, [sp, #12]
 1940              	.LVL240:
 686:u8glib/u8g_font.c ****   y++;
 1941              		.loc 1 686 0
 1942 0036 99F91E30 		ldrsb	r3, [r9, #30]
ARM GAS  C:\Users\master\AppData\Local\Temp\cc4icg2r.s 			page 61


 1943 003a 1C44     		add	r4, r4, r3
 1944 003c E4B2     		uxtb	r4, r4
 1945              	.LVL241:
 687:u8glib/u8g_font.c ****   
 1946              		.loc 1 687 0
 1947 003e 0134     		adds	r4, r4, #1
 1948              	.LVL242:
 1949 0040 E4B2     		uxtb	r4, r4
 1950              	.LVL243:
 689:u8glib/u8g_font.c ****     return u8g->glyph_dx;
 1951              		.loc 1 689 0
 1952 0042 511B     		subs	r1, r2, r5
 1953 0044 0131     		adds	r1, r1, #1
 1954 0046 CDF800B0 		str	fp, [sp]
 1955 004a 2B46     		mov	r3, r5
 1956 004c 2246     		mov	r2, r4
 1957              	.LVL244:
 1958 004e C9B2     		uxtb	r1, r1
 1959 0050 4846     		mov	r0, r9
 1960              	.LVL245:
 1961 0052 FFF7FEFF 		bl	u8g_IsBBXIntersection
 1962              	.LVL246:
 1963 0056 10B9     		cbnz	r0, .L128
 690:u8glib/u8g_font.c **** 
 1964              		.loc 1 690 0
 1965 0058 99F91C00 		ldrsb	r0, [r9, #28]
 1966 005c 28E0     		b	.L127
 1967              	.L128:
 693:u8glib/u8g_font.c ****   w /= 8;
 1968              		.loc 1 693 0
 1969 005e 0735     		adds	r5, r5, #7
 1970              	.LVL247:
 694:u8glib/u8g_font.c ****   
 1971              		.loc 1 694 0
 1972 0060 C5F3C408 		ubfx	r8, r5, #3, #5
 1973              	.LVL248:
 697:u8glib/u8g_font.c ****   iy--;
 1974              		.loc 1 697 0
 1975 0064 0BEB0407 		add	r7, fp, r4
 1976 0068 FFB2     		uxtb	r7, r7
 1977              	.LVL249:
 698:u8glib/u8g_font.c ****   for( j = 0; j < h; j++ )
 1978              		.loc 1 698 0
 1979 006a 013F     		subs	r7, r7, #1
 1980              	.LVL250:
 1981 006c FFB2     		uxtb	r7, r7
 1982              	.LVL251:
 699:u8glib/u8g_font.c ****   {
 1983              		.loc 1 699 0
 1984 006e 4FF0000A 		mov	r10, #0
 1985 0072 17E0     		b	.L129
 1986              	.LVL252:
 1987              	.L130:
 704:u8glib/u8g_font.c ****       data++;
 1988              		.loc 1 704 0 discriminator 3
 1989 0074 16F8013B 		ldrb	r3, [r6], #1	@ zero_extendqisi2
 1990              	.LVL253:
ARM GAS  C:\Users\master\AppData\Local\Temp\cc4icg2r.s 			page 62


 1991 0078 0093     		str	r3, [sp]
 1992 007a 0223     		movs	r3, #2
 1993 007c 3A46     		mov	r2, r7
 1994 007e 2946     		mov	r1, r5
 1995 0080 4846     		mov	r0, r9
 1996 0082 FFF7FEFF 		bl	u8g_Draw8Pixel
 1997              	.LVL254:
 706:u8glib/u8g_font.c ****     }
 1998              		.loc 1 706 0 discriminator 3
 1999 0086 083D     		subs	r5, r5, #8
 2000              	.LVL255:
 2001 0088 EDB2     		uxtb	r5, r5
 2002              	.LVL256:
 702:u8glib/u8g_font.c ****     {
 2003              		.loc 1 702 0 discriminator 3
 2004 008a 0134     		adds	r4, r4, #1
 2005              	.LVL257:
 2006 008c E4B2     		uxtb	r4, r4
 2007              	.LVL258:
 2008 008e 01E0     		b	.L131
 2009              	.LVL259:
 2010              	.L133:
 2011 0090 039D     		ldr	r5, [sp, #12]
 2012 0092 0024     		movs	r4, #0
 2013              	.L131:
 2014              	.LVL260:
 702:u8glib/u8g_font.c ****     {
 2015              		.loc 1 702 0 is_stmt 0 discriminator 1
 2016 0094 4445     		cmp	r4, r8
 2017 0096 EDD3     		bcc	.L130
 708:u8glib/u8g_font.c ****   }
 2018              		.loc 1 708 0 is_stmt 1 discriminator 2
 2019 0098 013F     		subs	r7, r7, #1
 2020              	.LVL261:
 2021 009a FFB2     		uxtb	r7, r7
 2022              	.LVL262:
 699:u8glib/u8g_font.c ****   {
 2023              		.loc 1 699 0 discriminator 2
 2024 009c 0AF1010A 		add	r10, r10, #1
 2025              	.LVL263:
 2026 00a0 5FFA8AFA 		uxtb	r10, r10
 2027              	.LVL264:
 2028              	.L129:
 699:u8glib/u8g_font.c ****   {
 2029              		.loc 1 699 0 is_stmt 0 discriminator 1
 2030 00a4 DA45     		cmp	r10, fp
 2031 00a6 F3D3     		bcc	.L133
 710:u8glib/u8g_font.c **** }
 2032              		.loc 1 710 0 is_stmt 1
 2033 00a8 99F91C00 		ldrsb	r0, [r9, #28]
 2034 00ac 00E0     		b	.L127
 2035              	.LVL265:
 2036              	.L132:
 2037              	.LBB7:
 678:u8glib/u8g_font.c ****     data = u8g_font_GetGlyphDataStart(u8g->font, g);
 2038              		.loc 1 678 0
 2039 00ae 0020     		movs	r0, #0
ARM GAS  C:\Users\master\AppData\Local\Temp\cc4icg2r.s 			page 63


 2040              	.LVL266:
 2041              	.L127:
 2042              	.LBE7:
 711:u8glib/u8g_font.c **** 
 2043              		.loc 1 711 0
 2044 00b0 05B0     		add	sp, sp, #20
 2045              	.LCFI39:
 2046              		.cfi_def_cfa_offset 36
 2047              		@ sp needed
 2048 00b2 BDE8F08F 		pop	{r4, r5, r6, r7, r8, r9, r10, fp, pc}
 2049              		.cfi_endproc
 2050              	.LFE34:
 2052 00b6 00BF     		.section	.text.u8g_DrawGlyph180,"ax",%progbits
 2053              		.align	2
 2054              		.global	u8g_DrawGlyph180
 2055              		.thumb
 2056              		.thumb_func
 2058              	u8g_DrawGlyph180:
 2059              	.LFB35:
 714:u8glib/u8g_font.c ****   y -= u8g->font_calc_vref(u8g);
 2060              		.loc 1 714 0
 2061              		.cfi_startproc
 2062              		@ args = 0, pretend = 0, frame = 0
 2063              		@ frame_needed = 0, uses_anonymous_args = 0
 2064              	.LVL267:
 2065 0000 F8B5     		push	{r3, r4, r5, r6, r7, lr}
 2066              	.LCFI40:
 2067              		.cfi_def_cfa_offset 24
 2068              		.cfi_offset 3, -24
 2069              		.cfi_offset 4, -20
 2070              		.cfi_offset 5, -16
 2071              		.cfi_offset 6, -12
 2072              		.cfi_offset 7, -8
 2073              		.cfi_offset 14, -4
 2074 0002 0546     		mov	r5, r0
 2075 0004 0E46     		mov	r6, r1
 2076 0006 1446     		mov	r4, r2
 2077 0008 1F46     		mov	r7, r3
 715:u8glib/u8g_font.c ****   return u8g_draw_glyph180(u8g, x, y, encoding);
 2078              		.loc 1 715 0
 2079 000a 436A     		ldr	r3, [r0, #36]
 2080              	.LVL268:
 2081 000c 9847     		blx	r3
 2082              	.LVL269:
 2083 000e 221A     		subs	r2, r4, r0
 2084              	.LVL270:
 716:u8glib/u8g_font.c **** }
 2085              		.loc 1 716 0
 2086 0010 3B46     		mov	r3, r7
 2087 0012 D2B2     		uxtb	r2, r2
 2088 0014 3146     		mov	r1, r6
 2089 0016 2846     		mov	r0, r5
 2090 0018 FFF7FEFF 		bl	u8g_draw_glyph180
 2091              	.LVL271:
 717:u8glib/u8g_font.c **** 
 2092              		.loc 1 717 0
 2093 001c F8BD     		pop	{r3, r4, r5, r6, r7, pc}
ARM GAS  C:\Users\master\AppData\Local\Temp\cc4icg2r.s 			page 64


 2094              		.cfi_endproc
 2095              	.LFE35:
 2097 001e 00BF     		.section	.text.u8g_draw_glyph270,"ax",%progbits
 2098              		.align	2
 2099              		.global	u8g_draw_glyph270
 2100              		.thumb
 2101              		.thumb_func
 2103              	u8g_draw_glyph270:
 2104              	.LFB36:
 721:u8glib/u8g_font.c ****   const u8g_pgm_uint8_t *data;
 2105              		.loc 1 721 0
 2106              		.cfi_startproc
 2107              		@ args = 0, pretend = 0, frame = 8
 2108              		@ frame_needed = 0, uses_anonymous_args = 0
 2109              	.LVL272:
 2110 0000 2DE9F04F 		push	{r4, r5, r6, r7, r8, r9, r10, fp, lr}
 2111              	.LCFI41:
 2112              		.cfi_def_cfa_offset 36
 2113              		.cfi_offset 4, -36
 2114              		.cfi_offset 5, -32
 2115              		.cfi_offset 6, -28
 2116              		.cfi_offset 7, -24
 2117              		.cfi_offset 8, -20
 2118              		.cfi_offset 9, -16
 2119              		.cfi_offset 10, -12
 2120              		.cfi_offset 11, -8
 2121              		.cfi_offset 14, -4
 2122 0004 85B0     		sub	sp, sp, #20
 2123              	.LCFI42:
 2124              		.cfi_def_cfa_offset 56
 2125 0006 8146     		mov	r9, r0
 2126 0008 0C46     		mov	r4, r1
 2127 000a 9046     		mov	r8, r2
 2128              	.LBB8:
 728:u8glib/u8g_font.c ****     if ( g == NULL  )
 2129              		.loc 1 728 0
 2130 000c 1946     		mov	r1, r3
 2131              	.LVL273:
 2132 000e FFF7FEFF 		bl	u8g_GetGlyph
 2133              	.LVL274:
 729:u8glib/u8g_font.c ****       return 0;
 2134              		.loc 1 729 0
 2135 0012 0028     		cmp	r0, #0
 2136 0014 4AD0     		beq	.L143
 2137 0016 0146     		mov	r1, r0
 731:u8glib/u8g_font.c ****   }
 2138              		.loc 1 731 0
 2139 0018 D9F80800 		ldr	r0, [r9, #8]
 2140              	.LVL275:
 2141 001c FFF7FEFF 		bl	u8g_font_GetGlyphDataStart
 2142              	.LVL276:
 2143 0020 0646     		mov	r6, r0
 2144              	.LVL277:
 2145              	.LBE8:
 734:u8glib/u8g_font.c ****   h = u8g->glyph_height;
 2146              		.loc 1 734 0
 2147 0022 99F81F50 		ldrb	r5, [r9, #31]	@ zero_extendqisi2
ARM GAS  C:\Users\master\AppData\Local\Temp\cc4icg2r.s 			page 65


 2148              	.LVL278:
 735:u8glib/u8g_font.c ****   
 2149              		.loc 1 735 0
 2150 0026 99F820B0 		ldrb	fp, [r9, #32]	@ zero_extendqisi2
 2151              	.LVL279:
 737:u8glib/u8g_font.c ****   x--;
 2152              		.loc 1 737 0
 2153 002a 99F91E70 		ldrsb	r7, [r9, #30]
 2154 002e E71B     		subs	r7, r4, r7
 2155 0030 FFB2     		uxtb	r7, r7
 2156              	.LVL280:
 738:u8glib/u8g_font.c ****   y -= u8g->glyph_x;
 2157              		.loc 1 738 0
 2158 0032 013F     		subs	r7, r7, #1
 2159              	.LVL281:
 2160 0034 FFB2     		uxtb	r7, r7
 2161              	.LVL282:
 739:u8glib/u8g_font.c ****   
 2162              		.loc 1 739 0
 2163 0036 99F91D30 		ldrsb	r3, [r9, #29]
 2164 003a C3EB0808 		rsb	r8, r3, r8
 2165 003e 5FFA88F3 		uxtb	r3, r8
 2166 0042 0393     		str	r3, [sp, #12]
 2167              	.LVL283:
 741:u8glib/u8g_font.c ****     return u8g->glyph_dx;
 2168              		.loc 1 741 0
 2169 0044 CBEB0707 		rsb	r7, fp, r7
 2170              	.LVL284:
 2171 0048 0137     		adds	r7, r7, #1
 2172 004a FFB2     		uxtb	r7, r7
 2173 004c 5A1B     		subs	r2, r3, r5
 2174 004e 0132     		adds	r2, r2, #1
 2175 0050 0095     		str	r5, [sp]
 2176              	.LVL285:
 2177 0052 5B46     		mov	r3, fp
 2178              	.LVL286:
 2179 0054 D2B2     		uxtb	r2, r2
 2180 0056 3946     		mov	r1, r7
 2181 0058 4846     		mov	r0, r9
 2182              	.LVL287:
 2183 005a FFF7FEFF 		bl	u8g_IsBBXIntersection
 2184              	.LVL288:
 2185 005e 10B9     		cbnz	r0, .L139
 742:u8glib/u8g_font.c ****   
 2186              		.loc 1 742 0
 2187 0060 99F91C00 		ldrsb	r0, [r9, #28]
 2188 0064 23E0     		b	.L138
 2189              	.L139:
 746:u8glib/u8g_font.c ****   w /= 8;  
 2190              		.loc 1 746 0
 2191 0066 0735     		adds	r5, r5, #7
 2192              	.LVL289:
 747:u8glib/u8g_font.c ****       
 2193              		.loc 1 747 0
 2194 0068 C5F3C408 		ubfx	r8, r5, #3, #5
 2195              	.LVL290:
 753:u8glib/u8g_font.c ****   {
ARM GAS  C:\Users\master\AppData\Local\Temp\cc4icg2r.s 			page 66


 2196              		.loc 1 753 0
 2197 006c 4FF0000A 		mov	r10, #0
 2198 0070 17E0     		b	.L140
 2199              	.LVL291:
 2200              	.L141:
 758:u8glib/u8g_font.c ****       data++;
 2201              		.loc 1 758 0 discriminator 3
 2202 0072 16F8013B 		ldrb	r3, [r6], #1	@ zero_extendqisi2
 2203              	.LVL292:
 2204 0076 0093     		str	r3, [sp]
 2205 0078 0323     		movs	r3, #3
 2206 007a 2A46     		mov	r2, r5
 2207 007c 3946     		mov	r1, r7
 2208 007e 4846     		mov	r0, r9
 2209 0080 FFF7FEFF 		bl	u8g_Draw8Pixel
 2210              	.LVL293:
 760:u8glib/u8g_font.c ****     }
 2211              		.loc 1 760 0 discriminator 3
 2212 0084 083D     		subs	r5, r5, #8
 2213              	.LVL294:
 2214 0086 EDB2     		uxtb	r5, r5
 2215              	.LVL295:
 756:u8glib/u8g_font.c ****     {
 2216              		.loc 1 756 0 discriminator 3
 2217 0088 0134     		adds	r4, r4, #1
 2218              	.LVL296:
 2219 008a E4B2     		uxtb	r4, r4
 2220              	.LVL297:
 2221 008c 01E0     		b	.L142
 2222              	.LVL298:
 2223              	.L144:
 2224 008e 039D     		ldr	r5, [sp, #12]
 2225 0090 0024     		movs	r4, #0
 2226              	.L142:
 2227              	.LVL299:
 756:u8glib/u8g_font.c ****     {
 2228              		.loc 1 756 0 is_stmt 0 discriminator 1
 2229 0092 4445     		cmp	r4, r8
 2230 0094 EDD3     		bcc	.L141
 762:u8glib/u8g_font.c ****   }
 2231              		.loc 1 762 0 is_stmt 1 discriminator 2
 2232 0096 0137     		adds	r7, r7, #1
 2233              	.LVL300:
 2234 0098 FFB2     		uxtb	r7, r7
 2235              	.LVL301:
 753:u8glib/u8g_font.c ****   {
 2236              		.loc 1 753 0 discriminator 2
 2237 009a 0AF1010A 		add	r10, r10, #1
 2238              	.LVL302:
 2239 009e 5FFA8AFA 		uxtb	r10, r10
 2240              	.LVL303:
 2241              	.L140:
 753:u8glib/u8g_font.c ****   {
 2242              		.loc 1 753 0 is_stmt 0 discriminator 1
 2243 00a2 DA45     		cmp	r10, fp
 2244 00a4 F3D3     		bcc	.L144
 764:u8glib/u8g_font.c **** }
ARM GAS  C:\Users\master\AppData\Local\Temp\cc4icg2r.s 			page 67


 2245              		.loc 1 764 0 is_stmt 1
 2246 00a6 99F91C00 		ldrsb	r0, [r9, #28]
 2247 00aa 00E0     		b	.L138
 2248              	.LVL304:
 2249              	.L143:
 2250              	.LBB9:
 730:u8glib/u8g_font.c ****     data = u8g_font_GetGlyphDataStart(u8g->font, g);
 2251              		.loc 1 730 0
 2252 00ac 0020     		movs	r0, #0
 2253              	.LVL305:
 2254              	.L138:
 2255              	.LBE9:
 765:u8glib/u8g_font.c **** 
 2256              		.loc 1 765 0
 2257 00ae 05B0     		add	sp, sp, #20
 2258              	.LCFI43:
 2259              		.cfi_def_cfa_offset 36
 2260              		@ sp needed
 2261 00b0 BDE8F08F 		pop	{r4, r5, r6, r7, r8, r9, r10, fp, pc}
 2262              		.cfi_endproc
 2263              	.LFE36:
 2265              		.section	.text.u8g_DrawGlyph270,"ax",%progbits
 2266              		.align	2
 2267              		.global	u8g_DrawGlyph270
 2268              		.thumb
 2269              		.thumb_func
 2271              	u8g_DrawGlyph270:
 2272              	.LFB37:
 768:u8glib/u8g_font.c ****   x += u8g->font_calc_vref(u8g);
 2273              		.loc 1 768 0
 2274              		.cfi_startproc
 2275              		@ args = 0, pretend = 0, frame = 0
 2276              		@ frame_needed = 0, uses_anonymous_args = 0
 2277              	.LVL306:
 2278 0000 F8B5     		push	{r3, r4, r5, r6, r7, lr}
 2279              	.LCFI44:
 2280              		.cfi_def_cfa_offset 24
 2281              		.cfi_offset 3, -24
 2282              		.cfi_offset 4, -20
 2283              		.cfi_offset 5, -16
 2284              		.cfi_offset 6, -12
 2285              		.cfi_offset 7, -8
 2286              		.cfi_offset 14, -4
 2287 0002 0546     		mov	r5, r0
 2288 0004 0C46     		mov	r4, r1
 2289 0006 1646     		mov	r6, r2
 2290 0008 1F46     		mov	r7, r3
 769:u8glib/u8g_font.c ****   return u8g_draw_glyph270(u8g, x, y, encoding);
 2291              		.loc 1 769 0
 2292 000a 436A     		ldr	r3, [r0, #36]
 2293              	.LVL307:
 2294 000c 9847     		blx	r3
 2295              	.LVL308:
 2296 000e 0119     		adds	r1, r0, r4
 2297              	.LVL309:
 770:u8glib/u8g_font.c **** }
 2298              		.loc 1 770 0
ARM GAS  C:\Users\master\AppData\Local\Temp\cc4icg2r.s 			page 68


 2299 0010 3B46     		mov	r3, r7
 2300 0012 3246     		mov	r2, r6
 2301 0014 C9B2     		uxtb	r1, r1
 2302 0016 2846     		mov	r0, r5
 2303 0018 FFF7FEFF 		bl	u8g_draw_glyph270
 2304              	.LVL310:
 771:u8glib/u8g_font.c **** 
 2305              		.loc 1 771 0
 2306 001c F8BD     		pop	{r3, r4, r5, r6, r7, pc}
 2307              		.cfi_endproc
 2308              	.LFE37:
 2310 001e 00BF     		.section	.text.u8g_DrawStr,"ax",%progbits
 2311              		.align	2
 2312              		.global	u8g_DrawStr
 2313              		.thumb
 2314              		.thumb_func
 2316              	u8g_DrawStr:
 2317              	.LFB38:
 794:u8glib/u8g_font.c ****   u8g_uint_t t = 0;
 2318              		.loc 1 794 0
 2319              		.cfi_startproc
 2320              		@ args = 0, pretend = 0, frame = 0
 2321              		@ frame_needed = 0, uses_anonymous_args = 0
 2322              	.LVL311:
 2323 0000 2DE9F041 		push	{r4, r5, r6, r7, r8, lr}
 2324              	.LCFI45:
 2325              		.cfi_def_cfa_offset 24
 2326              		.cfi_offset 4, -24
 2327              		.cfi_offset 5, -20
 2328              		.cfi_offset 6, -16
 2329              		.cfi_offset 7, -12
 2330              		.cfi_offset 8, -8
 2331              		.cfi_offset 14, -4
 2332 0004 8046     		mov	r8, r0
 2333 0006 0C46     		mov	r4, r1
 2334 0008 1746     		mov	r7, r2
 2335 000a 1E46     		mov	r6, r3
 2336              	.LVL312:
 801:u8glib/u8g_font.c ****   
 2337              		.loc 1 801 0
 2338 000c 436A     		ldr	r3, [r0, #36]
 2339              	.LVL313:
 2340 000e 9847     		blx	r3
 2341              	.LVL314:
 2342 0010 3844     		add	r0, r0, r7
 2343 0012 C7B2     		uxtb	r7, r0
 2344              	.LVL315:
 795:u8glib/u8g_font.c ****   int8_t d;
 2345              		.loc 1 795 0
 2346 0014 0025     		movs	r5, #0
 803:u8glib/u8g_font.c ****   {
 2347              		.loc 1 803 0
 2348 0016 0AE0     		b	.L149
 2349              	.LVL316:
 2350              	.L150:
 805:u8glib/u8g_font.c ****     x += d;
 2351              		.loc 1 805 0
ARM GAS  C:\Users\master\AppData\Local\Temp\cc4icg2r.s 			page 69


 2352 0018 3A46     		mov	r2, r7
 2353 001a 2146     		mov	r1, r4
 2354 001c 4046     		mov	r0, r8
 2355 001e FFF7FEFF 		bl	u8g_draw_glyph
 2356              	.LVL317:
 806:u8glib/u8g_font.c ****     t += d;
 2357              		.loc 1 806 0
 2358 0022 C0B2     		uxtb	r0, r0
 2359 0024 0444     		add	r4, r4, r0
 2360              	.LVL318:
 2361 0026 E4B2     		uxtb	r4, r4
 2362              	.LVL319:
 807:u8glib/u8g_font.c ****     s++;
 2363              		.loc 1 807 0
 2364 0028 0544     		add	r5, r5, r0
 2365              	.LVL320:
 2366 002a EDB2     		uxtb	r5, r5
 2367              	.LVL321:
 808:u8glib/u8g_font.c ****   }
 2368              		.loc 1 808 0
 2369 002c 0136     		adds	r6, r6, #1
 2370              	.LVL322:
 2371              	.L149:
 803:u8glib/u8g_font.c ****   {
 2372              		.loc 1 803 0
 2373 002e 3378     		ldrb	r3, [r6]	@ zero_extendqisi2
 2374 0030 002B     		cmp	r3, #0
 2375 0032 F1D1     		bne	.L150
 811:u8glib/u8g_font.c **** 
 2376              		.loc 1 811 0
 2377 0034 2846     		mov	r0, r5
 2378 0036 BDE8F081 		pop	{r4, r5, r6, r7, r8, pc}
 2379              		.cfi_endproc
 2380              	.LFE38:
 2382 003a 00BF     		.section	.text.u8g_DrawStr90,"ax",%progbits
 2383              		.align	2
 2384              		.global	u8g_DrawStr90
 2385              		.thumb
 2386              		.thumb_func
 2388              	u8g_DrawStr90:
 2389              	.LFB39:
 814:u8glib/u8g_font.c ****   u8g_uint_t t = 0;
 2390              		.loc 1 814 0
 2391              		.cfi_startproc
 2392              		@ args = 0, pretend = 0, frame = 0
 2393              		@ frame_needed = 0, uses_anonymous_args = 0
 2394              	.LVL323:
 2395 0000 2DE9F041 		push	{r4, r5, r6, r7, r8, lr}
 2396              	.LCFI46:
 2397              		.cfi_def_cfa_offset 24
 2398              		.cfi_offset 4, -24
 2399              		.cfi_offset 5, -20
 2400              		.cfi_offset 6, -16
 2401              		.cfi_offset 7, -12
 2402              		.cfi_offset 8, -8
 2403              		.cfi_offset 14, -4
 2404 0004 8046     		mov	r8, r0
ARM GAS  C:\Users\master\AppData\Local\Temp\cc4icg2r.s 			page 70


 2405 0006 0F46     		mov	r7, r1
 2406 0008 1446     		mov	r4, r2
 2407 000a 1E46     		mov	r6, r3
 2408              	.LVL324:
 818:u8glib/u8g_font.c **** 
 2409              		.loc 1 818 0
 2410 000c 436A     		ldr	r3, [r0, #36]
 2411              	.LVL325:
 2412 000e 9847     		blx	r3
 2413              	.LVL326:
 2414 0010 381A     		subs	r0, r7, r0
 2415 0012 C7B2     		uxtb	r7, r0
 2416              	.LVL327:
 815:u8glib/u8g_font.c ****   int8_t d;
 2417              		.loc 1 815 0
 2418 0014 0025     		movs	r5, #0
 820:u8glib/u8g_font.c ****   {
 2419              		.loc 1 820 0
 2420 0016 0AE0     		b	.L153
 2421              	.LVL328:
 2422              	.L154:
 822:u8glib/u8g_font.c ****     y += d;
 2423              		.loc 1 822 0
 2424 0018 2246     		mov	r2, r4
 2425 001a 3946     		mov	r1, r7
 2426 001c 4046     		mov	r0, r8
 2427 001e FFF7FEFF 		bl	u8g_draw_glyph90
 2428              	.LVL329:
 823:u8glib/u8g_font.c ****     t += d;
 2429              		.loc 1 823 0
 2430 0022 C0B2     		uxtb	r0, r0
 2431 0024 0444     		add	r4, r4, r0
 2432              	.LVL330:
 2433 0026 E4B2     		uxtb	r4, r4
 2434              	.LVL331:
 824:u8glib/u8g_font.c ****     s++;
 2435              		.loc 1 824 0
 2436 0028 0544     		add	r5, r5, r0
 2437              	.LVL332:
 2438 002a EDB2     		uxtb	r5, r5
 2439              	.LVL333:
 825:u8glib/u8g_font.c ****   }
 2440              		.loc 1 825 0
 2441 002c 0136     		adds	r6, r6, #1
 2442              	.LVL334:
 2443              	.L153:
 820:u8glib/u8g_font.c ****   {
 2444              		.loc 1 820 0
 2445 002e 3378     		ldrb	r3, [r6]	@ zero_extendqisi2
 2446 0030 002B     		cmp	r3, #0
 2447 0032 F1D1     		bne	.L154
 828:u8glib/u8g_font.c **** 
 2448              		.loc 1 828 0
 2449 0034 2846     		mov	r0, r5
 2450 0036 BDE8F081 		pop	{r4, r5, r6, r7, r8, pc}
 2451              		.cfi_endproc
 2452              	.LFE39:
ARM GAS  C:\Users\master\AppData\Local\Temp\cc4icg2r.s 			page 71


 2454 003a 00BF     		.section	.text.u8g_DrawStr180,"ax",%progbits
 2455              		.align	2
 2456              		.global	u8g_DrawStr180
 2457              		.thumb
 2458              		.thumb_func
 2460              	u8g_DrawStr180:
 2461              	.LFB40:
 831:u8glib/u8g_font.c ****   u8g_uint_t t = 0;
 2462              		.loc 1 831 0
 2463              		.cfi_startproc
 2464              		@ args = 0, pretend = 0, frame = 0
 2465              		@ frame_needed = 0, uses_anonymous_args = 0
 2466              	.LVL335:
 2467 0000 2DE9F041 		push	{r4, r5, r6, r7, r8, lr}
 2468              	.LCFI47:
 2469              		.cfi_def_cfa_offset 24
 2470              		.cfi_offset 4, -24
 2471              		.cfi_offset 5, -20
 2472              		.cfi_offset 6, -16
 2473              		.cfi_offset 7, -12
 2474              		.cfi_offset 8, -8
 2475              		.cfi_offset 14, -4
 2476 0004 8046     		mov	r8, r0
 2477 0006 0C46     		mov	r4, r1
 2478 0008 1746     		mov	r7, r2
 2479 000a 1E46     		mov	r6, r3
 2480              	.LVL336:
 835:u8glib/u8g_font.c ****   
 2481              		.loc 1 835 0
 2482 000c 436A     		ldr	r3, [r0, #36]
 2483              	.LVL337:
 2484 000e 9847     		blx	r3
 2485              	.LVL338:
 2486 0010 381A     		subs	r0, r7, r0
 2487 0012 C7B2     		uxtb	r7, r0
 2488              	.LVL339:
 832:u8glib/u8g_font.c ****   int8_t d;
 2489              		.loc 1 832 0
 2490 0014 0025     		movs	r5, #0
 837:u8glib/u8g_font.c ****   {
 2491              		.loc 1 837 0
 2492 0016 0AE0     		b	.L157
 2493              	.LVL340:
 2494              	.L158:
 839:u8glib/u8g_font.c ****     x -= d;
 2495              		.loc 1 839 0
 2496 0018 3A46     		mov	r2, r7
 2497 001a 2146     		mov	r1, r4
 2498 001c 4046     		mov	r0, r8
 2499 001e FFF7FEFF 		bl	u8g_draw_glyph180
 2500              	.LVL341:
 840:u8glib/u8g_font.c ****     t += d;
 2501              		.loc 1 840 0
 2502 0022 C0B2     		uxtb	r0, r0
 2503 0024 241A     		subs	r4, r4, r0
 2504              	.LVL342:
 2505 0026 E4B2     		uxtb	r4, r4
ARM GAS  C:\Users\master\AppData\Local\Temp\cc4icg2r.s 			page 72


 2506              	.LVL343:
 841:u8glib/u8g_font.c ****     s++;
 2507              		.loc 1 841 0
 2508 0028 0544     		add	r5, r5, r0
 2509              	.LVL344:
 2510 002a EDB2     		uxtb	r5, r5
 2511              	.LVL345:
 842:u8glib/u8g_font.c ****   }
 2512              		.loc 1 842 0
 2513 002c 0136     		adds	r6, r6, #1
 2514              	.LVL346:
 2515              	.L157:
 837:u8glib/u8g_font.c ****   {
 2516              		.loc 1 837 0
 2517 002e 3378     		ldrb	r3, [r6]	@ zero_extendqisi2
 2518 0030 002B     		cmp	r3, #0
 2519 0032 F1D1     		bne	.L158
 845:u8glib/u8g_font.c **** 
 2520              		.loc 1 845 0
 2521 0034 2846     		mov	r0, r5
 2522 0036 BDE8F081 		pop	{r4, r5, r6, r7, r8, pc}
 2523              		.cfi_endproc
 2524              	.LFE40:
 2526 003a 00BF     		.section	.text.u8g_DrawStr270,"ax",%progbits
 2527              		.align	2
 2528              		.global	u8g_DrawStr270
 2529              		.thumb
 2530              		.thumb_func
 2532              	u8g_DrawStr270:
 2533              	.LFB41:
 848:u8glib/u8g_font.c ****   u8g_uint_t t = 0;
 2534              		.loc 1 848 0
 2535              		.cfi_startproc
 2536              		@ args = 0, pretend = 0, frame = 0
 2537              		@ frame_needed = 0, uses_anonymous_args = 0
 2538              	.LVL347:
 2539 0000 2DE9F041 		push	{r4, r5, r6, r7, r8, lr}
 2540              	.LCFI48:
 2541              		.cfi_def_cfa_offset 24
 2542              		.cfi_offset 4, -24
 2543              		.cfi_offset 5, -20
 2544              		.cfi_offset 6, -16
 2545              		.cfi_offset 7, -12
 2546              		.cfi_offset 8, -8
 2547              		.cfi_offset 14, -4
 2548 0004 8046     		mov	r8, r0
 2549 0006 0F46     		mov	r7, r1
 2550 0008 1446     		mov	r4, r2
 2551 000a 1E46     		mov	r6, r3
 2552              	.LVL348:
 852:u8glib/u8g_font.c **** 
 2553              		.loc 1 852 0
 2554 000c 436A     		ldr	r3, [r0, #36]
 2555              	.LVL349:
 2556 000e 9847     		blx	r3
 2557              	.LVL350:
 2558 0010 3844     		add	r0, r0, r7
ARM GAS  C:\Users\master\AppData\Local\Temp\cc4icg2r.s 			page 73


 2559 0012 C7B2     		uxtb	r7, r0
 2560              	.LVL351:
 849:u8glib/u8g_font.c ****   int8_t d;
 2561              		.loc 1 849 0
 2562 0014 0025     		movs	r5, #0
 854:u8glib/u8g_font.c ****   {
 2563              		.loc 1 854 0
 2564 0016 0AE0     		b	.L161
 2565              	.LVL352:
 2566              	.L162:
 856:u8glib/u8g_font.c ****     y -= d;
 2567              		.loc 1 856 0
 2568 0018 2246     		mov	r2, r4
 2569 001a 3946     		mov	r1, r7
 2570 001c 4046     		mov	r0, r8
 2571 001e FFF7FEFF 		bl	u8g_draw_glyph270
 2572              	.LVL353:
 857:u8glib/u8g_font.c ****     t += d;
 2573              		.loc 1 857 0
 2574 0022 C0B2     		uxtb	r0, r0
 2575 0024 241A     		subs	r4, r4, r0
 2576              	.LVL354:
 2577 0026 E4B2     		uxtb	r4, r4
 2578              	.LVL355:
 858:u8glib/u8g_font.c ****     s++;
 2579              		.loc 1 858 0
 2580 0028 0544     		add	r5, r5, r0
 2581              	.LVL356:
 2582 002a EDB2     		uxtb	r5, r5
 2583              	.LVL357:
 859:u8glib/u8g_font.c ****   }
 2584              		.loc 1 859 0
 2585 002c 0136     		adds	r6, r6, #1
 2586              	.LVL358:
 2587              	.L161:
 854:u8glib/u8g_font.c ****   {
 2588              		.loc 1 854 0
 2589 002e 3378     		ldrb	r3, [r6]	@ zero_extendqisi2
 2590 0030 002B     		cmp	r3, #0
 2591 0032 F1D1     		bne	.L162
 862:u8glib/u8g_font.c **** 
 2592              		.loc 1 862 0
 2593 0034 2846     		mov	r0, r5
 2594 0036 BDE8F081 		pop	{r4, r5, r6, r7, r8, pc}
 2595              		.cfi_endproc
 2596              	.LFE41:
 2598 003a 00BF     		.section	.text.u8g_DrawStrDir,"ax",%progbits
 2599              		.align	2
 2600              		.global	u8g_DrawStrDir
 2601              		.thumb
 2602              		.thumb_func
 2604              	u8g_DrawStrDir:
 2605              	.LFB42:
 865:u8glib/u8g_font.c ****   switch(dir)
 2606              		.loc 1 865 0
 2607              		.cfi_startproc
 2608              		@ args = 4, pretend = 0, frame = 0
ARM GAS  C:\Users\master\AppData\Local\Temp\cc4icg2r.s 			page 74


 2609              		@ frame_needed = 0, uses_anonymous_args = 0
 2610              	.LVL359:
 2611 0000 08B5     		push	{r3, lr}
 2612              	.LCFI49:
 2613              		.cfi_def_cfa_offset 8
 2614              		.cfi_offset 3, -8
 2615              		.cfi_offset 14, -4
 866:u8glib/u8g_font.c ****   {
 2616              		.loc 1 866 0
 2617 0002 032B     		cmp	r3, #3
 2618 0004 13D8     		bhi	.L171
 2619 0006 DFE803F0 		tbb	[pc, r3]
 2620              	.L167:
 2621 000a 02       		.byte	(.L166-.L167)/2
 2622 000b 06       		.byte	(.L168-.L167)/2
 2623 000c 0A       		.byte	(.L169-.L167)/2
 2624 000d 0E       		.byte	(.L170-.L167)/2
 2625              		.p2align 1
 2626              	.L166:
 869:u8glib/u8g_font.c ****     case 1:
 2627              		.loc 1 869 0
 2628 000e 029B     		ldr	r3, [sp, #8]
 2629              	.LVL360:
 2630 0010 FFF7FEFF 		bl	u8g_DrawStr
 2631              	.LVL361:
 2632 0014 08BD     		pop	{r3, pc}
 2633              	.LVL362:
 2634              	.L168:
 871:u8glib/u8g_font.c ****     case 2:
 2635              		.loc 1 871 0
 2636 0016 029B     		ldr	r3, [sp, #8]
 2637              	.LVL363:
 2638 0018 FFF7FEFF 		bl	u8g_DrawStr90
 2639              	.LVL364:
 2640 001c 08BD     		pop	{r3, pc}
 2641              	.LVL365:
 2642              	.L169:
 873:u8glib/u8g_font.c ****     case 3:
 2643              		.loc 1 873 0
 2644 001e 029B     		ldr	r3, [sp, #8]
 2645              	.LVL366:
 2646 0020 FFF7FEFF 		bl	u8g_DrawStr180
 2647              	.LVL367:
 2648 0024 08BD     		pop	{r3, pc}
 2649              	.LVL368:
 2650              	.L170:
 875:u8glib/u8g_font.c ****   }
 2651              		.loc 1 875 0
 2652 0026 029B     		ldr	r3, [sp, #8]
 2653              	.LVL369:
 2654 0028 FFF7FEFF 		bl	u8g_DrawStr270
 2655              	.LVL370:
 2656 002c 08BD     		pop	{r3, pc}
 2657              	.LVL371:
 2658              	.L171:
 877:u8glib/u8g_font.c **** }
 2659              		.loc 1 877 0
ARM GAS  C:\Users\master\AppData\Local\Temp\cc4icg2r.s 			page 75


 2660 002e 0020     		movs	r0, #0
 2661              	.LVL372:
 878:u8glib/u8g_font.c **** 
 2662              		.loc 1 878 0
 2663 0030 08BD     		pop	{r3, pc}
 2664              		.cfi_endproc
 2665              	.LFE42:
 2667 0032 00BF     		.section	.text.u8g_DrawStrP,"ax",%progbits
 2668              		.align	2
 2669              		.global	u8g_DrawStrP
 2670              		.thumb
 2671              		.thumb_func
 2673              	u8g_DrawStrP:
 2674              	.LFB43:
 881:u8glib/u8g_font.c ****   u8g_uint_t t = 0;
 2675              		.loc 1 881 0
 2676              		.cfi_startproc
 2677              		@ args = 0, pretend = 0, frame = 0
 2678              		@ frame_needed = 0, uses_anonymous_args = 0
 2679              	.LVL373:
 2680 0000 2DE9F041 		push	{r4, r5, r6, r7, r8, lr}
 2681              	.LCFI50:
 2682              		.cfi_def_cfa_offset 24
 2683              		.cfi_offset 4, -24
 2684              		.cfi_offset 5, -20
 2685              		.cfi_offset 6, -16
 2686              		.cfi_offset 7, -12
 2687              		.cfi_offset 8, -8
 2688              		.cfi_offset 14, -4
 2689 0004 8046     		mov	r8, r0
 2690 0006 0C46     		mov	r4, r1
 2691 0008 1746     		mov	r7, r2
 2692 000a 1E46     		mov	r6, r3
 2693              	.LVL374:
 886:u8glib/u8g_font.c ****   
 2694              		.loc 1 886 0
 2695 000c 436A     		ldr	r3, [r0, #36]
 2696              	.LVL375:
 2697 000e 9847     		blx	r3
 2698              	.LVL376:
 2699 0010 3844     		add	r0, r0, r7
 2700 0012 C7B2     		uxtb	r7, r0
 2701              	.LVL377:
 882:u8glib/u8g_font.c ****   int8_t d;
 2702              		.loc 1 882 0
 2703 0014 0025     		movs	r5, #0
 2704              	.LVL378:
 2705              	.L175:
 890:u8glib/u8g_font.c ****     if ( c == '\0' )
 2706              		.loc 1 890 0
 2707 0016 3378     		ldrb	r3, [r6]	@ zero_extendqisi2
 2708              	.LVL379:
 891:u8glib/u8g_font.c ****       break;
 2709              		.loc 1 891 0
 2710 0018 5BB1     		cbz	r3, .L174
 893:u8glib/u8g_font.c ****     x += d;
 2711              		.loc 1 893 0
ARM GAS  C:\Users\master\AppData\Local\Temp\cc4icg2r.s 			page 76


 2712 001a 3A46     		mov	r2, r7
 2713 001c 2146     		mov	r1, r4
 2714 001e 4046     		mov	r0, r8
 2715 0020 FFF7FEFF 		bl	u8g_draw_glyph
 2716              	.LVL380:
 894:u8glib/u8g_font.c ****     t += d;
 2717              		.loc 1 894 0
 2718 0024 C0B2     		uxtb	r0, r0
 2719 0026 0444     		add	r4, r4, r0
 2720              	.LVL381:
 2721 0028 E4B2     		uxtb	r4, r4
 2722              	.LVL382:
 895:u8glib/u8g_font.c ****     s++;
 2723              		.loc 1 895 0
 2724 002a 0544     		add	r5, r5, r0
 2725              	.LVL383:
 2726 002c EDB2     		uxtb	r5, r5
 2727              	.LVL384:
 896:u8glib/u8g_font.c ****   }
 2728              		.loc 1 896 0
 2729 002e 0136     		adds	r6, r6, #1
 2730              	.LVL385:
 897:u8glib/u8g_font.c ****   return t;
 2731              		.loc 1 897 0
 2732 0030 F1E7     		b	.L175
 2733              	.LVL386:
 2734              	.L174:
 899:u8glib/u8g_font.c **** 
 2735              		.loc 1 899 0
 2736 0032 2846     		mov	r0, r5
 2737 0034 BDE8F081 		pop	{r4, r5, r6, r7, r8, pc}
 2738              		.cfi_endproc
 2739              	.LFE43:
 2741              		.section	.text.u8g_DrawStr90P,"ax",%progbits
 2742              		.align	2
 2743              		.global	u8g_DrawStr90P
 2744              		.thumb
 2745              		.thumb_func
 2747              	u8g_DrawStr90P:
 2748              	.LFB44:
 902:u8glib/u8g_font.c ****   u8g_uint_t t = 0;
 2749              		.loc 1 902 0
 2750              		.cfi_startproc
 2751              		@ args = 0, pretend = 0, frame = 0
 2752              		@ frame_needed = 0, uses_anonymous_args = 0
 2753              	.LVL387:
 2754 0000 2DE9F041 		push	{r4, r5, r6, r7, r8, lr}
 2755              	.LCFI51:
 2756              		.cfi_def_cfa_offset 24
 2757              		.cfi_offset 4, -24
 2758              		.cfi_offset 5, -20
 2759              		.cfi_offset 6, -16
 2760              		.cfi_offset 7, -12
 2761              		.cfi_offset 8, -8
 2762              		.cfi_offset 14, -4
 2763 0004 8046     		mov	r8, r0
 2764 0006 0F46     		mov	r7, r1
ARM GAS  C:\Users\master\AppData\Local\Temp\cc4icg2r.s 			page 77


 2765 0008 1446     		mov	r4, r2
 2766 000a 1E46     		mov	r6, r3
 2767              	.LVL388:
 907:u8glib/u8g_font.c **** 
 2768              		.loc 1 907 0
 2769 000c 436A     		ldr	r3, [r0, #36]
 2770              	.LVL389:
 2771 000e 9847     		blx	r3
 2772              	.LVL390:
 2773 0010 381A     		subs	r0, r7, r0
 2774 0012 C7B2     		uxtb	r7, r0
 2775              	.LVL391:
 903:u8glib/u8g_font.c ****   int8_t d;
 2776              		.loc 1 903 0
 2777 0014 0025     		movs	r5, #0
 2778              	.LVL392:
 2779              	.L179:
 911:u8glib/u8g_font.c ****     if ( c == '\0' )
 2780              		.loc 1 911 0
 2781 0016 3378     		ldrb	r3, [r6]	@ zero_extendqisi2
 2782              	.LVL393:
 912:u8glib/u8g_font.c ****       break;
 2783              		.loc 1 912 0
 2784 0018 5BB1     		cbz	r3, .L178
 914:u8glib/u8g_font.c ****     y += d;
 2785              		.loc 1 914 0
 2786 001a 2246     		mov	r2, r4
 2787 001c 3946     		mov	r1, r7
 2788 001e 4046     		mov	r0, r8
 2789 0020 FFF7FEFF 		bl	u8g_DrawGlyph90
 2790              	.LVL394:
 915:u8glib/u8g_font.c ****     t += d;
 2791              		.loc 1 915 0
 2792 0024 C0B2     		uxtb	r0, r0
 2793 0026 0444     		add	r4, r4, r0
 2794              	.LVL395:
 2795 0028 E4B2     		uxtb	r4, r4
 2796              	.LVL396:
 916:u8glib/u8g_font.c ****     s++;
 2797              		.loc 1 916 0
 2798 002a 0544     		add	r5, r5, r0
 2799              	.LVL397:
 2800 002c EDB2     		uxtb	r5, r5
 2801              	.LVL398:
 917:u8glib/u8g_font.c ****   }
 2802              		.loc 1 917 0
 2803 002e 0136     		adds	r6, r6, #1
 2804              	.LVL399:
 918:u8glib/u8g_font.c ****   return t;
 2805              		.loc 1 918 0
 2806 0030 F1E7     		b	.L179
 2807              	.LVL400:
 2808              	.L178:
 920:u8glib/u8g_font.c **** 
 2809              		.loc 1 920 0
 2810 0032 2846     		mov	r0, r5
 2811 0034 BDE8F081 		pop	{r4, r5, r6, r7, r8, pc}
ARM GAS  C:\Users\master\AppData\Local\Temp\cc4icg2r.s 			page 78


 2812              		.cfi_endproc
 2813              	.LFE44:
 2815              		.section	.text.u8g_DrawStr180P,"ax",%progbits
 2816              		.align	2
 2817              		.global	u8g_DrawStr180P
 2818              		.thumb
 2819              		.thumb_func
 2821              	u8g_DrawStr180P:
 2822              	.LFB45:
 923:u8glib/u8g_font.c ****   u8g_uint_t t = 0;
 2823              		.loc 1 923 0
 2824              		.cfi_startproc
 2825              		@ args = 0, pretend = 0, frame = 0
 2826              		@ frame_needed = 0, uses_anonymous_args = 0
 2827              	.LVL401:
 2828 0000 2DE9F041 		push	{r4, r5, r6, r7, r8, lr}
 2829              	.LCFI52:
 2830              		.cfi_def_cfa_offset 24
 2831              		.cfi_offset 4, -24
 2832              		.cfi_offset 5, -20
 2833              		.cfi_offset 6, -16
 2834              		.cfi_offset 7, -12
 2835              		.cfi_offset 8, -8
 2836              		.cfi_offset 14, -4
 2837 0004 8046     		mov	r8, r0
 2838 0006 0C46     		mov	r4, r1
 2839 0008 1746     		mov	r7, r2
 2840 000a 1E46     		mov	r6, r3
 2841              	.LVL402:
 928:u8glib/u8g_font.c ****   
 2842              		.loc 1 928 0
 2843 000c 436A     		ldr	r3, [r0, #36]
 2844              	.LVL403:
 2845 000e 9847     		blx	r3
 2846              	.LVL404:
 2847 0010 381A     		subs	r0, r7, r0
 2848 0012 C7B2     		uxtb	r7, r0
 2849              	.LVL405:
 924:u8glib/u8g_font.c ****   int8_t d;
 2850              		.loc 1 924 0
 2851 0014 0025     		movs	r5, #0
 2852              	.LVL406:
 2853              	.L183:
 932:u8glib/u8g_font.c ****     if ( c == '\0' )
 2854              		.loc 1 932 0
 2855 0016 3378     		ldrb	r3, [r6]	@ zero_extendqisi2
 2856              	.LVL407:
 933:u8glib/u8g_font.c ****       break;
 2857              		.loc 1 933 0
 2858 0018 5BB1     		cbz	r3, .L182
 935:u8glib/u8g_font.c ****     x -= d;
 2859              		.loc 1 935 0
 2860 001a 3A46     		mov	r2, r7
 2861 001c 2146     		mov	r1, r4
 2862 001e 4046     		mov	r0, r8
 2863 0020 FFF7FEFF 		bl	u8g_DrawGlyph180
 2864              	.LVL408:
ARM GAS  C:\Users\master\AppData\Local\Temp\cc4icg2r.s 			page 79


 936:u8glib/u8g_font.c ****     t += d;
 2865              		.loc 1 936 0
 2866 0024 C0B2     		uxtb	r0, r0
 2867 0026 241A     		subs	r4, r4, r0
 2868              	.LVL409:
 2869 0028 E4B2     		uxtb	r4, r4
 2870              	.LVL410:
 937:u8glib/u8g_font.c ****     s++;
 2871              		.loc 1 937 0
 2872 002a 0544     		add	r5, r5, r0
 2873              	.LVL411:
 2874 002c EDB2     		uxtb	r5, r5
 2875              	.LVL412:
 938:u8glib/u8g_font.c ****   }
 2876              		.loc 1 938 0
 2877 002e 0136     		adds	r6, r6, #1
 2878              	.LVL413:
 939:u8glib/u8g_font.c ****   return t;
 2879              		.loc 1 939 0
 2880 0030 F1E7     		b	.L183
 2881              	.LVL414:
 2882              	.L182:
 941:u8glib/u8g_font.c **** 
 2883              		.loc 1 941 0
 2884 0032 2846     		mov	r0, r5
 2885 0034 BDE8F081 		pop	{r4, r5, r6, r7, r8, pc}
 2886              		.cfi_endproc
 2887              	.LFE45:
 2889              		.section	.text.u8g_DrawStr270P,"ax",%progbits
 2890              		.align	2
 2891              		.global	u8g_DrawStr270P
 2892              		.thumb
 2893              		.thumb_func
 2895              	u8g_DrawStr270P:
 2896              	.LFB46:
 944:u8glib/u8g_font.c ****   u8g_uint_t t = 0;
 2897              		.loc 1 944 0
 2898              		.cfi_startproc
 2899              		@ args = 0, pretend = 0, frame = 0
 2900              		@ frame_needed = 0, uses_anonymous_args = 0
 2901              	.LVL415:
 2902 0000 2DE9F041 		push	{r4, r5, r6, r7, r8, lr}
 2903              	.LCFI53:
 2904              		.cfi_def_cfa_offset 24
 2905              		.cfi_offset 4, -24
 2906              		.cfi_offset 5, -20
 2907              		.cfi_offset 6, -16
 2908              		.cfi_offset 7, -12
 2909              		.cfi_offset 8, -8
 2910              		.cfi_offset 14, -4
 2911 0004 8046     		mov	r8, r0
 2912 0006 0F46     		mov	r7, r1
 2913 0008 1446     		mov	r4, r2
 2914 000a 1E46     		mov	r6, r3
 2915              	.LVL416:
 949:u8glib/u8g_font.c **** 
 2916              		.loc 1 949 0
ARM GAS  C:\Users\master\AppData\Local\Temp\cc4icg2r.s 			page 80


 2917 000c 436A     		ldr	r3, [r0, #36]
 2918              	.LVL417:
 2919 000e 9847     		blx	r3
 2920              	.LVL418:
 2921 0010 3844     		add	r0, r0, r7
 2922 0012 C7B2     		uxtb	r7, r0
 2923              	.LVL419:
 945:u8glib/u8g_font.c ****   int8_t d;
 2924              		.loc 1 945 0
 2925 0014 0025     		movs	r5, #0
 2926              	.LVL420:
 2927              	.L187:
 953:u8glib/u8g_font.c ****     if ( c == '\0' )
 2928              		.loc 1 953 0
 2929 0016 3378     		ldrb	r3, [r6]	@ zero_extendqisi2
 2930              	.LVL421:
 954:u8glib/u8g_font.c ****       break;
 2931              		.loc 1 954 0
 2932 0018 5BB1     		cbz	r3, .L186
 956:u8glib/u8g_font.c ****     y -= d;
 2933              		.loc 1 956 0
 2934 001a 2246     		mov	r2, r4
 2935 001c 3946     		mov	r1, r7
 2936 001e 4046     		mov	r0, r8
 2937 0020 FFF7FEFF 		bl	u8g_DrawGlyph270
 2938              	.LVL422:
 957:u8glib/u8g_font.c ****     t += d;
 2939              		.loc 1 957 0
 2940 0024 C0B2     		uxtb	r0, r0
 2941 0026 241A     		subs	r4, r4, r0
 2942              	.LVL423:
 2943 0028 E4B2     		uxtb	r4, r4
 2944              	.LVL424:
 958:u8glib/u8g_font.c ****     s++;
 2945              		.loc 1 958 0
 2946 002a 0544     		add	r5, r5, r0
 2947              	.LVL425:
 2948 002c EDB2     		uxtb	r5, r5
 2949              	.LVL426:
 959:u8glib/u8g_font.c ****   }
 2950              		.loc 1 959 0
 2951 002e 0136     		adds	r6, r6, #1
 2952              	.LVL427:
 960:u8glib/u8g_font.c ****   return t;
 2953              		.loc 1 960 0
 2954 0030 F1E7     		b	.L187
 2955              	.LVL428:
 2956              	.L186:
 962:u8glib/u8g_font.c **** 
 2957              		.loc 1 962 0
 2958 0032 2846     		mov	r0, r5
 2959 0034 BDE8F081 		pop	{r4, r5, r6, r7, r8, pc}
 2960              		.cfi_endproc
 2961              	.LFE46:
 2963              		.section	.text.u8g_DrawStrFontBBX,"ax",%progbits
 2964              		.align	2
 2965              		.global	u8g_DrawStrFontBBX
ARM GAS  C:\Users\master\AppData\Local\Temp\cc4icg2r.s 			page 81


 2966              		.thumb
 2967              		.thumb_func
 2969              	u8g_DrawStrFontBBX:
 2970              	.LFB47:
 965:u8glib/u8g_font.c ****   x -= u8g_GetFontBBXOffX(u8g);
 2971              		.loc 1 965 0
 2972              		.cfi_startproc
 2973              		@ args = 4, pretend = 0, frame = 0
 2974              		@ frame_needed = 0, uses_anonymous_args = 0
 2975              	.LVL429:
 2976 0000 F0B5     		push	{r4, r5, r6, r7, lr}
 2977              	.LCFI54:
 2978              		.cfi_def_cfa_offset 20
 2979              		.cfi_offset 4, -20
 2980              		.cfi_offset 5, -16
 2981              		.cfi_offset 6, -12
 2982              		.cfi_offset 7, -8
 2983              		.cfi_offset 14, -4
 2984 0002 83B0     		sub	sp, sp, #12
 2985              	.LCFI55:
 2986              		.cfi_def_cfa_offset 32
 2987 0004 0646     		mov	r6, r0
 2988 0006 0C46     		mov	r4, r1
 2989 0008 1546     		mov	r5, r2
 2990 000a 1F46     		mov	r7, r3
 966:u8glib/u8g_font.c ****   y += u8g_GetFontBBXOffY(u8g);
 2991              		.loc 1 966 0
 2992 000c FFF7FEFF 		bl	u8g_GetFontBBXOffX
 2993              	.LVL430:
 2994 0010 201A     		subs	r0, r4, r0
 2995 0012 C4B2     		uxtb	r4, r0
 2996              	.LVL431:
 967:u8glib/u8g_font.c ****   return u8g_DrawStrDir(u8g, x, y, dir, s);
 2997              		.loc 1 967 0
 2998 0014 3046     		mov	r0, r6
 2999 0016 FFF7FEFF 		bl	u8g_GetFontBBXOffY
 3000              	.LVL432:
 3001 001a 2A18     		adds	r2, r5, r0
 3002              	.LVL433:
 968:u8glib/u8g_font.c **** }
 3003              		.loc 1 968 0
 3004 001c 089B     		ldr	r3, [sp, #32]
 3005 001e 0093     		str	r3, [sp]
 3006 0020 3B46     		mov	r3, r7
 3007 0022 D2B2     		uxtb	r2, r2
 3008 0024 2146     		mov	r1, r4
 3009 0026 3046     		mov	r0, r6
 3010 0028 FFF7FEFF 		bl	u8g_DrawStrDir
 3011              	.LVL434:
 969:u8glib/u8g_font.c **** 
 3012              		.loc 1 969 0
 3013 002c 03B0     		add	sp, sp, #12
 3014              	.LCFI56:
 3015              		.cfi_def_cfa_offset 20
 3016              		@ sp needed
 3017 002e F0BD     		pop	{r4, r5, r6, r7, pc}
 3018              		.cfi_endproc
ARM GAS  C:\Users\master\AppData\Local\Temp\cc4icg2r.s 			page 82


 3019              	.LFE47:
 3021              		.section	.text.u8g_DrawGlyphFontBBX,"ax",%progbits
 3022              		.align	2
 3023              		.global	u8g_DrawGlyphFontBBX
 3024              		.thumb
 3025              		.thumb_func
 3027              	u8g_DrawGlyphFontBBX:
 3028              	.LFB48:
 973:u8glib/u8g_font.c ****   x -= u8g_GetFontBBXOffX(u8g);
 3029              		.loc 1 973 0
 3030              		.cfi_startproc
 3031              		@ args = 4, pretend = 0, frame = 0
 3032              		@ frame_needed = 0, uses_anonymous_args = 0
 3033              	.LVL435:
 3034 0000 70B5     		push	{r4, r5, r6, lr}
 3035              	.LCFI57:
 3036              		.cfi_def_cfa_offset 16
 3037              		.cfi_offset 4, -16
 3038              		.cfi_offset 5, -12
 3039              		.cfi_offset 6, -8
 3040              		.cfi_offset 14, -4
 3041 0002 0646     		mov	r6, r0
 3042 0004 0C46     		mov	r4, r1
 3043 0006 1546     		mov	r5, r2
 974:u8glib/u8g_font.c ****   y += u8g_GetFontBBXOffY(u8g);
 3044              		.loc 1 974 0
 3045 0008 FFF7FEFF 		bl	u8g_GetFontBBXOffX
 3046              	.LVL436:
 3047 000c 201A     		subs	r0, r4, r0
 3048 000e C4B2     		uxtb	r4, r0
 3049              	.LVL437:
 975:u8glib/u8g_font.c ****   u8g_draw_glyph(u8g, x, y, encoding);
 3050              		.loc 1 975 0
 3051 0010 3046     		mov	r0, r6
 3052 0012 FFF7FEFF 		bl	u8g_GetFontBBXOffY
 3053              	.LVL438:
 3054 0016 2A18     		adds	r2, r5, r0
 3055              	.LVL439:
 976:u8glib/u8g_font.c ****   return 0;
 3056              		.loc 1 976 0
 3057 0018 9DF81030 		ldrb	r3, [sp, #16]	@ zero_extendqisi2
 3058 001c D2B2     		uxtb	r2, r2
 3059 001e 2146     		mov	r1, r4
 3060 0020 3046     		mov	r0, r6
 3061 0022 FFF7FEFF 		bl	u8g_draw_glyph
 3062              	.LVL440:
 978:u8glib/u8g_font.c **** 
 3063              		.loc 1 978 0
 3064 0026 0020     		movs	r0, #0
 3065 0028 70BD     		pop	{r4, r5, r6, pc}
 3066              		.cfi_endproc
 3067              	.LFE48:
 3069 002a 00BF     		.section	.text.u8g_UpdateRefHeight,"ax",%progbits
 3070              		.align	2
 3071              		.global	u8g_UpdateRefHeight
 3072              		.thumb
 3073              		.thumb_func
ARM GAS  C:\Users\master\AppData\Local\Temp\cc4icg2r.s 			page 83


 3075              	u8g_UpdateRefHeight:
 3076              	.LFB49:
 985:u8glib/u8g_font.c ****   uint16_t ls;
 3077              		.loc 1 985 0
 3078              		.cfi_startproc
 3079              		@ args = 0, pretend = 0, frame = 0
 3080              		@ frame_needed = 0, uses_anonymous_args = 0
 3081              	.LVL441:
 3082 0000 38B5     		push	{r3, r4, r5, lr}
 3083              	.LCFI58:
 3084              		.cfi_def_cfa_offset 16
 3085              		.cfi_offset 3, -16
 3086              		.cfi_offset 4, -12
 3087              		.cfi_offset 5, -8
 3088              		.cfi_offset 14, -4
 987:u8glib/u8g_font.c ****     return;
 3089              		.loc 1 987 0
 3090 0002 8568     		ldr	r5, [r0, #8]
 3091 0004 B5B3     		cbz	r5, .L193
 3092 0006 0446     		mov	r4, r0
 989:u8glib/u8g_font.c ****   {
 3093              		.loc 1 989 0
 3094 0008 90F82830 		ldrb	r3, [r0, #40]	@ zero_extendqisi2
 3095 000c 53B9     		cbnz	r3, .L195
 991:u8glib/u8g_font.c ****     u8g->font_ref_descent = u8g_font_GetLowerGDescent(u8g->font);
 3096              		.loc 1 991 0
 3097 000e 2846     		mov	r0, r5
 3098              	.LVL442:
 3099 0010 FFF7FEFF 		bl	u8g_font_GetCapitalAHeight
 3100              	.LVL443:
 3101 0014 84F82900 		strb	r0, [r4, #41]
 992:u8glib/u8g_font.c ****   }
 3102              		.loc 1 992 0
 3103 0018 2846     		mov	r0, r5
 3104 001a FFF7FEFF 		bl	u8g_font_GetLowerGDescent
 3105              	.LVL444:
 3106 001e 84F82A00 		strb	r0, [r4, #42]
 3107 0022 16E0     		b	.L196
 3108              	.LVL445:
 3109              	.L195:
 994:u8glib/u8g_font.c ****   {
 3110              		.loc 1 994 0
 3111 0024 012B     		cmp	r3, #1
 3112 0026 0AD1     		bne	.L197
 996:u8glib/u8g_font.c ****     u8g->font_ref_descent = u8g_font_GetFontXDescent(u8g->font);
 3113              		.loc 1 996 0
 3114 0028 2846     		mov	r0, r5
 3115              	.LVL446:
 3116 002a FFF7FEFF 		bl	u8g_font_GetFontXAscent
 3117              	.LVL447:
 3118 002e 84F82900 		strb	r0, [r4, #41]
 997:u8glib/u8g_font.c ****   }
 3119              		.loc 1 997 0
 3120 0032 2846     		mov	r0, r5
 3121 0034 FFF7FEFF 		bl	u8g_font_GetFontXDescent
 3122              	.LVL448:
 3123 0038 84F82A00 		strb	r0, [r4, #42]
ARM GAS  C:\Users\master\AppData\Local\Temp\cc4icg2r.s 			page 84


 3124 003c 09E0     		b	.L196
 3125              	.LVL449:
 3126              	.L197:
1001:u8glib/u8g_font.c ****     u8g->font_ref_descent = u8g_font_GetFontDescent(u8g->font);
 3127              		.loc 1 1001 0
 3128 003e 2846     		mov	r0, r5
 3129              	.LVL450:
 3130 0040 FFF7FEFF 		bl	u8g_font_GetFontAscent
 3131              	.LVL451:
 3132 0044 84F82900 		strb	r0, [r4, #41]
1002:u8glib/u8g_font.c ****   }
 3133              		.loc 1 1002 0
 3134 0048 2846     		mov	r0, r5
 3135 004a FFF7FEFF 		bl	u8g_font_GetFontDescent
 3136              	.LVL452:
 3137 004e 84F82A00 		strb	r0, [r4, #42]
 3138              	.L196:
1005:u8glib/u8g_font.c ****   if ( u8g->font_line_spacing_factor != 64 )
 3139              		.loc 1 1005 0
 3140 0052 94F92930 		ldrsb	r3, [r4, #41]
 3141 0056 94F92A20 		ldrsb	r2, [r4, #42]
 3142 005a 9B1A     		subs	r3, r3, r2
 3143 005c 9BB2     		uxth	r3, r3
 3144              	.LVL453:
1006:u8glib/u8g_font.c ****   {
 3145              		.loc 1 1006 0
 3146 005e 94F82B20 		ldrb	r2, [r4, #43]	@ zero_extendqisi2
 3147 0062 402A     		cmp	r2, #64
 3148 0064 04D0     		beq	.L198
1008:u8glib/u8g_font.c ****     ls *= u8g->font_line_spacing_factor;
 3149              		.loc 1 1008 0
 3150 0066 DBB2     		uxtb	r3, r3
 3151              	.LVL454:
1009:u8glib/u8g_font.c ****     ls >>= 6;
 3152              		.loc 1 1009 0
 3153 0068 02FB03F3 		mul	r3, r2, r3
 3154              	.LVL455:
1010:u8glib/u8g_font.c ****   }
 3155              		.loc 1 1010 0
 3156 006c C3F38F13 		ubfx	r3, r3, #6, #16
 3157              	.LVL456:
 3158              	.L198:
1012:u8glib/u8g_font.c **** }
 3159              		.loc 1 1012 0
 3160 0070 84F82C30 		strb	r3, [r4, #44]
 3161              	.LVL457:
 3162              	.L193:
 3163 0074 38BD     		pop	{r3, r4, r5, pc}
 3164              		.cfi_endproc
 3165              	.LFE49:
 3167 0076 00BF     		.section	.text.u8g_SetFontRefHeightText,"ax",%progbits
 3168              		.align	2
 3169              		.global	u8g_SetFontRefHeightText
 3170              		.thumb
 3171              		.thumb_func
 3173              	u8g_SetFontRefHeightText:
 3174              	.LFB50:
ARM GAS  C:\Users\master\AppData\Local\Temp\cc4icg2r.s 			page 85


1016:u8glib/u8g_font.c ****   u8g->font_height_mode = U8G_FONT_HEIGHT_MODE_TEXT;
 3175              		.loc 1 1016 0
 3176              		.cfi_startproc
 3177              		@ args = 0, pretend = 0, frame = 0
 3178              		@ frame_needed = 0, uses_anonymous_args = 0
 3179              	.LVL458:
 3180 0000 08B5     		push	{r3, lr}
 3181              	.LCFI59:
 3182              		.cfi_def_cfa_offset 8
 3183              		.cfi_offset 3, -8
 3184              		.cfi_offset 14, -4
1017:u8glib/u8g_font.c ****   u8g_UpdateRefHeight(u8g);
 3185              		.loc 1 1017 0
 3186 0002 0022     		movs	r2, #0
 3187 0004 80F82820 		strb	r2, [r0, #40]
1018:u8glib/u8g_font.c **** }
 3188              		.loc 1 1018 0
 3189 0008 FFF7FEFF 		bl	u8g_UpdateRefHeight
 3190              	.LVL459:
 3191 000c 08BD     		pop	{r3, pc}
 3192              		.cfi_endproc
 3193              	.LFE50:
 3195 000e 00BF     		.section	.text.u8g_SetFontRefHeightExtendedText,"ax",%progbits
 3196              		.align	2
 3197              		.global	u8g_SetFontRefHeightExtendedText
 3198              		.thumb
 3199              		.thumb_func
 3201              	u8g_SetFontRefHeightExtendedText:
 3202              	.LFB51:
1022:u8glib/u8g_font.c ****   u8g->font_height_mode = U8G_FONT_HEIGHT_MODE_XTEXT;
 3203              		.loc 1 1022 0
 3204              		.cfi_startproc
 3205              		@ args = 0, pretend = 0, frame = 0
 3206              		@ frame_needed = 0, uses_anonymous_args = 0
 3207              	.LVL460:
 3208 0000 08B5     		push	{r3, lr}
 3209              	.LCFI60:
 3210              		.cfi_def_cfa_offset 8
 3211              		.cfi_offset 3, -8
 3212              		.cfi_offset 14, -4
1023:u8glib/u8g_font.c ****   u8g_UpdateRefHeight(u8g);
 3213              		.loc 1 1023 0
 3214 0002 0123     		movs	r3, #1
 3215 0004 80F82830 		strb	r3, [r0, #40]
1024:u8glib/u8g_font.c **** }
 3216              		.loc 1 1024 0
 3217 0008 FFF7FEFF 		bl	u8g_UpdateRefHeight
 3218              	.LVL461:
 3219 000c 08BD     		pop	{r3, pc}
 3220              		.cfi_endproc
 3221              	.LFE51:
 3223 000e 00BF     		.section	.text.u8g_SetFontRefHeightAll,"ax",%progbits
 3224              		.align	2
 3225              		.global	u8g_SetFontRefHeightAll
 3226              		.thumb
 3227              		.thumb_func
 3229              	u8g_SetFontRefHeightAll:
ARM GAS  C:\Users\master\AppData\Local\Temp\cc4icg2r.s 			page 86


 3230              	.LFB52:
1029:u8glib/u8g_font.c ****   u8g->font_height_mode = U8G_FONT_HEIGHT_MODE_ALL;
 3231              		.loc 1 1029 0
 3232              		.cfi_startproc
 3233              		@ args = 0, pretend = 0, frame = 0
 3234              		@ frame_needed = 0, uses_anonymous_args = 0
 3235              	.LVL462:
 3236 0000 08B5     		push	{r3, lr}
 3237              	.LCFI61:
 3238              		.cfi_def_cfa_offset 8
 3239              		.cfi_offset 3, -8
 3240              		.cfi_offset 14, -4
1030:u8glib/u8g_font.c ****   u8g_UpdateRefHeight(u8g);
 3241              		.loc 1 1030 0
 3242 0002 0223     		movs	r3, #2
 3243 0004 80F82830 		strb	r3, [r0, #40]
1031:u8glib/u8g_font.c **** }
 3244              		.loc 1 1031 0
 3245 0008 FFF7FEFF 		bl	u8g_UpdateRefHeight
 3246              	.LVL463:
 3247 000c 08BD     		pop	{r3, pc}
 3248              		.cfi_endproc
 3249              	.LFE52:
 3251 000e 00BF     		.section	.text.u8g_SetFontLineSpacingFactor,"ax",%progbits
 3252              		.align	2
 3253              		.global	u8g_SetFontLineSpacingFactor
 3254              		.thumb
 3255              		.thumb_func
 3257              	u8g_SetFontLineSpacingFactor:
 3258              	.LFB53:
1036:u8glib/u8g_font.c ****   u8g->font_line_spacing_factor = factor;
 3259              		.loc 1 1036 0
 3260              		.cfi_startproc
 3261              		@ args = 0, pretend = 0, frame = 0
 3262              		@ frame_needed = 0, uses_anonymous_args = 0
 3263              	.LVL464:
 3264 0000 08B5     		push	{r3, lr}
 3265              	.LCFI62:
 3266              		.cfi_def_cfa_offset 8
 3267              		.cfi_offset 3, -8
 3268              		.cfi_offset 14, -4
1037:u8glib/u8g_font.c ****   u8g_UpdateRefHeight(u8g);
 3269              		.loc 1 1037 0
 3270 0002 80F82B10 		strb	r1, [r0, #43]
1038:u8glib/u8g_font.c **** }
 3271              		.loc 1 1038 0
 3272 0006 FFF7FEFF 		bl	u8g_UpdateRefHeight
 3273              	.LVL465:
 3274 000a 08BD     		pop	{r3, pc}
 3275              		.cfi_endproc
 3276              	.LFE53:
 3278              		.section	.text.u8g_SetFontPosBaseline,"ax",%progbits
 3279              		.align	2
 3280              		.global	u8g_SetFontPosBaseline
 3281              		.thumb
 3282              		.thumb_func
 3284              	u8g_SetFontPosBaseline:
ARM GAS  C:\Users\master\AppData\Local\Temp\cc4icg2r.s 			page 87


 3285              	.LFB55:
1052:u8glib/u8g_font.c ****   u8g->font_calc_vref = u8g_font_calc_vref_font;
 3286              		.loc 1 1052 0
 3287              		.cfi_startproc
 3288              		@ args = 0, pretend = 0, frame = 0
 3289              		@ frame_needed = 0, uses_anonymous_args = 0
 3290              		@ link register save eliminated.
 3291              	.LVL466:
1053:u8glib/u8g_font.c **** }
 3292              		.loc 1 1053 0
 3293 0000 014B     		ldr	r3, .L209
 3294 0002 4362     		str	r3, [r0, #36]
 3295 0004 7047     		bx	lr
 3296              	.L210:
 3297 0006 00BF     		.align	2
 3298              	.L209:
 3299 0008 00000000 		.word	u8g_font_calc_vref_font
 3300              		.cfi_endproc
 3301              	.LFE55:
 3303              		.section	.text.u8g_SetFontPosBottom,"ax",%progbits
 3304              		.align	2
 3305              		.global	u8g_SetFontPosBottom
 3306              		.thumb
 3307              		.thumb_func
 3309              	u8g_SetFontPosBottom:
 3310              	.LFB57:
1064:u8glib/u8g_font.c ****   u8g->font_calc_vref = u8g_font_calc_vref_bottom;
 3311              		.loc 1 1064 0
 3312              		.cfi_startproc
 3313              		@ args = 0, pretend = 0, frame = 0
 3314              		@ frame_needed = 0, uses_anonymous_args = 0
 3315              		@ link register save eliminated.
 3316              	.LVL467:
1065:u8glib/u8g_font.c **** }
 3317              		.loc 1 1065 0
 3318 0000 014B     		ldr	r3, .L212
 3319 0002 4362     		str	r3, [r0, #36]
 3320 0004 7047     		bx	lr
 3321              	.L213:
 3322 0006 00BF     		.align	2
 3323              	.L212:
 3324 0008 00000000 		.word	u8g_font_calc_vref_bottom
 3325              		.cfi_endproc
 3326              	.LFE57:
 3328              		.section	.text.u8g_SetFontPosTop,"ax",%progbits
 3329              		.align	2
 3330              		.global	u8g_SetFontPosTop
 3331              		.thumb
 3332              		.thumb_func
 3334              	u8g_SetFontPosTop:
 3335              	.LFB59:
1083:u8glib/u8g_font.c ****   u8g->font_calc_vref = u8g_font_calc_vref_top;
 3336              		.loc 1 1083 0
 3337              		.cfi_startproc
 3338              		@ args = 0, pretend = 0, frame = 0
 3339              		@ frame_needed = 0, uses_anonymous_args = 0
 3340              		@ link register save eliminated.
ARM GAS  C:\Users\master\AppData\Local\Temp\cc4icg2r.s 			page 88


 3341              	.LVL468:
1084:u8glib/u8g_font.c **** }
 3342              		.loc 1 1084 0
 3343 0000 014B     		ldr	r3, .L215
 3344 0002 4362     		str	r3, [r0, #36]
 3345 0004 7047     		bx	lr
 3346              	.L216:
 3347 0006 00BF     		.align	2
 3348              	.L215:
 3349 0008 00000000 		.word	u8g_font_calc_vref_top
 3350              		.cfi_endproc
 3351              	.LFE59:
 3353              		.section	.text.u8g_SetFontPosCenter,"ax",%progbits
 3354              		.align	2
 3355              		.global	u8g_SetFontPosCenter
 3356              		.thumb
 3357              		.thumb_func
 3359              	u8g_SetFontPosCenter:
 3360              	.LFB61:
1099:u8glib/u8g_font.c ****   u8g->font_calc_vref = u8g_font_calc_vref_center;
 3361              		.loc 1 1099 0
 3362              		.cfi_startproc
 3363              		@ args = 0, pretend = 0, frame = 0
 3364              		@ frame_needed = 0, uses_anonymous_args = 0
 3365              		@ link register save eliminated.
 3366              	.LVL469:
1100:u8glib/u8g_font.c **** }
 3367              		.loc 1 1100 0
 3368 0000 014B     		ldr	r3, .L218
 3369 0002 4362     		str	r3, [r0, #36]
 3370 0004 7047     		bx	lr
 3371              	.L219:
 3372 0006 00BF     		.align	2
 3373              	.L218:
 3374 0008 00000000 		.word	u8g_font_calc_vref_center
 3375              		.cfi_endproc
 3376              	.LFE61:
 3378              		.section	.text.u8g_font_calc_str_pixel_width,"ax",%progbits
 3379              		.align	2
 3380              		.global	u8g_font_calc_str_pixel_width
 3381              		.thumb
 3382              		.thumb_func
 3384              	u8g_font_calc_str_pixel_width:
 3385              	.LFB64:
1120:u8glib/u8g_font.c ****   u8g_uint_t  w;
 3386              		.loc 1 1120 0
 3387              		.cfi_startproc
 3388              		@ args = 0, pretend = 0, frame = 0
 3389              		@ frame_needed = 0, uses_anonymous_args = 0
 3390              	.LVL470:
 3391 0000 2DE9F041 		push	{r4, r5, r6, r7, r8, lr}
 3392              	.LCFI63:
 3393              		.cfi_def_cfa_offset 24
 3394              		.cfi_offset 4, -24
 3395              		.cfi_offset 5, -20
 3396              		.cfi_offset 6, -16
 3397              		.cfi_offset 7, -12
ARM GAS  C:\Users\master\AppData\Local\Temp\cc4icg2r.s 			page 89


 3398              		.cfi_offset 8, -8
 3399              		.cfi_offset 14, -4
 3400 0004 0646     		mov	r6, r0
 3401 0006 0C46     		mov	r4, r1
 3402 0008 1746     		mov	r7, r2
 3403              	.LVL471:
1127:u8glib/u8g_font.c ****   
 3404              		.loc 1 1127 0
 3405 000a 0846     		mov	r0, r1
 3406              	.LVL472:
 3407 000c 9047     		blx	r2
 3408              	.LVL473:
1130:u8glib/u8g_font.c ****   {
 3409              		.loc 1 1130 0
 3410 000e 50B3     		cbz	r0, .L225
 3411 0010 8046     		mov	r8, r0
1137:u8glib/u8g_font.c **** 
 3412              		.loc 1 1137 0
 3413 0012 0146     		mov	r1, r0
 3414 0014 3046     		mov	r0, r6
 3415              	.LVL474:
 3416 0016 FFF7FEFF 		bl	u8g_GetGlyph
 3417              	.LVL475:
1145:u8glib/u8g_font.c ****   for(;;)
 3418              		.loc 1 1145 0
 3419 001a 96F91D50 		ldrsb	r5, [r6, #29]
 3420 001e 6D42     		negs	r5, r5
 3421 0020 EDB2     		uxtb	r5, r5
 3422              	.LVL476:
 3423              	.L223:
1150:u8glib/u8g_font.c ****     if ( get_char(s) == '\0' )
 3424              		.loc 1 1150 0
 3425 0022 0134     		adds	r4, r4, #1
 3426              	.LVL477:
1151:u8glib/u8g_font.c ****       break;
 3427              		.loc 1 1151 0
 3428 0024 2046     		mov	r0, r4
 3429 0026 B847     		blx	r7
 3430              	.LVL478:
 3431 0028 58B1     		cbz	r0, .L222
1155:u8glib/u8g_font.c ****     
 3432              		.loc 1 1155 0
 3433 002a 96F91C30 		ldrsb	r3, [r6, #28]
 3434 002e 1D44     		add	r5, r5, r3
 3435              	.LVL479:
 3436 0030 EDB2     		uxtb	r5, r5
 3437              	.LVL480:
1158:u8glib/u8g_font.c ****     
 3438              		.loc 1 1158 0
 3439 0032 2046     		mov	r0, r4
 3440 0034 B847     		blx	r7
 3441              	.LVL481:
 3442 0036 8046     		mov	r8, r0
 3443              	.LVL482:
1161:u8glib/u8g_font.c ****   }
 3444              		.loc 1 1161 0
 3445 0038 0146     		mov	r1, r0
ARM GAS  C:\Users\master\AppData\Local\Temp\cc4icg2r.s 			page 90


 3446 003a 3046     		mov	r0, r6
 3447              	.LVL483:
 3448 003c FFF7FEFF 		bl	u8g_GetGlyph
 3449              	.LVL484:
1162:u8glib/u8g_font.c ****   
 3450              		.loc 1 1162 0
 3451 0040 EFE7     		b	.L223
 3452              	.LVL485:
 3453              	.L222:
1166:u8glib/u8g_font.c ****   {
 3454              		.loc 1 1166 0
 3455 0042 B8F1200F 		cmp	r8, #32
 3456 0046 08D0     		beq	.L224
1169:u8glib/u8g_font.c ****     w += u8g->glyph_x;
 3457              		.loc 1 1169 0
 3458 0048 F07F     		ldrb	r0, [r6, #31]	@ zero_extendqisi2
 3459 004a 0544     		add	r5, r5, r0
 3460              	.LVL486:
1170:u8glib/u8g_font.c ****   }
 3461              		.loc 1 1170 0
 3462 004c 96F91D00 		ldrsb	r0, [r6, #29]
 3463 0050 50FA85F0 		uxtab	r0, r0, r5
 3464 0054 C0B2     		uxtb	r0, r0
 3465              	.LVL487:
 3466 0056 BDE8F081 		pop	{r4, r5, r6, r7, r8, pc}
 3467              	.LVL488:
 3468              	.L224:
1174:u8glib/u8g_font.c ****   }
 3469              		.loc 1 1174 0
 3470 005a 96F91C00 		ldrsb	r0, [r6, #28]
 3471 005e 2844     		add	r0, r0, r5
 3472 0060 C0B2     		uxtb	r0, r0
 3473              	.LVL489:
 3474 0062 BDE8F081 		pop	{r4, r5, r6, r7, r8, pc}
 3475              	.LVL490:
 3476              	.L225:
1132:u8glib/u8g_font.c ****   }
 3477              		.loc 1 1132 0
 3478 0066 0020     		movs	r0, #0
 3479              	.LVL491:
1179:u8glib/u8g_font.c **** 
 3480              		.loc 1 1179 0
 3481 0068 BDE8F081 		pop	{r4, r5, r6, r7, r8, pc}
 3482              		.cfi_endproc
 3483              	.LFE64:
 3485              		.section	.text.u8g_GetStrPixelWidth,"ax",%progbits
 3486              		.align	2
 3487              		.global	u8g_GetStrPixelWidth
 3488              		.thumb
 3489              		.thumb_func
 3491              	u8g_GetStrPixelWidth:
 3492              	.LFB65:
1182:u8glib/u8g_font.c ****   return u8g_font_calc_str_pixel_width(u8g, s, u8g_font_get_char);
 3493              		.loc 1 1182 0
 3494              		.cfi_startproc
 3495              		@ args = 0, pretend = 0, frame = 0
 3496              		@ frame_needed = 0, uses_anonymous_args = 0
ARM GAS  C:\Users\master\AppData\Local\Temp\cc4icg2r.s 			page 91


 3497              	.LVL492:
 3498 0000 08B5     		push	{r3, lr}
 3499              	.LCFI64:
 3500              		.cfi_def_cfa_offset 8
 3501              		.cfi_offset 3, -8
 3502              		.cfi_offset 14, -4
1183:u8glib/u8g_font.c **** }
 3503              		.loc 1 1183 0
 3504 0002 024A     		ldr	r2, .L229
 3505 0004 FFF7FEFF 		bl	u8g_font_calc_str_pixel_width
 3506              	.LVL493:
1184:u8glib/u8g_font.c **** 
 3507              		.loc 1 1184 0
 3508 0008 08BD     		pop	{r3, pc}
 3509              	.L230:
 3510 000a 00BF     		.align	2
 3511              	.L229:
 3512 000c 00000000 		.word	u8g_font_get_char
 3513              		.cfi_endproc
 3514              	.LFE65:
 3516              		.section	.text.u8g_GetStrPixelWidthP,"ax",%progbits
 3517              		.align	2
 3518              		.global	u8g_GetStrPixelWidthP
 3519              		.thumb
 3520              		.thumb_func
 3522              	u8g_GetStrPixelWidthP:
 3523              	.LFB66:
1187:u8glib/u8g_font.c ****   return u8g_font_calc_str_pixel_width(u8g, (const char *)s, u8g_font_get_charP);
 3524              		.loc 1 1187 0
 3525              		.cfi_startproc
 3526              		@ args = 0, pretend = 0, frame = 0
 3527              		@ frame_needed = 0, uses_anonymous_args = 0
 3528              	.LVL494:
 3529 0000 08B5     		push	{r3, lr}
 3530              	.LCFI65:
 3531              		.cfi_def_cfa_offset 8
 3532              		.cfi_offset 3, -8
 3533              		.cfi_offset 14, -4
1188:u8glib/u8g_font.c **** }
 3534              		.loc 1 1188 0
 3535 0002 024A     		ldr	r2, .L233
 3536 0004 FFF7FEFF 		bl	u8g_font_calc_str_pixel_width
 3537              	.LVL495:
1189:u8glib/u8g_font.c **** 
 3538              		.loc 1 1189 0
 3539 0008 08BD     		pop	{r3, pc}
 3540              	.L234:
 3541 000a 00BF     		.align	2
 3542              	.L233:
 3543 000c 00000000 		.word	u8g_font_get_charP
 3544              		.cfi_endproc
 3545              	.LFE66:
 3547              		.section	.text.u8g_GetStrX,"ax",%progbits
 3548              		.align	2
 3549              		.global	u8g_GetStrX
 3550              		.thumb
 3551              		.thumb_func
ARM GAS  C:\Users\master\AppData\Local\Temp\cc4icg2r.s 			page 92


 3553              	u8g_GetStrX:
 3554              	.LFB67:
1192:u8glib/u8g_font.c ****   u8g_GetGlyph(u8g, *s);
 3555              		.loc 1 1192 0
 3556              		.cfi_startproc
 3557              		@ args = 0, pretend = 0, frame = 0
 3558              		@ frame_needed = 0, uses_anonymous_args = 0
 3559              	.LVL496:
 3560 0000 10B5     		push	{r4, lr}
 3561              	.LCFI66:
 3562              		.cfi_def_cfa_offset 8
 3563              		.cfi_offset 4, -8
 3564              		.cfi_offset 14, -4
 3565 0002 0446     		mov	r4, r0
1193:u8glib/u8g_font.c ****   return u8g->glyph_x;  
 3566              		.loc 1 1193 0
 3567 0004 0978     		ldrb	r1, [r1]	@ zero_extendqisi2
 3568              	.LVL497:
 3569 0006 FFF7FEFF 		bl	u8g_GetGlyph
 3570              	.LVL498:
1195:u8glib/u8g_font.c **** 
 3571              		.loc 1 1195 0
 3572 000a 94F91D00 		ldrsb	r0, [r4, #29]
 3573 000e 10BD     		pop	{r4, pc}
 3574              		.cfi_endproc
 3575              	.LFE67:
 3577              		.section	.text.u8g_GetStrXP,"ax",%progbits
 3578              		.align	2
 3579              		.global	u8g_GetStrXP
 3580              		.thumb
 3581              		.thumb_func
 3583              	u8g_GetStrXP:
 3584              	.LFB68:
1198:u8glib/u8g_font.c ****   u8g_GetGlyph(u8g, u8g_pgm_read(s));
 3585              		.loc 1 1198 0
 3586              		.cfi_startproc
 3587              		@ args = 0, pretend = 0, frame = 0
 3588              		@ frame_needed = 0, uses_anonymous_args = 0
 3589              	.LVL499:
 3590 0000 10B5     		push	{r4, lr}
 3591              	.LCFI67:
 3592              		.cfi_def_cfa_offset 8
 3593              		.cfi_offset 4, -8
 3594              		.cfi_offset 14, -4
 3595 0002 0446     		mov	r4, r0
1199:u8glib/u8g_font.c ****   return u8g->glyph_x;  
 3596              		.loc 1 1199 0
 3597 0004 0978     		ldrb	r1, [r1]	@ zero_extendqisi2
 3598              	.LVL500:
 3599 0006 FFF7FEFF 		bl	u8g_GetGlyph
 3600              	.LVL501:
1201:u8glib/u8g_font.c **** 
 3601              		.loc 1 1201 0
 3602 000a 94F91D00 		ldrsb	r0, [r4, #29]
 3603 000e 10BD     		pop	{r4, pc}
 3604              		.cfi_endproc
 3605              	.LFE68:
ARM GAS  C:\Users\master\AppData\Local\Temp\cc4icg2r.s 			page 93


 3607              		.section	.text.u8g_GetStrWidth,"ax",%progbits
 3608              		.align	2
 3609              		.global	u8g_GetStrWidth
 3610              		.thumb
 3611              		.thumb_func
 3613              	u8g_GetStrWidth:
 3614              	.LFB69:
1207:u8glib/u8g_font.c ****   u8g_uint_t  w;
 3615              		.loc 1 1207 0
 3616              		.cfi_startproc
 3617              		@ args = 0, pretend = 0, frame = 0
 3618              		@ frame_needed = 0, uses_anonymous_args = 0
 3619              	.LVL502:
 3620 0000 70B5     		push	{r4, r5, r6, lr}
 3621              	.LCFI68:
 3622              		.cfi_def_cfa_offset 16
 3623              		.cfi_offset 4, -16
 3624              		.cfi_offset 5, -12
 3625              		.cfi_offset 6, -8
 3626              		.cfi_offset 14, -4
 3627 0002 0646     		mov	r6, r0
 3628 0004 0D46     		mov	r5, r1
 3629              	.LVL503:
1212:u8glib/u8g_font.c ****   
 3630              		.loc 1 1212 0
 3631 0006 0024     		movs	r4, #0
 3632              	.LVL504:
 3633              	.L241:
1216:u8glib/u8g_font.c ****     if ( encoding == 0 )
 3634              		.loc 1 1216 0
 3635 0008 2978     		ldrb	r1, [r5]	@ zero_extendqisi2
 3636              	.LVL505:
1217:u8glib/u8g_font.c ****       break;
 3637              		.loc 1 1217 0
 3638 000a 41B1     		cbz	r1, .L240
1221:u8glib/u8g_font.c ****     w += u8g->glyph_dx;    
 3639              		.loc 1 1221 0
 3640 000c 3046     		mov	r0, r6
 3641 000e FFF7FEFF 		bl	u8g_GetGlyph
 3642              	.LVL506:
1222:u8glib/u8g_font.c ****     
 3643              		.loc 1 1222 0
 3644 0012 96F91C30 		ldrsb	r3, [r6, #28]
 3645 0016 1C44     		add	r4, r4, r3
 3646              	.LVL507:
 3647 0018 E4B2     		uxtb	r4, r4
 3648              	.LVL508:
1225:u8glib/u8g_font.c ****   }
 3649              		.loc 1 1225 0
 3650 001a 0135     		adds	r5, r5, #1
 3651              	.LVL509:
1226:u8glib/u8g_font.c ****   
 3652              		.loc 1 1226 0
 3653 001c F4E7     		b	.L241
 3654              	.LVL510:
 3655              	.L240:
1229:u8glib/u8g_font.c **** 
ARM GAS  C:\Users\master\AppData\Local\Temp\cc4icg2r.s 			page 94


 3656              		.loc 1 1229 0
 3657 001e 2046     		mov	r0, r4
 3658 0020 70BD     		pop	{r4, r5, r6, pc}
 3659              		.cfi_endproc
 3660              	.LFE69:
 3662 0022 00BF     		.section	.text.u8g_GetStrWidthP,"ax",%progbits
 3663              		.align	2
 3664              		.global	u8g_GetStrWidthP
 3665              		.thumb
 3666              		.thumb_func
 3668              	u8g_GetStrWidthP:
 3669              	.LFB70:
1233:u8glib/u8g_font.c ****   u8g_uint_t  w;
 3670              		.loc 1 1233 0
 3671              		.cfi_startproc
 3672              		@ args = 0, pretend = 0, frame = 0
 3673              		@ frame_needed = 0, uses_anonymous_args = 0
 3674              	.LVL511:
 3675 0000 70B5     		push	{r4, r5, r6, lr}
 3676              	.LCFI69:
 3677              		.cfi_def_cfa_offset 16
 3678              		.cfi_offset 4, -16
 3679              		.cfi_offset 5, -12
 3680              		.cfi_offset 6, -8
 3681              		.cfi_offset 14, -4
 3682 0002 0646     		mov	r6, r0
 3683 0004 0D46     		mov	r5, r1
 3684              	.LVL512:
1238:u8glib/u8g_font.c ****   
 3685              		.loc 1 1238 0
 3686 0006 0024     		movs	r4, #0
 3687              	.LVL513:
 3688              	.L245:
1242:u8glib/u8g_font.c ****     if ( encoding == 0 )
 3689              		.loc 1 1242 0
 3690 0008 2978     		ldrb	r1, [r5]	@ zero_extendqisi2
 3691              	.LVL514:
1243:u8glib/u8g_font.c ****       break;
 3692              		.loc 1 1243 0
 3693 000a 41B1     		cbz	r1, .L244
1247:u8glib/u8g_font.c ****     w += u8g->glyph_dx;    
 3694              		.loc 1 1247 0
 3695 000c 3046     		mov	r0, r6
 3696 000e FFF7FEFF 		bl	u8g_GetGlyph
 3697              	.LVL515:
1248:u8glib/u8g_font.c ****     
 3698              		.loc 1 1248 0
 3699 0012 96F91C30 		ldrsb	r3, [r6, #28]
 3700 0016 1C44     		add	r4, r4, r3
 3701              	.LVL516:
 3702 0018 E4B2     		uxtb	r4, r4
 3703              	.LVL517:
1251:u8glib/u8g_font.c ****   }
 3704              		.loc 1 1251 0
 3705 001a 0135     		adds	r5, r5, #1
 3706              	.LVL518:
1252:u8glib/u8g_font.c ****   
ARM GAS  C:\Users\master\AppData\Local\Temp\cc4icg2r.s 			page 95


 3707              		.loc 1 1252 0
 3708 001c F4E7     		b	.L245
 3709              	.LVL519:
 3710              	.L244:
1255:u8glib/u8g_font.c **** 
 3711              		.loc 1 1255 0
 3712 001e 2046     		mov	r0, r4
 3713 0020 70BD     		pop	{r4, r5, r6, pc}
 3714              		.cfi_endproc
 3715              	.LFE70:
 3717 0022 00BF     		.section	.text.u8g_font_box_min,"ax",%progbits
 3718              		.align	2
 3719              		.global	u8g_font_box_min
 3720              		.thumb
 3721              		.thumb_func
 3723              	u8g_font_box_min:
 3724              	.LFB72:
1356:u8glib/u8g_font.c ****   u8g_font_calc_str_min_box(u8g, s, buf);
 3725              		.loc 1 1356 0
 3726              		.cfi_startproc
 3727              		@ args = 0, pretend = 0, frame = 0
 3728              		@ frame_needed = 0, uses_anonymous_args = 0
 3729              	.LVL520:
 3730 0000 08B5     		push	{r3, lr}
 3731              	.LCFI70:
 3732              		.cfi_def_cfa_offset 8
 3733              		.cfi_offset 3, -8
 3734              		.cfi_offset 14, -4
1357:u8glib/u8g_font.c **** }
 3735              		.loc 1 1357 0
 3736 0002 FFF7FEFF 		bl	u8g_font_calc_str_min_box
 3737              	.LVL521:
 3738 0006 08BD     		pop	{r3, pc}
 3739              		.cfi_endproc
 3740              	.LFE72:
 3742              		.section	.text.u8g_font_box_left_gA,"ax",%progbits
 3743              		.align	2
 3744              		.global	u8g_font_box_left_gA
 3745              		.thumb
 3746              		.thumb_func
 3748              	u8g_font_box_left_gA:
 3749              	.LFB73:
1362:u8glib/u8g_font.c ****   
 3750              		.loc 1 1362 0
 3751              		.cfi_startproc
 3752              		@ args = 0, pretend = 0, frame = 0
 3753              		@ frame_needed = 0, uses_anonymous_args = 0
 3754              		@ link register save eliminated.
 3755              	.LVL522:
 3756 0000 7047     		bx	lr
 3757              		.cfi_endproc
 3758              	.LFE73:
 3760 0002 00BF     		.section	.text.u8g_font_box_all_gA,"ax",%progbits
 3761              		.align	2
 3762              		.global	u8g_font_box_all_gA
 3763              		.thumb
 3764              		.thumb_func
ARM GAS  C:\Users\master\AppData\Local\Temp\cc4icg2r.s 			page 96


 3766              	u8g_font_box_all_gA:
 3767              	.LFB74:
1368:u8glib/u8g_font.c ****   
 3768              		.loc 1 1368 0
 3769              		.cfi_startproc
 3770              		@ args = 0, pretend = 0, frame = 0
 3771              		@ frame_needed = 0, uses_anonymous_args = 0
 3772              		@ link register save eliminated.
 3773              	.LVL523:
 3774 0000 7047     		bx	lr
 3775              		.cfi_endproc
 3776              	.LFE74:
 3778 0002 00BF     		.section	.text.u8g_GetStrMinBox,"ax",%progbits
 3779              		.align	2
 3780              		.global	u8g_GetStrMinBox
 3781              		.thumb
 3782              		.thumb_func
 3784              	u8g_GetStrMinBox:
 3785              	.LFB76:
1389:u8glib/u8g_font.c **** }
1390:u8glib/u8g_font.c **** 
1391:u8glib/u8g_font.c **** 
1392:u8glib/u8g_font.c **** void u8g_GetStrMinBox(u8g_t *u8g, const char *s, u8g_uint_t *x, u8g_uint_t *y, u8g_uint_t *width, u
1393:u8glib/u8g_font.c **** {
 3786              		.loc 1 1393 0
 3787              		.cfi_startproc
 3788              		@ args = 8, pretend = 0, frame = 8
 3789              		@ frame_needed = 0, uses_anonymous_args = 0
 3790              	.LVL524:
 3791              		.loc 1 1393 0
 3792 0000 F0B5     		push	{r4, r5, r6, r7, lr}
 3793              	.LCFI71:
 3794              		.cfi_def_cfa_offset 20
 3795              		.cfi_offset 4, -20
 3796              		.cfi_offset 5, -16
 3797              		.cfi_offset 6, -12
 3798              		.cfi_offset 7, -8
 3799              		.cfi_offset 14, -4
 3800 0002 87B0     		sub	sp, sp, #28
 3801              	.LCFI72:
 3802              		.cfi_def_cfa_offset 48
1394:u8glib/u8g_font.c ****   u8g_str_size_t buf;
1395:u8glib/u8g_font.c ****   
1396:u8glib/u8g_font.c ****   if ( *s == '\0' )
 3803              		.loc 1 1396 0
 3804 0004 0C78     		ldrb	r4, [r1]	@ zero_extendqisi2
 3805 0006 2CB9     		cbnz	r4, .L252
1397:u8glib/u8g_font.c ****   {
1398:u8glib/u8g_font.c ****     *width= 0;
 3806              		.loc 1 1398 0
 3807 0008 0023     		movs	r3, #0
 3808              	.LVL525:
 3809 000a 0C9A     		ldr	r2, [sp, #48]
 3810              	.LVL526:
 3811 000c 1370     		strb	r3, [r2]
1399:u8glib/u8g_font.c ****     *height = 0;
 3812              		.loc 1 1399 0
ARM GAS  C:\Users\master\AppData\Local\Temp\cc4icg2r.s 			page 97


 3813 000e 0D9A     		ldr	r2, [sp, #52]
 3814 0010 1370     		strb	r3, [r2]
 3815 0012 11E0     		b	.L251
 3816              	.LVL527:
 3817              	.L252:
 3818 0014 1F46     		mov	r7, r3
 3819 0016 1646     		mov	r6, r2
 3820 0018 0C46     		mov	r4, r1
 3821 001a 0546     		mov	r5, r0
1400:u8glib/u8g_font.c ****     return;
1401:u8glib/u8g_font.c ****   }
1402:u8glib/u8g_font.c ****   
1403:u8glib/u8g_font.c ****   u8g_font_calc_str_min_box(u8g, s, &buf);
 3822              		.loc 1 1403 0
 3823 001c 04AA     		add	r2, sp, #16
 3824              	.LVL528:
 3825 001e FFF7FEFF 		bl	u8g_font_calc_str_min_box
 3826              	.LVL529:
1404:u8glib/u8g_font.c ****   u8g_font_get_str_box_fill_args(u8g, s, &buf, x, y, width, height);
 3827              		.loc 1 1404 0
 3828 0022 0D9B     		ldr	r3, [sp, #52]
 3829 0024 0293     		str	r3, [sp, #8]
 3830 0026 0C9B     		ldr	r3, [sp, #48]
 3831 0028 0193     		str	r3, [sp, #4]
 3832 002a 0097     		str	r7, [sp]
 3833 002c 3346     		mov	r3, r6
 3834 002e 04AA     		add	r2, sp, #16
 3835 0030 2146     		mov	r1, r4
 3836 0032 2846     		mov	r0, r5
 3837 0034 FFF7FEFF 		bl	u8g_font_get_str_box_fill_args
 3838              	.LVL530:
 3839              	.L251:
1405:u8glib/u8g_font.c **** }
 3840              		.loc 1 1405 0
 3841 0038 07B0     		add	sp, sp, #28
 3842              	.LCFI73:
 3843              		.cfi_def_cfa_offset 20
 3844              		@ sp needed
 3845 003a F0BD     		pop	{r4, r5, r6, r7, pc}
 3846              		.cfi_endproc
 3847              	.LFE76:
 3849              		.section	.text.u8g_GetStrAMinBox,"ax",%progbits
 3850              		.align	2
 3851              		.global	u8g_GetStrAMinBox
 3852              		.thumb
 3853              		.thumb_func
 3855              	u8g_GetStrAMinBox:
 3856              	.LFB77:
1406:u8glib/u8g_font.c **** 
1407:u8glib/u8g_font.c **** 
1408:u8glib/u8g_font.c **** void u8g_GetStrAMinBox(u8g_t *u8g, const char *s, u8g_uint_t *x, u8g_uint_t *y, u8g_uint_t *width, 
1409:u8glib/u8g_font.c **** {
 3857              		.loc 1 1409 0
 3858              		.cfi_startproc
 3859              		@ args = 8, pretend = 0, frame = 8
 3860              		@ frame_needed = 0, uses_anonymous_args = 0
 3861              	.LVL531:
ARM GAS  C:\Users\master\AppData\Local\Temp\cc4icg2r.s 			page 98


 3862 0000 2DE9F041 		push	{r4, r5, r6, r7, r8, lr}
 3863              	.LCFI74:
 3864              		.cfi_def_cfa_offset 24
 3865              		.cfi_offset 4, -24
 3866              		.cfi_offset 5, -20
 3867              		.cfi_offset 6, -16
 3868              		.cfi_offset 7, -12
 3869              		.cfi_offset 8, -8
 3870              		.cfi_offset 14, -4
 3871 0004 86B0     		sub	sp, sp, #24
 3872              	.LCFI75:
 3873              		.cfi_def_cfa_offset 48
1410:u8glib/u8g_font.c ****   u8g_str_size_t buf;
1411:u8glib/u8g_font.c ****   uint8_t cap_a;
1412:u8glib/u8g_font.c ****   
1413:u8glib/u8g_font.c ****   if ( *s == '\0' )
 3874              		.loc 1 1413 0
 3875 0006 0C78     		ldrb	r4, [r1]	@ zero_extendqisi2
 3876 0008 2CB9     		cbnz	r4, .L256
1414:u8glib/u8g_font.c ****   {
1415:u8glib/u8g_font.c ****     *width= 0;
 3877              		.loc 1 1415 0
 3878 000a 0023     		movs	r3, #0
 3879              	.LVL532:
 3880 000c 0C9A     		ldr	r2, [sp, #48]
 3881              	.LVL533:
 3882 000e 1370     		strb	r3, [r2]
1416:u8glib/u8g_font.c ****     *height = 0;
 3883              		.loc 1 1416 0
 3884 0010 0D9A     		ldr	r2, [sp, #52]
 3885 0012 1370     		strb	r3, [r2]
 3886 0014 1DE0     		b	.L255
 3887              	.LVL534:
 3888              	.L256:
 3889 0016 1F46     		mov	r7, r3
 3890 0018 1646     		mov	r6, r2
 3891 001a 0C46     		mov	r4, r1
 3892 001c 0546     		mov	r5, r0
1417:u8glib/u8g_font.c ****     return;
1418:u8glib/u8g_font.c ****   }
1419:u8glib/u8g_font.c ****   
1420:u8glib/u8g_font.c ****   cap_a = u8g_font_GetCapitalAHeight(u8g->font);
 3893              		.loc 1 1420 0
 3894 001e 8068     		ldr	r0, [r0, #8]
 3895              	.LVL535:
 3896 0020 FFF7FEFF 		bl	u8g_font_GetCapitalAHeight
 3897              	.LVL536:
 3898 0024 8046     		mov	r8, r0
 3899              	.LVL537:
1421:u8glib/u8g_font.c ****   u8g_font_calc_str_min_box(u8g, s, &buf);
 3900              		.loc 1 1421 0
 3901 0026 04AA     		add	r2, sp, #16
 3902 0028 2146     		mov	r1, r4
 3903 002a 2846     		mov	r0, r5
 3904 002c FFF7FEFF 		bl	u8g_font_calc_str_min_box
 3905              	.LVL538:
1422:u8glib/u8g_font.c ****   if ( buf.y_max < cap_a )
ARM GAS  C:\Users\master\AppData\Local\Temp\cc4icg2r.s 			page 99


 3906              		.loc 1 1422 0
 3907 0030 9DF91130 		ldrsb	r3, [sp, #17]
 3908 0034 4345     		cmp	r3, r8
 3909 0036 01DA     		bge	.L258
1423:u8glib/u8g_font.c ****     buf.y_max = cap_a;
 3910              		.loc 1 1423 0
 3911 0038 8DF81180 		strb	r8, [sp, #17]
 3912              	.L258:
1424:u8glib/u8g_font.c ****   u8g_font_get_str_box_fill_args(u8g, s, &buf, x, y, width, height);
 3913              		.loc 1 1424 0
 3914 003c 0D9B     		ldr	r3, [sp, #52]
 3915 003e 0293     		str	r3, [sp, #8]
 3916 0040 0C9B     		ldr	r3, [sp, #48]
 3917 0042 0193     		str	r3, [sp, #4]
 3918 0044 0097     		str	r7, [sp]
 3919 0046 3346     		mov	r3, r6
 3920 0048 04AA     		add	r2, sp, #16
 3921 004a 2146     		mov	r1, r4
 3922 004c 2846     		mov	r0, r5
 3923 004e FFF7FEFF 		bl	u8g_font_get_str_box_fill_args
 3924              	.LVL539:
 3925              	.L255:
1425:u8glib/u8g_font.c **** }
 3926              		.loc 1 1425 0
 3927 0052 06B0     		add	sp, sp, #24
 3928              	.LCFI76:
 3929              		.cfi_def_cfa_offset 24
 3930              		@ sp needed
 3931 0054 BDE8F081 		pop	{r4, r5, r6, r7, r8, pc}
 3932              		.cfi_endproc
 3933              	.LFE77:
 3935              		.section	.text.u8g_SetFont,"ax",%progbits
 3936              		.align	2
 3937              		.global	u8g_SetFont
 3938              		.thumb
 3939              		.thumb_func
 3941              	u8g_SetFont:
 3942              	.LFB78:
1426:u8glib/u8g_font.c **** 
1427:u8glib/u8g_font.c **** void u8g_SetFont(u8g_t *u8g, const u8g_fntpgm_uint8_t  *font)
1428:u8glib/u8g_font.c **** {
 3943              		.loc 1 1428 0
 3944              		.cfi_startproc
 3945              		@ args = 0, pretend = 0, frame = 0
 3946              		@ frame_needed = 0, uses_anonymous_args = 0
 3947              	.LVL540:
1429:u8glib/u8g_font.c ****   if ( u8g->font != font )
 3948              		.loc 1 1429 0
 3949 0000 8368     		ldr	r3, [r0, #8]
 3950 0002 8B42     		cmp	r3, r1
 3951 0004 08D0     		beq	.L263
1428:u8glib/u8g_font.c ****   if ( u8g->font != font )
 3952              		.loc 1 1428 0
 3953 0006 10B5     		push	{r4, lr}
 3954              	.LCFI77:
 3955              		.cfi_def_cfa_offset 8
 3956              		.cfi_offset 4, -8
ARM GAS  C:\Users\master\AppData\Local\Temp\cc4icg2r.s 			page 100


 3957              		.cfi_offset 14, -4
 3958 0008 0446     		mov	r4, r0
1430:u8glib/u8g_font.c ****   {
1431:u8glib/u8g_font.c ****     u8g->font = font;
 3959              		.loc 1 1431 0
 3960 000a 8160     		str	r1, [r0, #8]
1432:u8glib/u8g_font.c ****     u8g_UpdateRefHeight(u8g);
 3961              		.loc 1 1432 0
 3962 000c FFF7FEFF 		bl	u8g_UpdateRefHeight
 3963              	.LVL541:
1433:u8glib/u8g_font.c ****     u8g_SetFontPosBaseline(u8g);
 3964              		.loc 1 1433 0
 3965 0010 2046     		mov	r0, r4
 3966 0012 FFF7FEFF 		bl	u8g_SetFontPosBaseline
 3967              	.LVL542:
 3968 0016 10BD     		pop	{r4, pc}
 3969              	.LVL543:
 3970              	.L263:
 3971              	.LCFI78:
 3972              		.cfi_def_cfa_offset 0
 3973              		.cfi_restore 4
 3974              		.cfi_restore 14
 3975 0018 7047     		bx	lr
 3976              		.cfi_endproc
 3977              	.LFE78:
 3979 001a 00BF     		.section	.text.u8g_draw_aa_glyph,"ax",%progbits
 3980              		.align	2
 3981              		.global	u8g_draw_aa_glyph
 3982              		.thumb
 3983              		.thumb_func
 3985              	u8g_draw_aa_glyph:
 3986              	.LFB79:
1434:u8glib/u8g_font.c ****   }
1435:u8glib/u8g_font.c **** }
1436:u8glib/u8g_font.c **** 
1437:u8glib/u8g_font.c **** /*========================================================================*/
1438:u8glib/u8g_font.c **** /* anti aliasing fonts */
1439:u8glib/u8g_font.c **** 
1440:u8glib/u8g_font.c **** int8_t u8g_draw_aa_glyph(u8g_t *u8g, u8g_uint_t x, u8g_uint_t y, uint8_t encoding)
1441:u8glib/u8g_font.c **** {
 3987              		.loc 1 1441 0
 3988              		.cfi_startproc
 3989              		@ args = 0, pretend = 0, frame = 8
 3990              		@ frame_needed = 0, uses_anonymous_args = 0
 3991              	.LVL544:
 3992 0000 2DE9F04F 		push	{r4, r5, r6, r7, r8, r9, r10, fp, lr}
 3993              	.LCFI79:
 3994              		.cfi_def_cfa_offset 36
 3995              		.cfi_offset 4, -36
 3996              		.cfi_offset 5, -32
 3997              		.cfi_offset 6, -28
 3998              		.cfi_offset 7, -24
 3999              		.cfi_offset 8, -20
 4000              		.cfi_offset 9, -16
 4001              		.cfi_offset 10, -12
 4002              		.cfi_offset 11, -8
 4003              		.cfi_offset 14, -4
ARM GAS  C:\Users\master\AppData\Local\Temp\cc4icg2r.s 			page 101


 4004 0004 85B0     		sub	sp, sp, #20
 4005              	.LCFI80:
 4006              		.cfi_def_cfa_offset 56
 4007 0006 8146     		mov	r9, r0
 4008 0008 0F46     		mov	r7, r1
 4009 000a 1446     		mov	r4, r2
 4010              	.LBB10:
1442:u8glib/u8g_font.c ****   const u8g_pgm_uint8_t *data;
1443:u8glib/u8g_font.c ****   uint8_t w, h;
1444:u8glib/u8g_font.c ****   uint8_t i, j;
1445:u8glib/u8g_font.c ****   u8g_uint_t ix, iy;
1446:u8glib/u8g_font.c **** 
1447:u8glib/u8g_font.c ****   {
1448:u8glib/u8g_font.c ****     u8g_glyph_t g = u8g_GetGlyph(u8g, encoding);
 4011              		.loc 1 1448 0
 4012 000c 1946     		mov	r1, r3
 4013              	.LVL545:
 4014 000e FFF7FEFF 		bl	u8g_GetGlyph
 4015              	.LVL546:
1449:u8glib/u8g_font.c ****     if ( g == NULL  )
 4016              		.loc 1 1449 0
 4017 0012 0028     		cmp	r0, #0
 4018 0014 47D0     		beq	.L270
 4019 0016 0146     		mov	r1, r0
1450:u8glib/u8g_font.c ****       return 0;
1451:u8glib/u8g_font.c ****     data = u8g_font_GetGlyphDataStart(u8g->font, g);
 4020              		.loc 1 1451 0
 4021 0018 D9F80800 		ldr	r0, [r9, #8]
 4022              	.LVL547:
 4023 001c FFF7FEFF 		bl	u8g_font_GetGlyphDataStart
 4024              	.LVL548:
 4025 0020 0646     		mov	r6, r0
 4026              	.LVL549:
 4027              	.LBE10:
1452:u8glib/u8g_font.c ****   }
1453:u8glib/u8g_font.c ****   
1454:u8glib/u8g_font.c ****   w = u8g->glyph_width;
 4028              		.loc 1 1454 0
 4029 0022 99F81F50 		ldrb	r5, [r9, #31]	@ zero_extendqisi2
 4030              	.LVL550:
1455:u8glib/u8g_font.c ****   h = u8g->glyph_height;
 4031              		.loc 1 1455 0
 4032 0026 99F820B0 		ldrb	fp, [r9, #32]	@ zero_extendqisi2
 4033              	.LVL551:
1456:u8glib/u8g_font.c ****   
1457:u8glib/u8g_font.c ****   x += u8g->glyph_x;
 4034              		.loc 1 1457 0
 4035 002a 99F91D30 		ldrsb	r3, [r9, #29]
 4036 002e 3B44     		add	r3, r3, r7
 4037 0030 DBB2     		uxtb	r3, r3
 4038 0032 1946     		mov	r1, r3
 4039 0034 0393     		str	r3, [sp, #12]
 4040              	.LVL552:
1458:u8glib/u8g_font.c ****   y -= u8g->glyph_y;
 4041              		.loc 1 1458 0
 4042 0036 99F91E70 		ldrsb	r7, [r9, #30]
 4043 003a E71B     		subs	r7, r4, r7
ARM GAS  C:\Users\master\AppData\Local\Temp\cc4icg2r.s 			page 102


 4044 003c FFB2     		uxtb	r7, r7
 4045              	.LVL553:
1459:u8glib/u8g_font.c ****   y--;
 4046              		.loc 1 1459 0
 4047 003e 013F     		subs	r7, r7, #1
 4048              	.LVL554:
 4049 0040 FFB2     		uxtb	r7, r7
 4050              	.LVL555:
1460:u8glib/u8g_font.c ****   
1461:u8glib/u8g_font.c ****   if ( u8g_IsBBXIntersection(u8g, x, y-h+1, w, h) == 0 )
 4051              		.loc 1 1461 0
 4052 0042 CBEB0707 		rsb	r7, fp, r7
 4053              	.LVL556:
 4054 0046 0137     		adds	r7, r7, #1
 4055 0048 FFB2     		uxtb	r7, r7
 4056 004a CDF800B0 		str	fp, [sp]
 4057              	.LVL557:
 4058 004e 2B46     		mov	r3, r5
 4059 0050 3A46     		mov	r2, r7
 4060 0052 4846     		mov	r0, r9
 4061              	.LVL558:
 4062 0054 FFF7FEFF 		bl	u8g_IsBBXIntersection
 4063              	.LVL559:
 4064 0058 10B9     		cbnz	r0, .L266
1462:u8glib/u8g_font.c ****     return u8g->glyph_dx;
 4065              		.loc 1 1462 0
 4066 005a 99F91C00 		ldrsb	r0, [r9, #28]
 4067 005e 23E0     		b	.L265
 4068              	.L266:
1463:u8glib/u8g_font.c **** 
1464:u8glib/u8g_font.c ****   /* now, w is reused as bytes per line */
1465:u8glib/u8g_font.c ****   w += 3;
 4069              		.loc 1 1465 0
 4070 0060 0335     		adds	r5, r5, #3
 4071              	.LVL560:
1466:u8glib/u8g_font.c ****   w /= 4;
 4072              		.loc 1 1466 0
 4073 0062 C5F38508 		ubfx	r8, r5, #2, #6
 4074              	.LVL561:
1467:u8glib/u8g_font.c ****   
1468:u8glib/u8g_font.c ****   iy = y;
1469:u8glib/u8g_font.c ****   iy -= h;
1470:u8glib/u8g_font.c ****   iy++;
1471:u8glib/u8g_font.c **** 
1472:u8glib/u8g_font.c ****   for( j = 0; j < h; j++ )
 4075              		.loc 1 1472 0
 4076 0066 4FF0000A 		mov	r10, #0
 4077 006a 17E0     		b	.L267
 4078              	.LVL562:
 4079              	.L268:
1473:u8glib/u8g_font.c ****   {
1474:u8glib/u8g_font.c ****     ix = x;
1475:u8glib/u8g_font.c ****     for( i = 0; i < w; i++ )
1476:u8glib/u8g_font.c ****     {
1477:u8glib/u8g_font.c ****       u8g_Draw4TPixel(u8g, ix, iy, 0, u8g_pgm_read(data));
 4080              		.loc 1 1477 0 discriminator 3
 4081 006c 16F8013B 		ldrb	r3, [r6], #1	@ zero_extendqisi2
ARM GAS  C:\Users\master\AppData\Local\Temp\cc4icg2r.s 			page 103


 4082              	.LVL563:
 4083 0070 0093     		str	r3, [sp]
 4084 0072 0023     		movs	r3, #0
 4085 0074 3A46     		mov	r2, r7
 4086 0076 2946     		mov	r1, r5
 4087 0078 4846     		mov	r0, r9
 4088 007a FFF7FEFF 		bl	u8g_Draw4TPixel
 4089              	.LVL564:
1478:u8glib/u8g_font.c ****       data++;
1479:u8glib/u8g_font.c ****       ix+=4;
 4090              		.loc 1 1479 0 discriminator 3
 4091 007e 0435     		adds	r5, r5, #4
 4092              	.LVL565:
 4093 0080 EDB2     		uxtb	r5, r5
 4094              	.LVL566:
1475:u8glib/u8g_font.c ****     {
 4095              		.loc 1 1475 0 discriminator 3
 4096 0082 0134     		adds	r4, r4, #1
 4097              	.LVL567:
 4098 0084 E4B2     		uxtb	r4, r4
 4099              	.LVL568:
 4100 0086 01E0     		b	.L269
 4101              	.LVL569:
 4102              	.L271:
 4103 0088 039D     		ldr	r5, [sp, #12]
 4104 008a 0024     		movs	r4, #0
 4105              	.L269:
 4106              	.LVL570:
1475:u8glib/u8g_font.c ****     {
 4107              		.loc 1 1475 0 is_stmt 0 discriminator 1
 4108 008c 4445     		cmp	r4, r8
 4109 008e EDD3     		bcc	.L268
1480:u8glib/u8g_font.c ****     }
1481:u8glib/u8g_font.c ****     iy++;
 4110              		.loc 1 1481 0 is_stmt 1 discriminator 2
 4111 0090 0137     		adds	r7, r7, #1
 4112              	.LVL571:
 4113 0092 FFB2     		uxtb	r7, r7
 4114              	.LVL572:
1472:u8glib/u8g_font.c ****   {
 4115              		.loc 1 1472 0 discriminator 2
 4116 0094 0AF1010A 		add	r10, r10, #1
 4117              	.LVL573:
 4118 0098 5FFA8AFA 		uxtb	r10, r10
 4119              	.LVL574:
 4120              	.L267:
1472:u8glib/u8g_font.c ****   {
 4121              		.loc 1 1472 0 is_stmt 0 discriminator 1
 4122 009c DA45     		cmp	r10, fp
 4123 009e F3D3     		bcc	.L271
1482:u8glib/u8g_font.c ****   }
1483:u8glib/u8g_font.c ****   return u8g->glyph_dx;
 4124              		.loc 1 1483 0 is_stmt 1
 4125 00a0 99F91C00 		ldrsb	r0, [r9, #28]
 4126 00a4 00E0     		b	.L265
 4127              	.LVL575:
 4128              	.L270:
ARM GAS  C:\Users\master\AppData\Local\Temp\cc4icg2r.s 			page 104


 4129              	.LBB11:
1450:u8glib/u8g_font.c ****     data = u8g_font_GetGlyphDataStart(u8g->font, g);
 4130              		.loc 1 1450 0
 4131 00a6 0020     		movs	r0, #0
 4132              	.LVL576:
 4133              	.L265:
 4134              	.LBE11:
1484:u8glib/u8g_font.c **** }
 4135              		.loc 1 1484 0
 4136 00a8 05B0     		add	sp, sp, #20
 4137              	.LCFI81:
 4138              		.cfi_def_cfa_offset 36
 4139              		@ sp needed
 4140 00aa BDE8F08F 		pop	{r4, r5, r6, r7, r8, r9, r10, fp, pc}
 4141              		.cfi_endproc
 4142              	.LFE79:
 4144 00ae 00BF     		.section	.text.u8g_DrawAAGlyph,"ax",%progbits
 4145              		.align	2
 4146              		.global	u8g_DrawAAGlyph
 4147              		.thumb
 4148              		.thumb_func
 4150              	u8g_DrawAAGlyph:
 4151              	.LFB80:
1485:u8glib/u8g_font.c **** 
1486:u8glib/u8g_font.c **** int8_t u8g_DrawAAGlyph(u8g_t *u8g, u8g_uint_t x, u8g_uint_t y, uint8_t encoding)
1487:u8glib/u8g_font.c **** {
 4152              		.loc 1 1487 0
 4153              		.cfi_startproc
 4154              		@ args = 0, pretend = 0, frame = 0
 4155              		@ frame_needed = 0, uses_anonymous_args = 0
 4156              	.LVL577:
 4157 0000 F8B5     		push	{r3, r4, r5, r6, r7, lr}
 4158              	.LCFI82:
 4159              		.cfi_def_cfa_offset 24
 4160              		.cfi_offset 3, -24
 4161              		.cfi_offset 4, -20
 4162              		.cfi_offset 5, -16
 4163              		.cfi_offset 6, -12
 4164              		.cfi_offset 7, -8
 4165              		.cfi_offset 14, -4
 4166 0002 0546     		mov	r5, r0
 4167 0004 0E46     		mov	r6, r1
 4168 0006 1446     		mov	r4, r2
 4169 0008 1F46     		mov	r7, r3
1488:u8glib/u8g_font.c ****   y += u8g->font_calc_vref(u8g);
 4170              		.loc 1 1488 0
 4171 000a 436A     		ldr	r3, [r0, #36]
 4172              	.LVL578:
 4173 000c 9847     		blx	r3
 4174              	.LVL579:
 4175 000e 0219     		adds	r2, r0, r4
 4176              	.LVL580:
1489:u8glib/u8g_font.c ****   return u8g_draw_aa_glyph(u8g, x, y, encoding);
 4177              		.loc 1 1489 0
 4178 0010 3B46     		mov	r3, r7
 4179 0012 D2B2     		uxtb	r2, r2
 4180 0014 3146     		mov	r1, r6
ARM GAS  C:\Users\master\AppData\Local\Temp\cc4icg2r.s 			page 105


 4181 0016 2846     		mov	r0, r5
 4182 0018 FFF7FEFF 		bl	u8g_draw_aa_glyph
