ARM GAS  C:\Users\master\AppData\Local\Temp\ccibMyKc.s 			page 1


   1              		.syntax unified
   2              		.cpu cortex-m4
   3              		.eabi_attribute 27, 1
   4              		.eabi_attribute 28, 1
   5              		.fpu fpv4-sp-d16
   6              		.eabi_attribute 20, 1
   7              		.eabi_attribute 21, 1
   8              		.eabi_attribute 23, 3
   9              		.eabi_attribute 24, 1
  10              		.eabi_attribute 25, 1
  11              		.eabi_attribute 26, 1
  12              		.eabi_attribute 30, 1
  13              		.eabi_attribute 34, 1
  14              		.eabi_attribute 18, 4
  15              		.thumb
  16              		.syntax unified
  17              		.file	"u8g_bitmap.c"
  18              		.text
  19              	.Ltext0:
  20              		.cfi_sections	.debug_frame
  21              		.section	.text.u8g_DrawHXBM,"ax",%progbits
  22              		.align	2
  23              		.thumb
  24              		.thumb_func
  26              	u8g_DrawHXBM:
  27              	.LFB4:
  28              		.file 1 "u8glib/u8g_bitmap.c"
   1:u8glib/u8g_bitmap.c **** /*
   2:u8glib/u8g_bitmap.c **** 
   3:u8glib/u8g_bitmap.c ****   u8g_bitmap.c
   4:u8glib/u8g_bitmap.c **** 
   5:u8glib/u8g_bitmap.c ****   Universal 8bit Graphics Library
   6:u8glib/u8g_bitmap.c ****   
   7:u8glib/u8g_bitmap.c ****   Copyright (c) 2011, olikraus@gmail.com
   8:u8glib/u8g_bitmap.c ****   All rights reserved.
   9:u8glib/u8g_bitmap.c **** 
  10:u8glib/u8g_bitmap.c ****   Redistribution and use in source and binary forms, with or without modification, 
  11:u8glib/u8g_bitmap.c ****   are permitted provided that the following conditions are met:
  12:u8glib/u8g_bitmap.c **** 
  13:u8glib/u8g_bitmap.c ****   * Redistributions of source code must retain the above copyright notice, this list 
  14:u8glib/u8g_bitmap.c ****     of conditions and the following disclaimer.
  15:u8glib/u8g_bitmap.c ****     
  16:u8glib/u8g_bitmap.c ****   * Redistributions in binary form must reproduce the above copyright notice, this 
  17:u8glib/u8g_bitmap.c ****     list of conditions and the following disclaimer in the documentation and/or other 
  18:u8glib/u8g_bitmap.c ****     materials provided with the distribution.
  19:u8glib/u8g_bitmap.c **** 
  20:u8glib/u8g_bitmap.c ****   THIS SOFTWARE IS PROVIDED BY THE COPYRIGHT HOLDERS AND 
  21:u8glib/u8g_bitmap.c ****   CONTRIBUTORS "AS IS" AND ANY EXPRESS OR IMPLIED WARRANTIES, 
  22:u8glib/u8g_bitmap.c ****   INCLUDING, BUT NOT LIMITED TO, THE IMPLIED WARRANTIES OF 
  23:u8glib/u8g_bitmap.c ****   MERCHANTABILITY AND FITNESS FOR A PARTICULAR PURPOSE ARE 
  24:u8glib/u8g_bitmap.c ****   DISCLAIMED. IN NO EVENT SHALL THE COPYRIGHT HOLDER OR 
  25:u8glib/u8g_bitmap.c ****   CONTRIBUTORS BE LIABLE FOR ANY DIRECT, INDIRECT, INCIDENTAL, 
  26:u8glib/u8g_bitmap.c ****   SPECIAL, EXEMPLARY, OR CONSEQUENTIAL DAMAGES (INCLUDING, BUT 
  27:u8glib/u8g_bitmap.c ****   NOT LIMITED TO, PROCUREMENT OF SUBSTITUTE GOODS OR SERVICES; 
  28:u8glib/u8g_bitmap.c ****   LOSS OF USE, DATA, OR PROFITS; OR BUSINESS INTERRUPTION) HOWEVER 
  29:u8glib/u8g_bitmap.c ****   CAUSED AND ON ANY THEORY OF LIABILITY, WHETHER IN CONTRACT, 
  30:u8glib/u8g_bitmap.c ****   STRICT LIABILITY, OR TORT (INCLUDING NEGLIGENCE OR OTHERWISE) 
ARM GAS  C:\Users\master\AppData\Local\Temp\ccibMyKc.s 			page 2


  31:u8glib/u8g_bitmap.c ****   ARISING IN ANY WAY OUT OF THE USE OF THIS SOFTWARE, EVEN IF 
  32:u8glib/u8g_bitmap.c ****   ADVISED OF THE POSSIBILITY OF SUCH DAMAGE.  
  33:u8glib/u8g_bitmap.c ****   
  34:u8glib/u8g_bitmap.c **** 
  35:u8glib/u8g_bitmap.c **** */
  36:u8glib/u8g_bitmap.c **** 
  37:u8glib/u8g_bitmap.c **** #include "u8g.h"
  38:u8glib/u8g_bitmap.c **** 
  39:u8glib/u8g_bitmap.c **** void u8g_DrawHBitmap(u8g_t *u8g, u8g_uint_t x, u8g_uint_t y, u8g_uint_t cnt, const uint8_t *bitmap)
  40:u8glib/u8g_bitmap.c **** {
  41:u8glib/u8g_bitmap.c ****   while( cnt > 0 )
  42:u8glib/u8g_bitmap.c ****   {
  43:u8glib/u8g_bitmap.c ****     u8g_Draw8Pixel(u8g, x, y, 0, *bitmap);
  44:u8glib/u8g_bitmap.c ****     bitmap++;
  45:u8glib/u8g_bitmap.c ****     cnt--;
  46:u8glib/u8g_bitmap.c ****     x+=8;
  47:u8glib/u8g_bitmap.c ****   }
  48:u8glib/u8g_bitmap.c **** }
  49:u8glib/u8g_bitmap.c **** 
  50:u8glib/u8g_bitmap.c **** void u8g_DrawBitmap(u8g_t *u8g, u8g_uint_t x, u8g_uint_t y, u8g_uint_t cnt, u8g_uint_t h, const uin
  51:u8glib/u8g_bitmap.c **** {
  52:u8glib/u8g_bitmap.c ****   if ( u8g_IsBBXIntersection(u8g, x, y, cnt*8, h) == 0 )
  53:u8glib/u8g_bitmap.c ****     return;
  54:u8glib/u8g_bitmap.c ****   while( h > 0 )
  55:u8glib/u8g_bitmap.c ****   {
  56:u8glib/u8g_bitmap.c ****     u8g_DrawHBitmap(u8g, x, y, cnt, bitmap);
  57:u8glib/u8g_bitmap.c ****     bitmap += cnt;
  58:u8glib/u8g_bitmap.c ****     y++;
  59:u8glib/u8g_bitmap.c ****     h--;
  60:u8glib/u8g_bitmap.c ****   }
  61:u8glib/u8g_bitmap.c **** }
  62:u8glib/u8g_bitmap.c **** 
  63:u8glib/u8g_bitmap.c **** 
  64:u8glib/u8g_bitmap.c **** void u8g_DrawHBitmapP(u8g_t *u8g, u8g_uint_t x, u8g_uint_t y, u8g_uint_t cnt, const u8g_pgm_uint8_t
  65:u8glib/u8g_bitmap.c **** {
  66:u8glib/u8g_bitmap.c ****   while( cnt > 0 )
  67:u8glib/u8g_bitmap.c ****   {
  68:u8glib/u8g_bitmap.c ****     u8g_Draw8Pixel(u8g, x, y, 0, u8g_pgm_read(bitmap));
  69:u8glib/u8g_bitmap.c ****     bitmap++;
  70:u8glib/u8g_bitmap.c ****     cnt--;
  71:u8glib/u8g_bitmap.c ****     x+=8;
  72:u8glib/u8g_bitmap.c ****   }
  73:u8glib/u8g_bitmap.c **** }
  74:u8glib/u8g_bitmap.c **** 
  75:u8glib/u8g_bitmap.c **** void u8g_DrawBitmapP(u8g_t *u8g, u8g_uint_t x, u8g_uint_t y, u8g_uint_t cnt, u8g_uint_t h, const u8
  76:u8glib/u8g_bitmap.c **** {
  77:u8glib/u8g_bitmap.c ****   if ( u8g_IsBBXIntersection(u8g, x, y, cnt*8, h) == 0 )
  78:u8glib/u8g_bitmap.c ****     return;
  79:u8glib/u8g_bitmap.c ****   while( h > 0 )
  80:u8glib/u8g_bitmap.c ****   {
  81:u8glib/u8g_bitmap.c ****     u8g_DrawHBitmapP(u8g, x, y, cnt, bitmap);
  82:u8glib/u8g_bitmap.c ****     bitmap += cnt;
  83:u8glib/u8g_bitmap.c ****     y++;
  84:u8glib/u8g_bitmap.c ****     h--;
  85:u8glib/u8g_bitmap.c ****   }
  86:u8glib/u8g_bitmap.c **** }
  87:u8glib/u8g_bitmap.c **** 
ARM GAS  C:\Users\master\AppData\Local\Temp\ccibMyKc.s 			page 3


  88:u8glib/u8g_bitmap.c **** /*=========================================================================*/
  89:u8glib/u8g_bitmap.c **** 
  90:u8glib/u8g_bitmap.c **** static void u8g_DrawHXBM(u8g_t *u8g, u8g_uint_t x, u8g_uint_t y, u8g_uint_t w, const uint8_t *bitma
  91:u8glib/u8g_bitmap.c **** {
  29              		.loc 1 91 0
  30              		.cfi_startproc
  31              		@ args = 4, pretend = 0, frame = 0
  32              		@ frame_needed = 0, uses_anonymous_args = 0
  33              	.LVL0:
  34 0000 2DE9F041 		push	{r4, r5, r6, r7, r8, lr}
  35              	.LCFI0:
  36              		.cfi_def_cfa_offset 24
  37              		.cfi_offset 4, -24
  38              		.cfi_offset 5, -20
  39              		.cfi_offset 6, -16
  40              		.cfi_offset 7, -12
  41              		.cfi_offset 8, -8
  42              		.cfi_offset 14, -4
  43 0004 82B0     		sub	sp, sp, #8
  44              	.LCFI1:
  45              		.cfi_def_cfa_offset 32
  46 0006 0646     		mov	r6, r0
  47 0008 1746     		mov	r7, r2
  48 000a 1C46     		mov	r4, r3
  49 000c DDF82080 		ldr	r8, [sp, #32]
  92:u8glib/u8g_bitmap.c ****   uint8_t d;
  93:u8glib/u8g_bitmap.c ****   x+=7;
  50              		.loc 1 93 0
  51 0010 0731     		adds	r1, r1, #7
  52              	.LVL1:
  53 0012 CDB2     		uxtb	r5, r1
  54              	.LVL2:
  94:u8glib/u8g_bitmap.c ****   while( w >= 8 )
  55              		.loc 1 94 0
  56 0014 0CE0     		b	.L2
  57              	.LVL3:
  58              	.L3:
  95:u8glib/u8g_bitmap.c ****   {
  96:u8glib/u8g_bitmap.c ****     u8g_Draw8Pixel(u8g, x, y, 2, *bitmap);
  59              		.loc 1 96 0
  60 0016 18F8013B 		ldrb	r3, [r8], #1	@ zero_extendqisi2
  61              	.LVL4:
  62 001a 0093     		str	r3, [sp]
  63 001c 0223     		movs	r3, #2
  64 001e 3A46     		mov	r2, r7
  65 0020 2946     		mov	r1, r5
  66 0022 3046     		mov	r0, r6
  67 0024 FFF7FEFF 		bl	u8g_Draw8Pixel
  68              	.LVL5:
  97:u8glib/u8g_bitmap.c ****     bitmap++;
  98:u8glib/u8g_bitmap.c ****     w-= 8;
  69              		.loc 1 98 0
  70 0028 083C     		subs	r4, r4, #8
  71              	.LVL6:
  72 002a E4B2     		uxtb	r4, r4
  73              	.LVL7:
  99:u8glib/u8g_bitmap.c ****     x+=8;
ARM GAS  C:\Users\master\AppData\Local\Temp\ccibMyKc.s 			page 4


  74              		.loc 1 99 0
  75 002c 0835     		adds	r5, r5, #8
  76              	.LVL8:
  77 002e EDB2     		uxtb	r5, r5
  78              	.LVL9:
  79              	.L2:
  94:u8glib/u8g_bitmap.c ****   {
  80              		.loc 1 94 0
  81 0030 072C     		cmp	r4, #7
  82 0032 F0D8     		bhi	.L3
 100:u8glib/u8g_bitmap.c ****   }
 101:u8glib/u8g_bitmap.c ****   if ( w > 0 )
  83              		.loc 1 101 0
  84 0034 9CB1     		cbz	r4, .L1
 102:u8glib/u8g_bitmap.c ****   {
 103:u8glib/u8g_bitmap.c ****     d = *bitmap;
  85              		.loc 1 103 0
  86 0036 98F80080 		ldrb	r8, [r8]	@ zero_extendqisi2
  87              	.LVL10:
 104:u8glib/u8g_bitmap.c ****     x -= 7;
  88              		.loc 1 104 0
  89 003a 073D     		subs	r5, r5, #7
  90              	.LVL11:
  91 003c EDB2     		uxtb	r5, r5
  92              	.LVL12:
  93              	.L6:
 105:u8glib/u8g_bitmap.c ****     do
 106:u8glib/u8g_bitmap.c ****     {
 107:u8glib/u8g_bitmap.c ****       if ( d & 1 )
  94              		.loc 1 107 0
  95 003e 18F0010F 		tst	r8, #1
  96 0042 04D0     		beq	.L5
 108:u8glib/u8g_bitmap.c ****         u8g_DrawPixel(u8g, x, y);
  97              		.loc 1 108 0
  98 0044 3A46     		mov	r2, r7
  99 0046 2946     		mov	r1, r5
 100 0048 3046     		mov	r0, r6
 101 004a FFF7FEFF 		bl	u8g_DrawPixel
 102              	.LVL13:
 103              	.L5:
 109:u8glib/u8g_bitmap.c ****       x++;
 104              		.loc 1 109 0
 105 004e 0135     		adds	r5, r5, #1
 106              	.LVL14:
 107 0050 EDB2     		uxtb	r5, r5
 108              	.LVL15:
 110:u8glib/u8g_bitmap.c ****       w--;
 109              		.loc 1 110 0
 110 0052 013C     		subs	r4, r4, #1
 111              	.LVL16:
 111:u8glib/u8g_bitmap.c ****       d >>= 1;      
 112              		.loc 1 111 0
 113 0054 4FEA5808 		lsr	r8, r8, #1
 114              	.LVL17:
 112:u8glib/u8g_bitmap.c ****     } while ( w > 0 );
 115              		.loc 1 112 0
 116 0058 14F0FF04 		ands	r4, r4, #255
ARM GAS  C:\Users\master\AppData\Local\Temp\ccibMyKc.s 			page 5


 117              	.LVL18:
 118 005c EFD1     		bne	.L6
 119              	.LVL19:
 120              	.L1:
 113:u8glib/u8g_bitmap.c ****   }
 114:u8glib/u8g_bitmap.c **** }
 121              		.loc 1 114 0
 122 005e 02B0     		add	sp, sp, #8
 123              	.LCFI2:
 124              		.cfi_def_cfa_offset 24
 125              		@ sp needed
 126 0060 BDE8F081 		pop	{r4, r5, r6, r7, r8, pc}
 127              		.cfi_endproc
 128              	.LFE4:
 130              		.section	.text.u8g_DrawHXBMP,"ax",%progbits
 131              		.align	2
 132              		.thumb
 133              		.thumb_func
 135              	u8g_DrawHXBMP:
 136              	.LFB6:
 115:u8glib/u8g_bitmap.c **** 
 116:u8glib/u8g_bitmap.c **** void u8g_DrawXBM(u8g_t *u8g, u8g_uint_t x, u8g_uint_t y, u8g_uint_t w, u8g_uint_t h, const uint8_t 
 117:u8glib/u8g_bitmap.c **** {
 118:u8glib/u8g_bitmap.c ****   u8g_uint_t b;
 119:u8glib/u8g_bitmap.c ****   b = w;
 120:u8glib/u8g_bitmap.c ****   b += 7;
 121:u8glib/u8g_bitmap.c ****   b >>= 3;
 122:u8glib/u8g_bitmap.c ****   
 123:u8glib/u8g_bitmap.c ****   if ( u8g_IsBBXIntersection(u8g, x, y, w, h) == 0 )
 124:u8glib/u8g_bitmap.c ****     return;
 125:u8glib/u8g_bitmap.c ****   
 126:u8glib/u8g_bitmap.c ****   while( h > 0 )
 127:u8glib/u8g_bitmap.c ****   {
 128:u8glib/u8g_bitmap.c ****     u8g_DrawHXBM(u8g, x, y, w, bitmap);
 129:u8glib/u8g_bitmap.c ****     bitmap += b;
 130:u8glib/u8g_bitmap.c ****     y++;
 131:u8glib/u8g_bitmap.c ****     h--;
 132:u8glib/u8g_bitmap.c ****   }
 133:u8glib/u8g_bitmap.c **** }
 134:u8glib/u8g_bitmap.c **** 
 135:u8glib/u8g_bitmap.c **** static void u8g_DrawHXBMP(u8g_t *u8g, u8g_uint_t x, u8g_uint_t y, u8g_uint_t w, const u8g_pgm_uint8
 136:u8glib/u8g_bitmap.c **** {
 137              		.loc 1 136 0
 138              		.cfi_startproc
 139              		@ args = 4, pretend = 0, frame = 0
 140              		@ frame_needed = 0, uses_anonymous_args = 0
 141              	.LVL20:
 142 0000 2DE9F041 		push	{r4, r5, r6, r7, r8, lr}
 143              	.LCFI3:
 144              		.cfi_def_cfa_offset 24
 145              		.cfi_offset 4, -24
 146              		.cfi_offset 5, -20
 147              		.cfi_offset 6, -16
 148              		.cfi_offset 7, -12
 149              		.cfi_offset 8, -8
 150              		.cfi_offset 14, -4
 151 0004 82B0     		sub	sp, sp, #8
ARM GAS  C:\Users\master\AppData\Local\Temp\ccibMyKc.s 			page 6


 152              	.LCFI4:
 153              		.cfi_def_cfa_offset 32
 154 0006 0646     		mov	r6, r0
 155 0008 1746     		mov	r7, r2
 156 000a 1C46     		mov	r4, r3
 157 000c DDF82080 		ldr	r8, [sp, #32]
 137:u8glib/u8g_bitmap.c ****   uint8_t d;
 138:u8glib/u8g_bitmap.c ****   x+=7;
 158              		.loc 1 138 0
 159 0010 0731     		adds	r1, r1, #7
 160              	.LVL21:
 161 0012 CDB2     		uxtb	r5, r1
 162              	.LVL22:
 139:u8glib/u8g_bitmap.c ****   while( w >= 8 )
 163              		.loc 1 139 0
 164 0014 0CE0     		b	.L9
 165              	.LVL23:
 166              	.L10:
 140:u8glib/u8g_bitmap.c ****   {
 141:u8glib/u8g_bitmap.c ****     u8g_Draw8Pixel(u8g, x, y, 2, u8g_pgm_read(bitmap));
 167              		.loc 1 141 0
 168 0016 18F8013B 		ldrb	r3, [r8], #1	@ zero_extendqisi2
 169              	.LVL24:
 170 001a 0093     		str	r3, [sp]
 171 001c 0223     		movs	r3, #2
 172 001e 3A46     		mov	r2, r7
 173 0020 2946     		mov	r1, r5
 174 0022 3046     		mov	r0, r6
 175 0024 FFF7FEFF 		bl	u8g_Draw8Pixel
 176              	.LVL25:
 142:u8glib/u8g_bitmap.c ****     bitmap++;
 143:u8glib/u8g_bitmap.c ****     w-= 8;
 177              		.loc 1 143 0
 178 0028 083C     		subs	r4, r4, #8
 179              	.LVL26:
 180 002a E4B2     		uxtb	r4, r4
 181              	.LVL27:
 144:u8glib/u8g_bitmap.c ****     x+=8;
 182              		.loc 1 144 0
 183 002c 0835     		adds	r5, r5, #8
 184              	.LVL28:
 185 002e EDB2     		uxtb	r5, r5
 186              	.LVL29:
 187              	.L9:
 139:u8glib/u8g_bitmap.c ****   {
 188              		.loc 1 139 0
 189 0030 072C     		cmp	r4, #7
 190 0032 F0D8     		bhi	.L10
 145:u8glib/u8g_bitmap.c ****   }
 146:u8glib/u8g_bitmap.c ****   if ( w > 0 )
 191              		.loc 1 146 0
 192 0034 9CB1     		cbz	r4, .L8
 147:u8glib/u8g_bitmap.c ****   {
 148:u8glib/u8g_bitmap.c ****     d = u8g_pgm_read(bitmap);
 193              		.loc 1 148 0
 194 0036 98F80080 		ldrb	r8, [r8]	@ zero_extendqisi2
 195              	.LVL30:
ARM GAS  C:\Users\master\AppData\Local\Temp\ccibMyKc.s 			page 7


 149:u8glib/u8g_bitmap.c ****     x -= 7;
 196              		.loc 1 149 0
 197 003a 073D     		subs	r5, r5, #7
 198              	.LVL31:
 199 003c EDB2     		uxtb	r5, r5
 200              	.LVL32:
 201              	.L13:
 150:u8glib/u8g_bitmap.c ****     do
 151:u8glib/u8g_bitmap.c ****     {
 152:u8glib/u8g_bitmap.c ****       if ( d & 1 )
 202              		.loc 1 152 0
 203 003e 18F0010F 		tst	r8, #1
 204 0042 04D0     		beq	.L12
 153:u8glib/u8g_bitmap.c ****         u8g_DrawPixel(u8g, x, y);
 205              		.loc 1 153 0
 206 0044 3A46     		mov	r2, r7
 207 0046 2946     		mov	r1, r5
 208 0048 3046     		mov	r0, r6
 209 004a FFF7FEFF 		bl	u8g_DrawPixel
 210              	.LVL33:
 211              	.L12:
 154:u8glib/u8g_bitmap.c ****       x++;
 212              		.loc 1 154 0
 213 004e 0135     		adds	r5, r5, #1
 214              	.LVL34:
 215 0050 EDB2     		uxtb	r5, r5
 216              	.LVL35:
 155:u8glib/u8g_bitmap.c ****       w--;
 217              		.loc 1 155 0
 218 0052 013C     		subs	r4, r4, #1
 219              	.LVL36:
 156:u8glib/u8g_bitmap.c ****       d >>= 1;      
 220              		.loc 1 156 0
 221 0054 4FEA5808 		lsr	r8, r8, #1
 222              	.LVL37:
 157:u8glib/u8g_bitmap.c ****     } while ( w > 0 );
 223              		.loc 1 157 0
 224 0058 14F0FF04 		ands	r4, r4, #255
 225              	.LVL38:
 226 005c EFD1     		bne	.L13
 227              	.LVL39:
 228              	.L8:
 158:u8glib/u8g_bitmap.c ****   }
 159:u8glib/u8g_bitmap.c **** }
 229              		.loc 1 159 0
 230 005e 02B0     		add	sp, sp, #8
 231              	.LCFI5:
 232              		.cfi_def_cfa_offset 24
 233              		@ sp needed
 234 0060 BDE8F081 		pop	{r4, r5, r6, r7, r8, pc}
 235              		.cfi_endproc
 236              	.LFE6:
 238              		.section	.text.u8g_DrawHBitmap,"ax",%progbits
 239              		.align	2
 240              		.global	u8g_DrawHBitmap
 241              		.thumb
 242              		.thumb_func
ARM GAS  C:\Users\master\AppData\Local\Temp\ccibMyKc.s 			page 8


 244              	u8g_DrawHBitmap:
 245              	.LFB0:
  40:u8glib/u8g_bitmap.c ****   while( cnt > 0 )
 246              		.loc 1 40 0
 247              		.cfi_startproc
 248              		@ args = 4, pretend = 0, frame = 0
 249              		@ frame_needed = 0, uses_anonymous_args = 0
 250              	.LVL40:
 251 0000 2DE9F041 		push	{r4, r5, r6, r7, r8, lr}
 252              	.LCFI6:
 253              		.cfi_def_cfa_offset 24
 254              		.cfi_offset 4, -24
 255              		.cfi_offset 5, -20
 256              		.cfi_offset 6, -16
 257              		.cfi_offset 7, -12
 258              		.cfi_offset 8, -8
 259              		.cfi_offset 14, -4
 260 0004 82B0     		sub	sp, sp, #8
 261              	.LCFI7:
 262              		.cfi_def_cfa_offset 32
 263 0006 8046     		mov	r8, r0
 264 0008 0D46     		mov	r5, r1
 265 000a 1746     		mov	r7, r2
 266 000c 1C46     		mov	r4, r3
 267 000e 089E     		ldr	r6, [sp, #32]
  41:u8glib/u8g_bitmap.c ****   {
 268              		.loc 1 41 0
 269 0010 0CE0     		b	.L16
 270              	.LVL41:
 271              	.L17:
  43:u8glib/u8g_bitmap.c ****     bitmap++;
 272              		.loc 1 43 0
 273 0012 16F8013B 		ldrb	r3, [r6], #1	@ zero_extendqisi2
 274              	.LVL42:
 275 0016 0093     		str	r3, [sp]
 276 0018 0023     		movs	r3, #0
 277 001a 3A46     		mov	r2, r7
 278 001c 2946     		mov	r1, r5
 279 001e 4046     		mov	r0, r8
 280 0020 FFF7FEFF 		bl	u8g_Draw8Pixel
 281              	.LVL43:
  45:u8glib/u8g_bitmap.c ****     x+=8;
 282              		.loc 1 45 0
 283 0024 013C     		subs	r4, r4, #1
 284              	.LVL44:
 285 0026 E4B2     		uxtb	r4, r4
 286              	.LVL45:
  46:u8glib/u8g_bitmap.c ****   }
 287              		.loc 1 46 0
 288 0028 0835     		adds	r5, r5, #8
 289              	.LVL46:
 290 002a EDB2     		uxtb	r5, r5
 291              	.LVL47:
 292              	.L16:
  41:u8glib/u8g_bitmap.c ****   {
 293              		.loc 1 41 0
 294 002c 002C     		cmp	r4, #0
ARM GAS  C:\Users\master\AppData\Local\Temp\ccibMyKc.s 			page 9


 295 002e F0D1     		bne	.L17
  48:u8glib/u8g_bitmap.c **** 
 296              		.loc 1 48 0
 297 0030 02B0     		add	sp, sp, #8
 298              	.LCFI8:
 299              		.cfi_def_cfa_offset 24
 300              		@ sp needed
 301 0032 BDE8F081 		pop	{r4, r5, r6, r7, r8, pc}
 302              		.cfi_endproc
 303              	.LFE0:
 305 0036 00BF     		.section	.text.u8g_DrawBitmap,"ax",%progbits
 306              		.align	2
 307              		.global	u8g_DrawBitmap
 308              		.thumb
 309              		.thumb_func
 311              	u8g_DrawBitmap:
 312              	.LFB1:
  51:u8glib/u8g_bitmap.c ****   if ( u8g_IsBBXIntersection(u8g, x, y, cnt*8, h) == 0 )
 313              		.loc 1 51 0
 314              		.cfi_startproc
 315              		@ args = 8, pretend = 0, frame = 0
 316              		@ frame_needed = 0, uses_anonymous_args = 0
 317              	.LVL48:
 318 0000 2DE9F043 		push	{r4, r5, r6, r7, r8, r9, lr}
 319              	.LCFI9:
 320              		.cfi_def_cfa_offset 28
 321              		.cfi_offset 4, -28
 322              		.cfi_offset 5, -24
 323              		.cfi_offset 6, -20
 324              		.cfi_offset 7, -16
 325              		.cfi_offset 8, -12
 326              		.cfi_offset 9, -8
 327              		.cfi_offset 14, -4
 328 0004 83B0     		sub	sp, sp, #12
 329              	.LCFI10:
 330              		.cfi_def_cfa_offset 40
 331 0006 8146     		mov	r9, r0
 332 0008 8846     		mov	r8, r1
 333 000a 1546     		mov	r5, r2
 334 000c 1F46     		mov	r7, r3
 335 000e 9DF82840 		ldrb	r4, [sp, #40]	@ zero_extendqisi2
 336 0012 0B9E     		ldr	r6, [sp, #44]
  52:u8glib/u8g_bitmap.c ****     return;
 337              		.loc 1 52 0
 338 0014 DB00     		lsls	r3, r3, #3
 339              	.LVL49:
 340 0016 0094     		str	r4, [sp]
 341 0018 03F0F803 		and	r3, r3, #248
 342 001c FFF7FEFF 		bl	u8g_IsBBXIntersection
 343              	.LVL50:
 344 0020 60B9     		cbnz	r0, .L21
 345 0022 0DE0     		b	.L19
 346              	.LVL51:
 347              	.L22:
  56:u8glib/u8g_bitmap.c ****     bitmap += cnt;
 348              		.loc 1 56 0
 349 0024 0096     		str	r6, [sp]
ARM GAS  C:\Users\master\AppData\Local\Temp\ccibMyKc.s 			page 10


 350 0026 3B46     		mov	r3, r7
 351 0028 2A46     		mov	r2, r5
 352 002a 4146     		mov	r1, r8
 353 002c 4846     		mov	r0, r9
 354 002e FFF7FEFF 		bl	u8g_DrawHBitmap
 355              	.LVL52:
  57:u8glib/u8g_bitmap.c ****     y++;
 356              		.loc 1 57 0
 357 0032 3E44     		add	r6, r6, r7
 358              	.LVL53:
  58:u8glib/u8g_bitmap.c ****     h--;
 359              		.loc 1 58 0
 360 0034 0135     		adds	r5, r5, #1
 361              	.LVL54:
 362 0036 EDB2     		uxtb	r5, r5
 363              	.LVL55:
  59:u8glib/u8g_bitmap.c ****   }
 364              		.loc 1 59 0
 365 0038 013C     		subs	r4, r4, #1
 366              	.LVL56:
 367 003a E4B2     		uxtb	r4, r4
 368              	.LVL57:
 369              	.L21:
  54:u8glib/u8g_bitmap.c ****   {
 370              		.loc 1 54 0
 371 003c 002C     		cmp	r4, #0
 372 003e F1D1     		bne	.L22
 373              	.LVL58:
 374              	.L19:
  61:u8glib/u8g_bitmap.c **** 
 375              		.loc 1 61 0
 376 0040 03B0     		add	sp, sp, #12
 377              	.LCFI11:
 378              		.cfi_def_cfa_offset 28
 379              		@ sp needed
 380 0042 BDE8F083 		pop	{r4, r5, r6, r7, r8, r9, pc}
 381              		.cfi_endproc
 382              	.LFE1:
 384 0046 00BF     		.section	.text.u8g_DrawHBitmapP,"ax",%progbits
 385              		.align	2
 386              		.global	u8g_DrawHBitmapP
 387              		.thumb
 388              		.thumb_func
 390              	u8g_DrawHBitmapP:
 391              	.LFB2:
  65:u8glib/u8g_bitmap.c ****   while( cnt > 0 )
 392              		.loc 1 65 0
 393              		.cfi_startproc
 394              		@ args = 4, pretend = 0, frame = 0
 395              		@ frame_needed = 0, uses_anonymous_args = 0
 396              	.LVL59:
 397 0000 2DE9F041 		push	{r4, r5, r6, r7, r8, lr}
 398              	.LCFI12:
 399              		.cfi_def_cfa_offset 24
 400              		.cfi_offset 4, -24
 401              		.cfi_offset 5, -20
 402              		.cfi_offset 6, -16
ARM GAS  C:\Users\master\AppData\Local\Temp\ccibMyKc.s 			page 11


 403              		.cfi_offset 7, -12
 404              		.cfi_offset 8, -8
 405              		.cfi_offset 14, -4
 406 0004 82B0     		sub	sp, sp, #8
 407              	.LCFI13:
 408              		.cfi_def_cfa_offset 32
 409 0006 8046     		mov	r8, r0
 410 0008 0D46     		mov	r5, r1
 411 000a 1746     		mov	r7, r2
 412 000c 1C46     		mov	r4, r3
 413 000e 089E     		ldr	r6, [sp, #32]
  66:u8glib/u8g_bitmap.c ****   {
 414              		.loc 1 66 0
 415 0010 0CE0     		b	.L25
 416              	.LVL60:
 417              	.L26:
  68:u8glib/u8g_bitmap.c ****     bitmap++;
 418              		.loc 1 68 0
 419 0012 16F8013B 		ldrb	r3, [r6], #1	@ zero_extendqisi2
 420              	.LVL61:
 421 0016 0093     		str	r3, [sp]
 422 0018 0023     		movs	r3, #0
 423 001a 3A46     		mov	r2, r7
 424 001c 2946     		mov	r1, r5
 425 001e 4046     		mov	r0, r8
 426 0020 FFF7FEFF 		bl	u8g_Draw8Pixel
 427              	.LVL62:
  70:u8glib/u8g_bitmap.c ****     x+=8;
 428              		.loc 1 70 0
 429 0024 013C     		subs	r4, r4, #1
 430              	.LVL63:
 431 0026 E4B2     		uxtb	r4, r4
 432              	.LVL64:
  71:u8glib/u8g_bitmap.c ****   }
 433              		.loc 1 71 0
 434 0028 0835     		adds	r5, r5, #8
 435              	.LVL65:
 436 002a EDB2     		uxtb	r5, r5
 437              	.LVL66:
 438              	.L25:
  66:u8glib/u8g_bitmap.c ****   {
 439              		.loc 1 66 0
 440 002c 002C     		cmp	r4, #0
 441 002e F0D1     		bne	.L26
  73:u8glib/u8g_bitmap.c **** 
 442              		.loc 1 73 0
 443 0030 02B0     		add	sp, sp, #8
 444              	.LCFI14:
 445              		.cfi_def_cfa_offset 24
 446              		@ sp needed
 447 0032 BDE8F081 		pop	{r4, r5, r6, r7, r8, pc}
 448              		.cfi_endproc
 449              	.LFE2:
 451 0036 00BF     		.section	.text.u8g_DrawBitmapP,"ax",%progbits
 452              		.align	2
 453              		.global	u8g_DrawBitmapP
 454              		.thumb
ARM GAS  C:\Users\master\AppData\Local\Temp\ccibMyKc.s 			page 12


 455              		.thumb_func
 457              	u8g_DrawBitmapP:
 458              	.LFB3:
  76:u8glib/u8g_bitmap.c ****   if ( u8g_IsBBXIntersection(u8g, x, y, cnt*8, h) == 0 )
 459              		.loc 1 76 0
 460              		.cfi_startproc
 461              		@ args = 8, pretend = 0, frame = 0
 462              		@ frame_needed = 0, uses_anonymous_args = 0
 463              	.LVL67:
 464 0000 2DE9F043 		push	{r4, r5, r6, r7, r8, r9, lr}
 465              	.LCFI15:
 466              		.cfi_def_cfa_offset 28
 467              		.cfi_offset 4, -28
 468              		.cfi_offset 5, -24
 469              		.cfi_offset 6, -20
 470              		.cfi_offset 7, -16
 471              		.cfi_offset 8, -12
 472              		.cfi_offset 9, -8
 473              		.cfi_offset 14, -4
 474 0004 83B0     		sub	sp, sp, #12
 475              	.LCFI16:
 476              		.cfi_def_cfa_offset 40
 477 0006 8146     		mov	r9, r0
 478 0008 8846     		mov	r8, r1
 479 000a 1546     		mov	r5, r2
 480 000c 1F46     		mov	r7, r3
 481 000e 9DF82840 		ldrb	r4, [sp, #40]	@ zero_extendqisi2
 482 0012 0B9E     		ldr	r6, [sp, #44]
  77:u8glib/u8g_bitmap.c ****     return;
 483              		.loc 1 77 0
 484 0014 DB00     		lsls	r3, r3, #3
 485              	.LVL68:
 486 0016 0094     		str	r4, [sp]
 487 0018 03F0F803 		and	r3, r3, #248
 488 001c FFF7FEFF 		bl	u8g_IsBBXIntersection
 489              	.LVL69:
 490 0020 60B9     		cbnz	r0, .L30
 491 0022 0DE0     		b	.L28
 492              	.LVL70:
 493              	.L31:
  81:u8glib/u8g_bitmap.c ****     bitmap += cnt;
 494              		.loc 1 81 0
 495 0024 0096     		str	r6, [sp]
 496 0026 3B46     		mov	r3, r7
 497 0028 2A46     		mov	r2, r5
 498 002a 4146     		mov	r1, r8
 499 002c 4846     		mov	r0, r9
 500 002e FFF7FEFF 		bl	u8g_DrawHBitmapP
 501              	.LVL71:
  82:u8glib/u8g_bitmap.c ****     y++;
 502              		.loc 1 82 0
 503 0032 3E44     		add	r6, r6, r7
 504              	.LVL72:
  83:u8glib/u8g_bitmap.c ****     h--;
 505              		.loc 1 83 0
 506 0034 0135     		adds	r5, r5, #1
 507              	.LVL73:
ARM GAS  C:\Users\master\AppData\Local\Temp\ccibMyKc.s 			page 13


 508 0036 EDB2     		uxtb	r5, r5
 509              	.LVL74:
  84:u8glib/u8g_bitmap.c ****   }
 510              		.loc 1 84 0
 511 0038 013C     		subs	r4, r4, #1
 512              	.LVL75:
 513 003a E4B2     		uxtb	r4, r4
 514              	.LVL76:
 515              	.L30:
  79:u8glib/u8g_bitmap.c ****   {
 516              		.loc 1 79 0
 517 003c 002C     		cmp	r4, #0
 518 003e F1D1     		bne	.L31
 519              	.LVL77:
 520              	.L28:
  86:u8glib/u8g_bitmap.c **** 
 521              		.loc 1 86 0
 522 0040 03B0     		add	sp, sp, #12
 523              	.LCFI17:
 524              		.cfi_def_cfa_offset 28
 525              		@ sp needed
 526 0042 BDE8F083 		pop	{r4, r5, r6, r7, r8, r9, pc}
 527              		.cfi_endproc
 528              	.LFE3:
 530 0046 00BF     		.section	.text.u8g_DrawXBM,"ax",%progbits
 531              		.align	2
 532              		.global	u8g_DrawXBM
 533              		.thumb
 534              		.thumb_func
 536              	u8g_DrawXBM:
 537              	.LFB5:
 117:u8glib/u8g_bitmap.c ****   u8g_uint_t b;
 538              		.loc 1 117 0
 539              		.cfi_startproc
 540              		@ args = 8, pretend = 0, frame = 0
 541              		@ frame_needed = 0, uses_anonymous_args = 0
 542              	.LVL78:
 543 0000 2DE9F047 		push	{r4, r5, r6, r7, r8, r9, r10, lr}
 544              	.LCFI18:
 545              		.cfi_def_cfa_offset 32
 546              		.cfi_offset 4, -32
 547              		.cfi_offset 5, -28
 548              		.cfi_offset 6, -24
 549              		.cfi_offset 7, -20
 550              		.cfi_offset 8, -16
 551              		.cfi_offset 9, -12
 552              		.cfi_offset 10, -8
 553              		.cfi_offset 14, -4
 554 0004 82B0     		sub	sp, sp, #8
 555              	.LCFI19:
 556              		.cfi_def_cfa_offset 40
 557 0006 8246     		mov	r10, r0
 558 0008 8946     		mov	r9, r1
 559 000a 1546     		mov	r5, r2
 560 000c 9846     		mov	r8, r3
 561 000e 9DF82840 		ldrb	r4, [sp, #40]	@ zero_extendqisi2
 562 0012 0B9E     		ldr	r6, [sp, #44]
ARM GAS  C:\Users\master\AppData\Local\Temp\ccibMyKc.s 			page 14


 563              	.LVL79:
 120:u8glib/u8g_bitmap.c ****   b >>= 3;
 564              		.loc 1 120 0
 565 0014 DF1D     		adds	r7, r3, #7
 566              	.LVL80:
 121:u8glib/u8g_bitmap.c ****   
 567              		.loc 1 121 0
 568 0016 C7F3C407 		ubfx	r7, r7, #3, #5
 569              	.LVL81:
 123:u8glib/u8g_bitmap.c ****     return;
 570              		.loc 1 123 0
 571 001a 0094     		str	r4, [sp]
 572 001c FFF7FEFF 		bl	u8g_IsBBXIntersection
 573              	.LVL82:
 574 0020 60B9     		cbnz	r0, .L35
 575 0022 0DE0     		b	.L33
 576              	.LVL83:
 577              	.L36:
 128:u8glib/u8g_bitmap.c ****     bitmap += b;
 578              		.loc 1 128 0
 579 0024 0096     		str	r6, [sp]
 580 0026 4346     		mov	r3, r8
 581 0028 2A46     		mov	r2, r5
 582 002a 4946     		mov	r1, r9
 583 002c 5046     		mov	r0, r10
 584 002e FFF7FEFF 		bl	u8g_DrawHXBM
 585              	.LVL84:
 129:u8glib/u8g_bitmap.c ****     y++;
 586              		.loc 1 129 0
 587 0032 3E44     		add	r6, r6, r7
 588              	.LVL85:
 130:u8glib/u8g_bitmap.c ****     h--;
 589              		.loc 1 130 0
 590 0034 0135     		adds	r5, r5, #1
 591              	.LVL86:
 592 0036 EDB2     		uxtb	r5, r5
 593              	.LVL87:
 131:u8glib/u8g_bitmap.c ****   }
 594              		.loc 1 131 0
 595 0038 013C     		subs	r4, r4, #1
 596              	.LVL88:
 597 003a E4B2     		uxtb	r4, r4
 598              	.LVL89:
 599              	.L35:
 126:u8glib/u8g_bitmap.c ****   {
 600              		.loc 1 126 0
 601 003c 002C     		cmp	r4, #0
 602 003e F1D1     		bne	.L36
 603              	.LVL90:
 604              	.L33:
 133:u8glib/u8g_bitmap.c **** 
 605              		.loc 1 133 0
 606 0040 02B0     		add	sp, sp, #8
 607              	.LCFI20:
 608              		.cfi_def_cfa_offset 32
 609              		@ sp needed
 610 0042 BDE8F087 		pop	{r4, r5, r6, r7, r8, r9, r10, pc}
ARM GAS  C:\Users\master\AppData\Local\Temp\ccibMyKc.s 			page 15


 611              		.cfi_endproc
 612              	.LFE5:
 614 0046 00BF     		.section	.text.u8g_DrawXBMP,"ax",%progbits
 615              		.align	2
 616              		.global	u8g_DrawXBMP
 617              		.thumb
 618              		.thumb_func
 620              	u8g_DrawXBMP:
 621              	.LFB7:
 160:u8glib/u8g_bitmap.c **** 
 161:u8glib/u8g_bitmap.c **** void u8g_DrawXBMP(u8g_t *u8g, u8g_uint_t x, u8g_uint_t y, u8g_uint_t w, u8g_uint_t h, const u8g_pgm
 162:u8glib/u8g_bitmap.c **** {
 622              		.loc 1 162 0
 623              		.cfi_startproc
 624              		@ args = 8, pretend = 0, frame = 0
 625              		@ frame_needed = 0, uses_anonymous_args = 0
 626              	.LVL91:
 627 0000 2DE9F047 		push	{r4, r5, r6, r7, r8, r9, r10, lr}
 628              	.LCFI21:
 629              		.cfi_def_cfa_offset 32
 630              		.cfi_offset 4, -32
 631              		.cfi_offset 5, -28
 632              		.cfi_offset 6, -24
 633              		.cfi_offset 7, -20
 634              		.cfi_offset 8, -16
 635              		.cfi_offset 9, -12
 636              		.cfi_offset 10, -8
 637              		.cfi_offset 14, -4
 638 0004 82B0     		sub	sp, sp, #8
 639              	.LCFI22:
 640              		.cfi_def_cfa_offset 40
 641 0006 8246     		mov	r10, r0
 642 0008 8946     		mov	r9, r1
 643 000a 1546     		mov	r5, r2
 644 000c 9846     		mov	r8, r3
 645 000e 9DF82840 		ldrb	r4, [sp, #40]	@ zero_extendqisi2
 646 0012 0B9E     		ldr	r6, [sp, #44]
 647              	.LVL92:
 163:u8glib/u8g_bitmap.c ****   u8g_uint_t b;
 164:u8glib/u8g_bitmap.c ****   b = w;
 165:u8glib/u8g_bitmap.c ****   b += 7;
 648              		.loc 1 165 0
 649 0014 DF1D     		adds	r7, r3, #7
 650              	.LVL93:
 166:u8glib/u8g_bitmap.c ****   b >>= 3;
 651              		.loc 1 166 0
 652 0016 C7F3C407 		ubfx	r7, r7, #3, #5
 653              	.LVL94:
 167:u8glib/u8g_bitmap.c ****   
 168:u8glib/u8g_bitmap.c ****   if ( u8g_IsBBXIntersection(u8g, x, y, w, h) == 0 )
 654              		.loc 1 168 0
 655 001a 0094     		str	r4, [sp]
 656 001c FFF7FEFF 		bl	u8g_IsBBXIntersection
 657              	.LVL95:
 658 0020 60B9     		cbnz	r0, .L40
 659 0022 0DE0     		b	.L38
 660              	.LVL96:
ARM GAS  C:\Users\master\AppData\Local\Temp\ccibMyKc.s 			page 16


 661              	.L41:
 169:u8glib/u8g_bitmap.c ****     return;
 170:u8glib/u8g_bitmap.c ****   while( h > 0 )
 171:u8glib/u8g_bitmap.c ****   {
 172:u8glib/u8g_bitmap.c ****     u8g_DrawHXBMP(u8g, x, y, w, bitmap);
 662              		.loc 1 172 0
 663 0024 0096     		str	r6, [sp]
 664 0026 4346     		mov	r3, r8
 665 0028 2A46     		mov	r2, r5
 666 002a 4946     		mov	r1, r9
 667 002c 5046     		mov	r0, r10
 668 002e FFF7FEFF 		bl	u8g_DrawHXBMP
 669              	.LVL97:
 173:u8glib/u8g_bitmap.c ****     bitmap += b;
 670              		.loc 1 173 0
 671 0032 3E44     		add	r6, r6, r7
 672              	.LVL98:
 174:u8glib/u8g_bitmap.c ****     y++;
 673              		.loc 1 174 0
 674 0034 0135     		adds	r5, r5, #1
 675              	.LVL99:
 676 0036 EDB2     		uxtb	r5, r5
 677              	.LVL100:
 175:u8glib/u8g_bitmap.c ****     h--;
 678              		.loc 1 175 0
 679 0038 013C     		subs	r4, r4, #1
 680              	.LVL101:
 681 003a E4B2     		uxtb	r4, r4
 682              	.LVL102:
 683              	.L40:
 170:u8glib/u8g_bitmap.c ****   {
 684              		.loc 1 170 0
 685 003c 002C     		cmp	r4, #0
 686 003e F1D1     		bne	.L41
 687              	.LVL103:
 688              	.L38:
 176:u8glib/u8g_bitmap.c ****   }
 177:u8glib/u8g_bitmap.c **** }
 689              		.loc 1 177 0
 690 0040 02B0     		add	sp, sp, #8
 691              	.LCFI23:
 692              		.cfi_def_cfa_offset 32
 693              		@ sp needed
 694 0042 BDE8F087 		pop	{r4, r5, r6, r7, r8, r9, r10, pc}
 695              		.cfi_endproc
 696              	.LFE7:
 698 0046 00BF     		.text
 699              	.Letext0:
 700              		.file 2 "c:\\program files (x86)\\gnu tools arm embedded\\5.4 2016q3\\arm-none-eabi\\include\\mach
 701              		.file 3 "c:\\program files (x86)\\gnu tools arm embedded\\5.4 2016q3\\arm-none-eabi\\include\\sys\
 702              		.file 4 "u8glib/u8g.h"
ARM GAS  C:\Users\master\AppData\Local\Temp\ccibMyKc.s 			page 17

