ARM GAS  C:\Users\master\AppData\Local\Temp\cccFc9Wc.s 			page 1


   1              		.syntax unified
   2              		.cpu cortex-m4
   3              		.eabi_attribute 27, 1
   4              		.eabi_attribute 28, 1
   5              		.fpu fpv4-sp-d16
   6              		.eabi_attribute 20, 1
   7              		.eabi_attribute 21, 1
   8              		.eabi_attribute 23, 3
   9              		.eabi_attribute 24, 1
  10              		.eabi_attribute 25, 1
  11              		.eabi_attribute 26, 1
  12              		.eabi_attribute 30, 1
  13              		.eabi_attribute 34, 1
  14              		.eabi_attribute 18, 4
  15              		.thumb
  16              		.syntax unified
  17              		.file	"u8g_polygon.c"
  18              		.text
  19              	.Ltext0:
  20              		.cfi_sections	.debug_frame
  21              		.section	.text.pge_Next,"ax",%progbits
  22              		.align	2
  23              		.thumb
  24              		.thumb_func
  26              	pge_Next:
  27              	.LFB0:
  28              		.file 1 "u8glib/u8g_polygon.c"
   1:u8glib/u8g_polygon.c **** /*
   2:u8glib/u8g_polygon.c **** 
   3:u8glib/u8g_polygon.c ****   u8g_polygon.c
   4:u8glib/u8g_polygon.c **** 
   5:u8glib/u8g_polygon.c ****   Implementation of a polygon draw algorithm for "convex" polygons. 
   6:u8glib/u8g_polygon.c ****  
   7:u8glib/u8g_polygon.c ****   Universal 8bit Graphics Library
   8:u8glib/u8g_polygon.c ****   
   9:u8glib/u8g_polygon.c ****   Copyright (c) 2013, olikraus@gmail.com
  10:u8glib/u8g_polygon.c ****   All rights reserved.
  11:u8glib/u8g_polygon.c **** 
  12:u8glib/u8g_polygon.c ****   Redistribution and use in source and binary forms, with or without modification, 
  13:u8glib/u8g_polygon.c ****   are permitted provided that the following conditions are met:
  14:u8glib/u8g_polygon.c **** 
  15:u8glib/u8g_polygon.c ****   * Redistributions of source code must retain the above copyright notice, this list 
  16:u8glib/u8g_polygon.c ****     of conditions and the following disclaimer.
  17:u8glib/u8g_polygon.c ****     
  18:u8glib/u8g_polygon.c ****   * Redistributions in binary form must reproduce the above copyright notice, this 
  19:u8glib/u8g_polygon.c ****     list of conditions and the following disclaimer in the documentation and/or other 
  20:u8glib/u8g_polygon.c ****     materials provided with the distribution.
  21:u8glib/u8g_polygon.c **** 
  22:u8glib/u8g_polygon.c ****   THIS SOFTWARE IS PROVIDED BY THE COPYRIGHT HOLDERS AND 
  23:u8glib/u8g_polygon.c ****   CONTRIBUTORS "AS IS" AND ANY EXPRESS OR IMPLIED WARRANTIES, 
  24:u8glib/u8g_polygon.c ****   INCLUDING, BUT NOT LIMITED TO, THE IMPLIED WARRANTIES OF 
  25:u8glib/u8g_polygon.c ****   MERCHANTABILITY AND FITNESS FOR A PARTICULAR PURPOSE ARE 
  26:u8glib/u8g_polygon.c ****   DISCLAIMED. IN NO EVENT SHALL THE COPYRIGHT HOLDER OR 
  27:u8glib/u8g_polygon.c ****   CONTRIBUTORS BE LIABLE FOR ANY DIRECT, INDIRECT, INCIDENTAL, 
  28:u8glib/u8g_polygon.c ****   SPECIAL, EXEMPLARY, OR CONSEQUENTIAL DAMAGES (INCLUDING, BUT 
  29:u8glib/u8g_polygon.c ****   NOT LIMITED TO, PROCUREMENT OF SUBSTITUTE GOODS OR SERVICES; 
  30:u8glib/u8g_polygon.c ****   LOSS OF USE, DATA, OR PROFITS; OR BUSINESS INTERRUPTION) HOWEVER 
ARM GAS  C:\Users\master\AppData\Local\Temp\cccFc9Wc.s 			page 2


  31:u8glib/u8g_polygon.c ****   CAUSED AND ON ANY THEORY OF LIABILITY, WHETHER IN CONTRACT, 
  32:u8glib/u8g_polygon.c ****   STRICT LIABILITY, OR TORT (INCLUDING NEGLIGENCE OR OTHERWISE) 
  33:u8glib/u8g_polygon.c ****   ARISING IN ANY WAY OUT OF THE USE OF THIS SOFTWARE, EVEN IF 
  34:u8glib/u8g_polygon.c ****   ADVISED OF THE POSSIBILITY OF SUCH DAMAGE.  
  35:u8glib/u8g_polygon.c ****  
  36:u8glib/u8g_polygon.c ****   See also:
  37:u8glib/u8g_polygon.c ****   http://www.angelfire.com/linux/myp/ConvexPolRas/ConvexPolRas.html
  38:u8glib/u8g_polygon.c ****   Computer Graphics, Principles and Practice, Foley, van Dam, Feiner, Hughes (pp 92)
  39:u8glib/u8g_polygon.c ****   Michael Abrash's Graphics Programming Black Book, Special Edition (Chapter 38 and 39)
  40:u8glib/u8g_polygon.c **** 
  41:u8glib/u8g_polygon.c ****   Optimized for embedded systems
  42:u8glib/u8g_polygon.c ****   - static memory usage only
  43:u8glib/u8g_polygon.c ****   - consistent data types
  44:u8glib/u8g_polygon.c ****   - low flash ROM consumption
  45:u8glib/u8g_polygon.c ****   
  46:u8glib/u8g_polygon.c **** */
  47:u8glib/u8g_polygon.c **** 
  48:u8glib/u8g_polygon.c **** 
  49:u8glib/u8g_polygon.c **** #include "u8g.h"
  50:u8glib/u8g_polygon.c **** 
  51:u8glib/u8g_polygon.c **** 
  52:u8glib/u8g_polygon.c **** 
  53:u8glib/u8g_polygon.c **** 
  54:u8glib/u8g_polygon.c **** /*===========================================*/
  55:u8glib/u8g_polygon.c **** /* procedures, which should not be inlined (save as much flash ROM as possible */
  56:u8glib/u8g_polygon.c **** 
  57:u8glib/u8g_polygon.c **** static uint8_t pge_Next(struct pg_edge_struct *pge) PG_NOINLINE;
  58:u8glib/u8g_polygon.c **** static uint8_t pg_inc(pg_struct *pg, uint8_t i) PG_NOINLINE;
  59:u8glib/u8g_polygon.c **** static uint8_t pg_dec(pg_struct *pg, uint8_t i) PG_NOINLINE;
  60:u8glib/u8g_polygon.c **** static void pg_expand_min_y(pg_struct *pg, pg_word_t min_y, uint8_t pge_idx) PG_NOINLINE;
  61:u8glib/u8g_polygon.c **** static void pg_line_init(pg_struct * const pg, uint8_t pge_index) PG_NOINLINE;
  62:u8glib/u8g_polygon.c **** 
  63:u8glib/u8g_polygon.c **** /*===========================================*/
  64:u8glib/u8g_polygon.c **** /* line draw algorithm */
  65:u8glib/u8g_polygon.c **** 
  66:u8glib/u8g_polygon.c **** static uint8_t pge_Next(struct pg_edge_struct *pge)
  67:u8glib/u8g_polygon.c **** {
  29              		.loc 1 67 0
  30              		.cfi_startproc
  31              		@ args = 0, pretend = 0, frame = 0
  32              		@ frame_needed = 0, uses_anonymous_args = 0
  33              		@ link register save eliminated.
  34              	.LVL0:
  68:u8glib/u8g_polygon.c ****   if ( pge->current_y >= pge->max_y )
  35              		.loc 1 68 0
  36 0000 B0F90810 		ldrsh	r1, [r0, #8]
  37 0004 B0F90A30 		ldrsh	r3, [r0, #10]
  38 0008 9942     		cmp	r1, r3
  39 000a 1BDA     		bge	.L4
  67:u8glib/u8g_polygon.c ****   if ( pge->current_y >= pge->max_y )
  40              		.loc 1 67 0
  41 000c 10B4     		push	{r4}
  42              	.LCFI0:
  43              		.cfi_def_cfa_offset 4
  44              		.cfi_offset 4, -4
  69:u8glib/u8g_polygon.c ****     return 0;
  70:u8glib/u8g_polygon.c ****   
ARM GAS  C:\Users\master\AppData\Local\Temp\cccFc9Wc.s 			page 3


  71:u8glib/u8g_polygon.c ****   pge->current_x += pge->current_x_offset;
  45              		.loc 1 71 0
  46 000e B0F90420 		ldrsh	r2, [r0, #4]
  47 0012 8389     		ldrh	r3, [r0, #12]
  48 0014 1A44     		add	r2, r2, r3
  49 0016 92B2     		uxth	r2, r2
  50 0018 8281     		strh	r2, [r0, #12]	@ movhi
  72:u8glib/u8g_polygon.c ****   pge->error += pge->error_offset;
  51              		.loc 1 72 0
  52 001a B0F90640 		ldrsh	r4, [r0, #6]
  53 001e C389     		ldrh	r3, [r0, #14]
  54 0020 2344     		add	r3, r3, r4
  55 0022 9BB2     		uxth	r3, r3
  56 0024 1CB2     		sxth	r4, r3
  57 0026 C481     		strh	r4, [r0, #14]	@ movhi
  73:u8glib/u8g_polygon.c ****   if ( pge->error > 0 )
  58              		.loc 1 73 0
  59 0028 002C     		cmp	r4, #0
  60 002a 07DD     		ble	.L3
  74:u8glib/u8g_polygon.c ****   {
  75:u8glib/u8g_polygon.c ****     pge->current_x += pge->x_direction;
  61              		.loc 1 75 0
  62 002c B0F90040 		ldrsh	r4, [r0]
  63 0030 2244     		add	r2, r2, r4
  64 0032 8281     		strh	r2, [r0, #12]	@ movhi
  76:u8glib/u8g_polygon.c ****     pge->error -= pge->height;
  65              		.loc 1 76 0
  66 0034 B0F90220 		ldrsh	r2, [r0, #2]
  67 0038 9B1A     		subs	r3, r3, r2
  68 003a C381     		strh	r3, [r0, #14]	@ movhi
  69              	.L3:
  77:u8glib/u8g_polygon.c ****   }  
  78:u8glib/u8g_polygon.c ****   
  79:u8glib/u8g_polygon.c ****   pge->current_y++;
  70              		.loc 1 79 0
  71 003c 0131     		adds	r1, r1, #1
  72 003e 0181     		strh	r1, [r0, #8]	@ movhi
  80:u8glib/u8g_polygon.c ****   return 1;
  73              		.loc 1 80 0
  74 0040 0120     		movs	r0, #1
  75              	.LVL1:
  76 0042 01E0     		b	.L2
  77              	.LVL2:
  78              	.L4:
  79              	.LCFI1:
  80              		.cfi_def_cfa_offset 0
  81              		.cfi_restore 4
  69:u8glib/u8g_polygon.c ****   
  82              		.loc 1 69 0
  83 0044 0020     		movs	r0, #0
  84              	.LVL3:
  85 0046 7047     		bx	lr
  86              	.L2:
  87              	.LCFI2:
  88              		.cfi_def_cfa_offset 4
  89              		.cfi_offset 4, -4
  81:u8glib/u8g_polygon.c **** }
ARM GAS  C:\Users\master\AppData\Local\Temp\cccFc9Wc.s 			page 4


  90              		.loc 1 81 0
  91 0048 5DF8044B 		ldr	r4, [sp], #4
  92              	.LCFI3:
  93              		.cfi_restore 4
  94              		.cfi_def_cfa_offset 0
  95 004c 7047     		bx	lr
  96              		.cfi_endproc
  97              	.LFE0:
  99 004e 00BF     		.section	.text.pge_Init,"ax",%progbits
 100              		.align	2
 101              		.thumb
 102              		.thumb_func
 104              	pge_Init:
 105              	.LFB1:
  82:u8glib/u8g_polygon.c **** 
  83:u8glib/u8g_polygon.c **** /* assumes y2 > y1 */
  84:u8glib/u8g_polygon.c **** static void pge_Init(struct pg_edge_struct *pge, pg_word_t x1, pg_word_t y1, pg_word_t x2, pg_word_
  85:u8glib/u8g_polygon.c **** {
 106              		.loc 1 85 0
 107              		.cfi_startproc
 108              		@ args = 4, pretend = 0, frame = 0
 109              		@ frame_needed = 0, uses_anonymous_args = 0
 110              		@ link register save eliminated.
 111              	.LVL4:
 112 0000 70B4     		push	{r4, r5, r6}
 113              	.LCFI4:
 114              		.cfi_def_cfa_offset 12
 115              		.cfi_offset 4, -12
 116              		.cfi_offset 5, -8
 117              		.cfi_offset 6, -4
 118 0002 BDF90C60 		ldrsh	r6, [sp, #12]
  86:u8glib/u8g_polygon.c ****   pg_word_t dx = x2 - x1;
 119              		.loc 1 86 0
 120 0006 5B1A     		subs	r3, r3, r1
 121              	.LVL5:
 122 0008 9BB2     		uxth	r3, r3
 123 000a 1CB2     		sxth	r4, r3
 124              	.LVL6:
  87:u8glib/u8g_polygon.c ****   pg_word_t width;
  88:u8glib/u8g_polygon.c **** 
  89:u8glib/u8g_polygon.c ****   pge->height = y2 - y1;
 125              		.loc 1 89 0
 126 000c B51A     		subs	r5, r6, r2
 127 000e ADB2     		uxth	r5, r5
 128 0010 4580     		strh	r5, [r0, #2]	@ movhi
  90:u8glib/u8g_polygon.c ****   pge->max_y = y2;
 129              		.loc 1 90 0
 130 0012 4681     		strh	r6, [r0, #10]	@ movhi
  91:u8glib/u8g_polygon.c ****   pge->current_y = y1;
 131              		.loc 1 91 0
 132 0014 0281     		strh	r2, [r0, #8]	@ movhi
  92:u8glib/u8g_polygon.c ****   pge->current_x = x1;
 133              		.loc 1 92 0
 134 0016 8181     		strh	r1, [r0, #12]	@ movhi
  93:u8glib/u8g_polygon.c **** 
  94:u8glib/u8g_polygon.c ****   if ( dx >= 0 )
 135              		.loc 1 94 0
ARM GAS  C:\Users\master\AppData\Local\Temp\cccFc9Wc.s 			page 5


 136 0018 002C     		cmp	r4, #0
 137 001a 05DB     		blt	.L8
  95:u8glib/u8g_polygon.c ****   {
  96:u8glib/u8g_polygon.c ****     pge->x_direction = 1;
 138              		.loc 1 96 0
 139 001c 0123     		movs	r3, #1
 140 001e 0380     		strh	r3, [r0]	@ movhi
 141              	.LVL7:
  97:u8glib/u8g_polygon.c ****     width = dx;
  98:u8glib/u8g_polygon.c ****     pge->error = 0;
 142              		.loc 1 98 0
 143 0020 0023     		movs	r3, #0
 144 0022 C381     		strh	r3, [r0, #14]	@ movhi
  97:u8glib/u8g_polygon.c ****     width = dx;
 145              		.loc 1 97 0
 146 0024 2346     		mov	r3, r4
 147 0026 07E0     		b	.L9
 148              	.LVL8:
 149              	.L8:
  99:u8glib/u8g_polygon.c ****   }
 100:u8glib/u8g_polygon.c ****   else
 101:u8glib/u8g_polygon.c ****   {
 102:u8glib/u8g_polygon.c ****     pge->x_direction = -1;
 150              		.loc 1 102 0
 151 0028 4FF6FF72 		movw	r2, #65535
 152              	.LVL9:
 153 002c 0280     		strh	r2, [r0]	@ movhi
 103:u8glib/u8g_polygon.c ****     width = -dx;
 154              		.loc 1 103 0
 155 002e 5B42     		negs	r3, r3
 156 0030 1BB2     		sxth	r3, r3
 157              	.LVL10:
 104:u8glib/u8g_polygon.c ****     pge->error = 1 - pge->height;
 158              		.loc 1 104 0
 159 0032 C5F10105 		rsb	r5, r5, #1
 160 0036 C581     		strh	r5, [r0, #14]	@ movhi
 161              	.LVL11:
 162              	.L9:
 105:u8glib/u8g_polygon.c ****   }
 106:u8glib/u8g_polygon.c ****   
 107:u8glib/u8g_polygon.c ****   pge->current_x_offset = dx / pge->height;
 163              		.loc 1 107 0
 164 0038 B0F90210 		ldrsh	r1, [r0, #2]
 165              	.LVL12:
 166 003c 94FBF1F4 		sdiv	r4, r4, r1
 167              	.LVL13:
 168 0040 8480     		strh	r4, [r0, #4]	@ movhi
 108:u8glib/u8g_polygon.c ****   pge->error_offset = width % pge->height;
 169              		.loc 1 108 0
 170 0042 93FBF1F2 		sdiv	r2, r3, r1
 171 0046 01FB1233 		mls	r3, r1, r2, r3
 172              	.LVL14:
 173 004a C380     		strh	r3, [r0, #6]	@ movhi
 109:u8glib/u8g_polygon.c **** }
 174              		.loc 1 109 0
 175 004c 70BC     		pop	{r4, r5, r6}
 176              	.LCFI5:
ARM GAS  C:\Users\master\AppData\Local\Temp\cccFc9Wc.s 			page 6


 177              		.cfi_restore 6
 178              		.cfi_restore 5
 179              		.cfi_restore 4
 180              		.cfi_def_cfa_offset 0
 181              	.LVL15:
 182 004e 7047     		bx	lr
 183              		.cfi_endproc
 184              	.LFE1:
 186              		.section	.text.pg_inc,"ax",%progbits
 187              		.align	2
 188              		.thumb
 189              		.thumb_func
 191              	pg_inc:
 192              	.LFB2:
 110:u8glib/u8g_polygon.c **** 
 111:u8glib/u8g_polygon.c **** /*===========================================*/
 112:u8glib/u8g_polygon.c **** /* convex polygon algorithm */
 113:u8glib/u8g_polygon.c **** 
 114:u8glib/u8g_polygon.c **** static uint8_t pg_inc(pg_struct *pg, uint8_t i)
 115:u8glib/u8g_polygon.c **** {
 193              		.loc 1 115 0
 194              		.cfi_startproc
 195              		@ args = 0, pretend = 0, frame = 0
 196              		@ frame_needed = 0, uses_anonymous_args = 0
 197              		@ link register save eliminated.
 198              	.LVL16:
 116:u8glib/u8g_polygon.c ****     i++;
 199              		.loc 1 116 0
 200 0000 0131     		adds	r1, r1, #1
 201              	.LVL17:
 202 0002 C9B2     		uxtb	r1, r1
 203              	.LVL18:
 117:u8glib/u8g_polygon.c ****     if ( i >= pg->cnt )
 204              		.loc 1 117 0
 205 0004 037E     		ldrb	r3, [r0, #24]	@ zero_extendqisi2
 206 0006 9942     		cmp	r1, r3
 207 0008 00D3     		bcc	.L12
 118:u8glib/u8g_polygon.c ****       i = 0;
 208              		.loc 1 118 0
 209 000a 0021     		movs	r1, #0
 210              	.LVL19:
 211              	.L12:
 119:u8glib/u8g_polygon.c ****     return i;
 120:u8glib/u8g_polygon.c **** }
 212              		.loc 1 120 0
 213 000c 0846     		mov	r0, r1
 214              	.LVL20:
 215 000e 7047     		bx	lr
 216              		.cfi_endproc
 217              	.LFE2:
 219              		.section	.text.pg_dec,"ax",%progbits
 220              		.align	2
 221              		.thumb
 222              		.thumb_func
 224              	pg_dec:
 225              	.LFB3:
 121:u8glib/u8g_polygon.c **** 
ARM GAS  C:\Users\master\AppData\Local\Temp\cccFc9Wc.s 			page 7


 122:u8glib/u8g_polygon.c **** static uint8_t pg_dec(pg_struct *pg, uint8_t i)
 123:u8glib/u8g_polygon.c **** {
 226              		.loc 1 123 0
 227              		.cfi_startproc
 228              		@ args = 0, pretend = 0, frame = 0
 229              		@ frame_needed = 0, uses_anonymous_args = 0
 230              		@ link register save eliminated.
 231              	.LVL21:
 124:u8glib/u8g_polygon.c ****     i--;
 232              		.loc 1 124 0
 233 0000 0139     		subs	r1, r1, #1
 234              	.LVL22:
 235 0002 C9B2     		uxtb	r1, r1
 236              	.LVL23:
 125:u8glib/u8g_polygon.c ****     if ( i >= pg->cnt )
 237              		.loc 1 125 0
 238 0004 037E     		ldrb	r3, [r0, #24]	@ zero_extendqisi2
 239 0006 9942     		cmp	r1, r3
 240 0008 01D3     		bcc	.L15
 126:u8glib/u8g_polygon.c ****       i = pg->cnt-1;
 241              		.loc 1 126 0
 242 000a 591E     		subs	r1, r3, #1
 243              	.LVL24:
 244 000c C9B2     		uxtb	r1, r1
 245              	.LVL25:
 246              	.L15:
 127:u8glib/u8g_polygon.c ****     return i;
 128:u8glib/u8g_polygon.c **** }
 247              		.loc 1 128 0
 248 000e 0846     		mov	r0, r1
 249              	.LVL26:
 250 0010 7047     		bx	lr
 251              		.cfi_endproc
 252              	.LFE3:
 254 0012 00BF     		.section	.text.pg_expand_min_y,"ax",%progbits
 255              		.align	2
 256              		.thumb
 257              		.thumb_func
 259              	pg_expand_min_y:
 260              	.LFB4:
 129:u8glib/u8g_polygon.c **** 
 130:u8glib/u8g_polygon.c **** static void pg_expand_min_y(pg_struct *pg, pg_word_t min_y, uint8_t pge_idx)
 131:u8glib/u8g_polygon.c **** {
 261              		.loc 1 131 0
 262              		.cfi_startproc
 263              		@ args = 0, pretend = 0, frame = 0
 264              		@ frame_needed = 0, uses_anonymous_args = 0
 265              	.LVL27:
 266 0000 70B5     		push	{r4, r5, r6, lr}
 267              	.LCFI6:
 268              		.cfi_def_cfa_offset 16
 269              		.cfi_offset 4, -16
 270              		.cfi_offset 5, -12
 271              		.cfi_offset 6, -8
 272              		.cfi_offset 14, -4
 273 0002 0446     		mov	r4, r0
 274 0004 0E46     		mov	r6, r1
ARM GAS  C:\Users\master\AppData\Local\Temp\cccFc9Wc.s 			page 8


 275 0006 1546     		mov	r5, r2
 132:u8glib/u8g_polygon.c ****   uint8_t i = pg->pge[pge_idx].curr_idx;
 276              		.loc 1 132 0
 277 0008 02EB4202 		add	r2, r2, r2, lsl #1
 278              	.LVL28:
 279 000c D300     		lsls	r3, r2, #3
 280 000e 0344     		add	r3, r3, r0
 281 0010 93F83010 		ldrb	r1, [r3, #48]	@ zero_extendqisi2
 282              	.LVL29:
 283              	.L18:
 133:u8glib/u8g_polygon.c ****   for(;;)
 134:u8glib/u8g_polygon.c ****   {
 135:u8glib/u8g_polygon.c ****     i = pg->pge[pge_idx].next_idx_fn(pg, i);
 284              		.loc 1 135 0
 285 0014 05EB4502 		add	r2, r5, r5, lsl #1
 286 0018 D300     		lsls	r3, r2, #3
 287 001a 2344     		add	r3, r3, r4
 288 001c DB6A     		ldr	r3, [r3, #44]
 289 001e 2046     		mov	r0, r4
 290 0020 9847     		blx	r3
 291              	.LVL30:
 292 0022 0146     		mov	r1, r0
 293              	.LVL31:
 136:u8glib/u8g_polygon.c ****     if ( pg->list[i].y != min_y )
 294              		.loc 1 136 0
 295 0024 04EB8003 		add	r3, r4, r0, lsl #2
 296 0028 B3F90230 		ldrsh	r3, [r3, #2]
 297 002c B342     		cmp	r3, r6
 298 002e 06D1     		bne	.L16
 137:u8glib/u8g_polygon.c ****       break;	
 138:u8glib/u8g_polygon.c ****     pg->pge[pge_idx].curr_idx = i;
 299              		.loc 1 138 0
 300 0030 05EB4502 		add	r2, r5, r5, lsl #1
 301 0034 D300     		lsls	r3, r2, #3
 302 0036 2344     		add	r3, r3, r4
 303 0038 83F83000 		strb	r0, [r3, #48]
 139:u8glib/u8g_polygon.c ****   }
 304              		.loc 1 139 0
 305 003c EAE7     		b	.L18
 306              	.L16:
 307 003e 70BD     		pop	{r4, r5, r6, pc}
 308              		.cfi_endproc
 309              	.LFE4:
 311              		.section	.text.pg_prepare,"ax",%progbits
 312              		.align	2
 313              		.thumb
 314              		.thumb_func
 316              	pg_prepare:
 317              	.LFB5:
 140:u8glib/u8g_polygon.c **** }
 141:u8glib/u8g_polygon.c **** 
 142:u8glib/u8g_polygon.c **** static uint8_t pg_prepare(pg_struct *pg)
 143:u8glib/u8g_polygon.c **** {
 318              		.loc 1 143 0
 319              		.cfi_startproc
 320              		@ args = 0, pretend = 0, frame = 0
 321              		@ frame_needed = 0, uses_anonymous_args = 0
ARM GAS  C:\Users\master\AppData\Local\Temp\cccFc9Wc.s 			page 9


 322              	.LVL32:
 323 0000 38B5     		push	{r3, r4, r5, lr}
 324              	.LCFI7:
 325              		.cfi_def_cfa_offset 16
 326              		.cfi_offset 3, -16
 327              		.cfi_offset 4, -12
 328              		.cfi_offset 5, -8
 329              		.cfi_offset 14, -4
 144:u8glib/u8g_polygon.c ****   pg_word_t max_y;
 145:u8glib/u8g_polygon.c ****   pg_word_t min_y;
 146:u8glib/u8g_polygon.c ****   uint8_t i;
 147:u8glib/u8g_polygon.c **** 
 148:u8glib/u8g_polygon.c ****   /* setup the next index procedures */
 149:u8glib/u8g_polygon.c ****   pg->pge[PG_RIGHT].next_idx_fn = pg_inc;
 330              		.loc 1 149 0
 331 0002 274B     		ldr	r3, .L30
 332 0004 4364     		str	r3, [r0, #68]
 150:u8glib/u8g_polygon.c ****   pg->pge[PG_LEFT].next_idx_fn = pg_dec;
 333              		.loc 1 150 0
 334 0006 274B     		ldr	r3, .L30+4
 335 0008 C362     		str	r3, [r0, #44]
 151:u8glib/u8g_polygon.c ****   
 152:u8glib/u8g_polygon.c ****   /* search for highest and lowest point */
 153:u8glib/u8g_polygon.c ****   max_y = pg->list[0].y;
 336              		.loc 1 153 0
 337 000a B0F90240 		ldrsh	r4, [r0, #2]
 338              	.LVL33:
 154:u8glib/u8g_polygon.c ****   min_y = pg->list[0].y;
 155:u8glib/u8g_polygon.c ****   pg->pge[PG_LEFT].curr_idx = 0;
 339              		.loc 1 155 0
 340 000e 0023     		movs	r3, #0
 341 0010 80F83030 		strb	r3, [r0, #48]
 342              	.LVL34:
 154:u8glib/u8g_polygon.c ****   min_y = pg->list[0].y;
 343              		.loc 1 154 0
 344 0014 2546     		mov	r5, r4
 156:u8glib/u8g_polygon.c ****   for( i = 1; i < pg->cnt; i++ )
 345              		.loc 1 156 0
 346 0016 0123     		movs	r3, #1
 347 0018 11E0     		b	.L21
 348              	.LVL35:
 349              	.L24:
 157:u8glib/u8g_polygon.c ****   {
 158:u8glib/u8g_polygon.c ****     if ( max_y < pg->list[i].y )
 350              		.loc 1 158 0
 351 001a 1946     		mov	r1, r3
 352 001c 00EB8302 		add	r2, r0, r3, lsl #2
 353 0020 B2F90220 		ldrsh	r2, [r2, #2]
 354 0024 9442     		cmp	r4, r2
 355 0026 00DA     		bge	.L22
 159:u8glib/u8g_polygon.c ****     {
 160:u8glib/u8g_polygon.c ****       max_y = pg->list[i].y;
 356              		.loc 1 160 0
 357 0028 1446     		mov	r4, r2
 358              	.LVL36:
 359              	.L22:
 161:u8glib/u8g_polygon.c ****     }
ARM GAS  C:\Users\master\AppData\Local\Temp\cccFc9Wc.s 			page 10


 162:u8glib/u8g_polygon.c ****     if ( min_y > pg->list[i].y )
 360              		.loc 1 162 0
 361 002a 9542     		cmp	r5, r2
 362 002c 05DD     		ble	.L23
 163:u8glib/u8g_polygon.c ****     {
 164:u8glib/u8g_polygon.c ****       pg->pge[PG_LEFT].curr_idx = i;
 363              		.loc 1 164 0
 364 002e 80F83030 		strb	r3, [r0, #48]
 165:u8glib/u8g_polygon.c ****       min_y = pg->list[i].y;
 365              		.loc 1 165 0
 366 0032 00EB8101 		add	r1, r0, r1, lsl #2
 367 0036 B1F90250 		ldrsh	r5, [r1, #2]
 368              	.LVL37:
 369              	.L23:
 156:u8glib/u8g_polygon.c ****   {
 370              		.loc 1 156 0 discriminator 2
 371 003a 0133     		adds	r3, r3, #1
 372              	.LVL38:
 373 003c DBB2     		uxtb	r3, r3
 374              	.LVL39:
 375              	.L21:
 156:u8glib/u8g_polygon.c ****   {
 376              		.loc 1 156 0 is_stmt 0 discriminator 1
 377 003e 027E     		ldrb	r2, [r0, #24]	@ zero_extendqisi2
 378 0040 9342     		cmp	r3, r2
 379 0042 EAD3     		bcc	.L24
 166:u8glib/u8g_polygon.c ****     }
 167:u8glib/u8g_polygon.c ****   }
 168:u8glib/u8g_polygon.c **** 
 169:u8glib/u8g_polygon.c ****   /* calculate total number of scan lines */
 170:u8glib/u8g_polygon.c ****   pg->total_scan_line_cnt = max_y;
 171:u8glib/u8g_polygon.c ****   pg->total_scan_line_cnt -= min_y;
 380              		.loc 1 171 0 is_stmt 1
 381 0044 641B     		subs	r4, r4, r5
 382              	.LVL40:
 383 0046 24B2     		sxth	r4, r4
 384 0048 4483     		strh	r4, [r0, #26]	@ movhi
 172:u8glib/u8g_polygon.c ****   
 173:u8glib/u8g_polygon.c ****   /* exit if polygon height is zero */
 174:u8glib/u8g_polygon.c ****   if ( pg->total_scan_line_cnt == 0 )
 385              		.loc 1 174 0
 386 004a 2CB3     		cbz	r4, .L27
 387 004c 0446     		mov	r4, r0
 175:u8glib/u8g_polygon.c ****     return 0;
 176:u8glib/u8g_polygon.c ****   
 177:u8glib/u8g_polygon.c ****   /* if the minimum y side is flat, try to find the lowest and highest x points */
 178:u8glib/u8g_polygon.c ****   pg->pge[PG_RIGHT].curr_idx = pg->pge[PG_LEFT].curr_idx;  
 388              		.loc 1 178 0
 389 004e 90F83030 		ldrb	r3, [r0, #48]	@ zero_extendqisi2
 390              	.LVL41:
 391 0052 80F84830 		strb	r3, [r0, #72]
 179:u8glib/u8g_polygon.c ****   pg_expand_min_y(pg, min_y, PG_RIGHT);
 392              		.loc 1 179 0
 393 0056 0122     		movs	r2, #1
 394 0058 2946     		mov	r1, r5
 395 005a FFF7FEFF 		bl	pg_expand_min_y
 396              	.LVL42:
ARM GAS  C:\Users\master\AppData\Local\Temp\cccFc9Wc.s 			page 11


 180:u8glib/u8g_polygon.c ****   pg_expand_min_y(pg, min_y, PG_LEFT);
 397              		.loc 1 180 0
 398 005e 0022     		movs	r2, #0
 399 0060 2946     		mov	r1, r5
 400 0062 2046     		mov	r0, r4
 401 0064 FFF7FEFF 		bl	pg_expand_min_y
 402              	.LVL43:
 181:u8glib/u8g_polygon.c ****   
 182:u8glib/u8g_polygon.c ****   /* check if the min side is really flat (depends on the x values) */
 183:u8glib/u8g_polygon.c ****   pg->is_min_y_not_flat = 1;
 403              		.loc 1 183 0
 404 0068 0123     		movs	r3, #1
 405 006a 6376     		strb	r3, [r4, #25]
 184:u8glib/u8g_polygon.c ****   if ( pg->list[pg->pge[PG_LEFT].curr_idx].x != pg->list[pg->pge[PG_RIGHT].curr_idx].x )
 406              		.loc 1 184 0
 407 006c 94F83030 		ldrb	r3, [r4, #48]	@ zero_extendqisi2
 408 0070 34F92320 		ldrsh	r2, [r4, r3, lsl #2]
 409 0074 94F84830 		ldrb	r3, [r4, #72]	@ zero_extendqisi2
 410 0078 34F92330 		ldrsh	r3, [r4, r3, lsl #2]
 411 007c 9A42     		cmp	r2, r3
 412 007e 03D0     		beq	.L26
 185:u8glib/u8g_polygon.c ****   {
 186:u8glib/u8g_polygon.c ****     pg->is_min_y_not_flat = 0;
 413              		.loc 1 186 0
 414 0080 0023     		movs	r3, #0
 415 0082 6376     		strb	r3, [r4, #25]
 187:u8glib/u8g_polygon.c ****   }
 188:u8glib/u8g_polygon.c ****   else
 189:u8glib/u8g_polygon.c ****   {
 190:u8glib/u8g_polygon.c ****     pg->total_scan_line_cnt--;
 191:u8glib/u8g_polygon.c ****     if ( pg->total_scan_line_cnt == 0 )
 192:u8glib/u8g_polygon.c ****       return 0;
 193:u8glib/u8g_polygon.c ****   }
 194:u8glib/u8g_polygon.c **** 
 195:u8glib/u8g_polygon.c ****   return 1;
 416              		.loc 1 195 0
 417 0084 0120     		movs	r0, #1
 418 0086 38BD     		pop	{r3, r4, r5, pc}
 419              	.LVL44:
 420              	.L26:
 190:u8glib/u8g_polygon.c ****     if ( pg->total_scan_line_cnt == 0 )
 421              		.loc 1 190 0
 422 0088 B4F91A30 		ldrsh	r3, [r4, #26]
 423 008c 013B     		subs	r3, r3, #1
 424 008e 1BB2     		sxth	r3, r3
 425 0090 6383     		strh	r3, [r4, #26]	@ movhi
 191:u8glib/u8g_polygon.c ****       return 0;
 426              		.loc 1 191 0
 427 0092 1BB9     		cbnz	r3, .L28
 192:u8glib/u8g_polygon.c ****   }
 428              		.loc 1 192 0
 429 0094 0020     		movs	r0, #0
 430 0096 38BD     		pop	{r3, r4, r5, pc}
 431              	.LVL45:
 432              	.L27:
 175:u8glib/u8g_polygon.c ****   
 433              		.loc 1 175 0
ARM GAS  C:\Users\master\AppData\Local\Temp\cccFc9Wc.s 			page 12


 434 0098 0020     		movs	r0, #0
 435              	.LVL46:
 436 009a 38BD     		pop	{r3, r4, r5, pc}
 437              	.LVL47:
 438              	.L28:
 439              		.loc 1 195 0
 440 009c 0120     		movs	r0, #1
 196:u8glib/u8g_polygon.c **** }
 441              		.loc 1 196 0
 442 009e 38BD     		pop	{r3, r4, r5, pc}
 443              	.LVL48:
 444              	.L31:
 445              		.align	2
 446              	.L30:
 447 00a0 00000000 		.word	pg_inc
 448 00a4 00000000 		.word	pg_dec
 449              		.cfi_endproc
 450              	.LFE5:
 452              		.section	.text.pg_line_init,"ax",%progbits
 453              		.align	2
 454              		.thumb
 455              		.thumb_func
 457              	pg_line_init:
 458              	.LFB7:
 197:u8glib/u8g_polygon.c **** 
 198:u8glib/u8g_polygon.c **** static void pg_hline(pg_struct *pg, u8g_t *u8g)
 199:u8glib/u8g_polygon.c **** {
 200:u8glib/u8g_polygon.c ****   pg_word_t x1, x2, y;
 201:u8glib/u8g_polygon.c ****   x1 = pg->pge[PG_LEFT].current_x;
 202:u8glib/u8g_polygon.c ****   x2 = pg->pge[PG_RIGHT].current_x;
 203:u8glib/u8g_polygon.c ****   y = pg->pge[PG_RIGHT].current_y;
 204:u8glib/u8g_polygon.c ****   
 205:u8glib/u8g_polygon.c ****   if ( y < 0 )
 206:u8glib/u8g_polygon.c ****     return;
 207:u8glib/u8g_polygon.c ****   if ( y >= u8g_GetHeight(u8g) )
 208:u8glib/u8g_polygon.c ****     return;
 209:u8glib/u8g_polygon.c ****   if ( x1 < x2 )
 210:u8glib/u8g_polygon.c ****   {
 211:u8glib/u8g_polygon.c ****     if ( x2 < 0 )
 212:u8glib/u8g_polygon.c ****       return;
 213:u8glib/u8g_polygon.c ****     if ( x1 >= u8g_GetWidth(u8g) )
 214:u8glib/u8g_polygon.c ****       return;
 215:u8glib/u8g_polygon.c ****     if ( x1 < 0 )
 216:u8glib/u8g_polygon.c ****       x1 = 0;
 217:u8glib/u8g_polygon.c ****     if ( x2 >= u8g_GetWidth(u8g) )
 218:u8glib/u8g_polygon.c ****       x2 = u8g_GetWidth(u8g);
 219:u8glib/u8g_polygon.c ****     u8g_DrawHLine(u8g, x1, y, x2 - x1);
 220:u8glib/u8g_polygon.c ****   }
 221:u8glib/u8g_polygon.c ****   else
 222:u8glib/u8g_polygon.c ****   {
 223:u8glib/u8g_polygon.c ****     if ( x1 < 0 )
 224:u8glib/u8g_polygon.c ****       return;
 225:u8glib/u8g_polygon.c ****     if ( x2 >= u8g_GetWidth(u8g) )
 226:u8glib/u8g_polygon.c ****       return;
 227:u8glib/u8g_polygon.c ****     if ( x2 < 0 )
 228:u8glib/u8g_polygon.c ****       x1 = 0;
 229:u8glib/u8g_polygon.c ****     if ( x1 >= u8g_GetWidth(u8g) )
ARM GAS  C:\Users\master\AppData\Local\Temp\cccFc9Wc.s 			page 13


 230:u8glib/u8g_polygon.c ****       x1 = u8g_GetWidth(u8g);
 231:u8glib/u8g_polygon.c ****     u8g_DrawHLine(u8g, x2, y, x1 - x2);
 232:u8glib/u8g_polygon.c ****   }
 233:u8glib/u8g_polygon.c **** }
 234:u8glib/u8g_polygon.c **** 
 235:u8glib/u8g_polygon.c **** static void pg_line_init(pg_struct * pg, uint8_t pge_index)
 236:u8glib/u8g_polygon.c **** {
 459              		.loc 1 236 0
 460              		.cfi_startproc
 461              		@ args = 0, pretend = 0, frame = 0
 462              		@ frame_needed = 0, uses_anonymous_args = 0
 463              	.LVL49:
 464 0000 F0B5     		push	{r4, r5, r6, r7, lr}
 465              	.LCFI8:
 466              		.cfi_def_cfa_offset 20
 467              		.cfi_offset 4, -20
 468              		.cfi_offset 5, -16
 469              		.cfi_offset 6, -12
 470              		.cfi_offset 7, -8
 471              		.cfi_offset 14, -4
 472 0002 83B0     		sub	sp, sp, #12
 473              	.LCFI9:
 474              		.cfi_def_cfa_offset 32
 475 0004 0546     		mov	r5, r0
 237:u8glib/u8g_polygon.c ****   struct pg_edge_struct  *pge = pg->pge+pge_index;
 476              		.loc 1 237 0
 477 0006 00F11C04 		add	r4, r0, #28
 478 000a 01EB4101 		add	r1, r1, r1, lsl #1
 479              	.LVL50:
 480 000e CB00     		lsls	r3, r1, #3
 481 0010 1C44     		add	r4, r4, r3
 482              	.LVL51:
 238:u8glib/u8g_polygon.c ****   uint8_t idx;  
 239:u8glib/u8g_polygon.c ****   pg_word_t x1;
 240:u8glib/u8g_polygon.c ****   pg_word_t y1;
 241:u8glib/u8g_polygon.c ****   pg_word_t x2;
 242:u8glib/u8g_polygon.c ****   pg_word_t y2;
 243:u8glib/u8g_polygon.c **** 
 244:u8glib/u8g_polygon.c ****   idx = pge->curr_idx;  
 483              		.loc 1 244 0
 484 0012 217D     		ldrb	r1, [r4, #20]	@ zero_extendqisi2
 485              	.LVL52:
 245:u8glib/u8g_polygon.c ****   y1 = pg->list[idx].y;
 486              		.loc 1 245 0
 487 0014 00EB8103 		add	r3, r0, r1, lsl #2
 488 0018 B3F90270 		ldrsh	r7, [r3, #2]
 489              	.LVL53:
 246:u8glib/u8g_polygon.c ****   x1 = pg->list[idx].x;
 490              		.loc 1 246 0
 491 001c 30F92160 		ldrsh	r6, [r0, r1, lsl #2]
 492              	.LVL54:
 247:u8glib/u8g_polygon.c ****   idx = pge->next_idx_fn(pg, idx);
 493              		.loc 1 247 0
 494 0020 2369     		ldr	r3, [r4, #16]
 495 0022 9847     		blx	r3
 496              	.LVL55:
 248:u8glib/u8g_polygon.c ****   y2 = pg->list[idx].y;
ARM GAS  C:\Users\master\AppData\Local\Temp\cccFc9Wc.s 			page 14


 497              		.loc 1 248 0
 498 0024 05EB8003 		add	r3, r5, r0, lsl #2
 499 0028 B3F90220 		ldrsh	r2, [r3, #2]
 500              	.LVL56:
 249:u8glib/u8g_polygon.c ****   x2 = pg->list[idx].x; 
 501              		.loc 1 249 0
 502 002c 35F92030 		ldrsh	r3, [r5, r0, lsl #2]
 503              	.LVL57:
 250:u8glib/u8g_polygon.c ****   pge->curr_idx = idx;
 504              		.loc 1 250 0
 505 0030 2075     		strb	r0, [r4, #20]
 251:u8glib/u8g_polygon.c ****   
 252:u8glib/u8g_polygon.c ****   pge_Init(pge, x1, y1, x2, y2);
 506              		.loc 1 252 0
 507 0032 0092     		str	r2, [sp]
 508 0034 3A46     		mov	r2, r7
 509              	.LVL58:
 510 0036 3146     		mov	r1, r6
 511 0038 2046     		mov	r0, r4
 512              	.LVL59:
 513 003a FFF7FEFF 		bl	pge_Init
 514              	.LVL60:
 253:u8glib/u8g_polygon.c **** }
 515              		.loc 1 253 0
 516 003e 03B0     		add	sp, sp, #12
 517              	.LCFI10:
 518              		.cfi_def_cfa_offset 20
 519              		@ sp needed
 520 0040 F0BD     		pop	{r4, r5, r6, r7, pc}
 521              		.cfi_endproc
 522              	.LFE7:
 524 0042 00BF     		.section	.text.pg_hline,"ax",%progbits
 525              		.align	2
 526              		.thumb
 527              		.thumb_func
 529              	pg_hline:
 530              	.LFB6:
 199:u8glib/u8g_polygon.c ****   pg_word_t x1, x2, y;
 531              		.loc 1 199 0
 532              		.cfi_startproc
 533              		@ args = 0, pretend = 0, frame = 0
 534              		@ frame_needed = 0, uses_anonymous_args = 0
 535              	.LVL61:
 536 0000 10B5     		push	{r4, lr}
 537              	.LCFI11:
 538              		.cfi_def_cfa_offset 8
 539              		.cfi_offset 4, -8
 540              		.cfi_offset 14, -4
 201:u8glib/u8g_polygon.c ****   x2 = pg->pge[PG_RIGHT].current_x;
 541              		.loc 1 201 0
 542 0002 B0F92830 		ldrsh	r3, [r0, #40]
 543              	.LVL62:
 202:u8glib/u8g_polygon.c ****   y = pg->pge[PG_RIGHT].current_y;
 544              		.loc 1 202 0
 545 0006 B0F94040 		ldrsh	r4, [r0, #64]
 546              	.LVL63:
 203:u8glib/u8g_polygon.c ****   
ARM GAS  C:\Users\master\AppData\Local\Temp\cccFc9Wc.s 			page 15


 547              		.loc 1 203 0
 548 000a B0F93C20 		ldrsh	r2, [r0, #60]
 549              	.LVL64:
 205:u8glib/u8g_polygon.c ****     return;
 550              		.loc 1 205 0
 551 000e 002A     		cmp	r2, #0
 552 0010 28DB     		blt	.L34
 207:u8glib/u8g_polygon.c ****     return;
 553              		.loc 1 207 0
 554 0012 4878     		ldrb	r0, [r1, #1]	@ zero_extendqisi2
 555              	.LVL65:
 556 0014 8242     		cmp	r2, r0
 557 0016 25DA     		bge	.L34
 558 0018 0846     		mov	r0, r1
 209:u8glib/u8g_polygon.c ****   {
 559              		.loc 1 209 0
 560 001a A342     		cmp	r3, r4
 561 001c 11DA     		bge	.L36
 211:u8glib/u8g_polygon.c ****       return;
 562              		.loc 1 211 0
 563 001e 002C     		cmp	r4, #0
 564 0020 20DB     		blt	.L34
 213:u8glib/u8g_polygon.c ****       return;
 565              		.loc 1 213 0
 566 0022 0978     		ldrb	r1, [r1]	@ zero_extendqisi2
 567              	.LVL66:
 568 0024 8B42     		cmp	r3, r1
 569 0026 1DDA     		bge	.L34
 215:u8glib/u8g_polygon.c ****       x1 = 0;
 570              		.loc 1 215 0
 571 0028 002B     		cmp	r3, #0
 572 002a 00DA     		bge	.L37
 216:u8glib/u8g_polygon.c ****     if ( x2 >= u8g_GetWidth(u8g) )
 573              		.loc 1 216 0
 574 002c 0023     		movs	r3, #0
 575              	.LVL67:
 576              	.L37:
 217:u8glib/u8g_polygon.c ****       x2 = u8g_GetWidth(u8g);
 577              		.loc 1 217 0
 578 002e A142     		cmp	r1, r4
 579 0030 00DC     		bgt	.L38
 218:u8glib/u8g_polygon.c ****     u8g_DrawHLine(u8g, x1, y, x2 - x1);
 580              		.loc 1 218 0
 581 0032 0CB2     		sxth	r4, r1
 582              	.LVL68:
 583              	.L38:
 219:u8glib/u8g_polygon.c ****   }
 584              		.loc 1 219 0
 585 0034 D9B2     		uxtb	r1, r3
 586 0036 631A     		subs	r3, r4, r1
 587              	.LVL69:
 588 0038 DBB2     		uxtb	r3, r3
 589 003a D2B2     		uxtb	r2, r2
 590              	.LVL70:
 591 003c FFF7FEFF 		bl	u8g_DrawHLine
 592              	.LVL71:
 593 0040 10BD     		pop	{r4, pc}
ARM GAS  C:\Users\master\AppData\Local\Temp\cccFc9Wc.s 			page 16


 594              	.LVL72:
 595              	.L36:
 223:u8glib/u8g_polygon.c ****       return;
 596              		.loc 1 223 0
 597 0042 002B     		cmp	r3, #0
 598 0044 0EDB     		blt	.L34
 225:u8glib/u8g_polygon.c ****       return;
 599              		.loc 1 225 0
 600 0046 0978     		ldrb	r1, [r1]	@ zero_extendqisi2
 601 0048 8C42     		cmp	r4, r1
 602 004a 0BDA     		bge	.L34
 227:u8glib/u8g_polygon.c ****       x1 = 0;
 603              		.loc 1 227 0
 604 004c 002C     		cmp	r4, #0
 605 004e 00DA     		bge	.L39
 228:u8glib/u8g_polygon.c ****     if ( x1 >= u8g_GetWidth(u8g) )
 606              		.loc 1 228 0
 607 0050 0023     		movs	r3, #0
 608              	.LVL73:
 609              	.L39:
 229:u8glib/u8g_polygon.c ****       x1 = u8g_GetWidth(u8g);
 610              		.loc 1 229 0
 611 0052 9942     		cmp	r1, r3
 612 0054 00DC     		bgt	.L40
 230:u8glib/u8g_polygon.c ****     u8g_DrawHLine(u8g, x2, y, x1 - x2);
 613              		.loc 1 230 0
 614 0056 0BB2     		sxth	r3, r1
 615              	.LVL74:
 616              	.L40:
 231:u8glib/u8g_polygon.c ****   }
 617              		.loc 1 231 0
 618 0058 E1B2     		uxtb	r1, r4
 619 005a 5B1A     		subs	r3, r3, r1
 620              	.LVL75:
 621 005c DBB2     		uxtb	r3, r3
 622 005e D2B2     		uxtb	r2, r2
 623              	.LVL76:
 624 0060 FFF7FEFF 		bl	u8g_DrawHLine
 625              	.LVL77:
 626              	.L34:
 627 0064 10BD     		pop	{r4, pc}
 628              		.cfi_endproc
 629              	.LFE6:
 631 0066 00BF     		.section	.text.pg_exec,"ax",%progbits
 632              		.align	2
 633              		.thumb
 634              		.thumb_func
 636              	pg_exec:
 637              	.LFB8:
 254:u8glib/u8g_polygon.c **** 
 255:u8glib/u8g_polygon.c **** static void pg_exec(pg_struct *pg, u8g_t *u8g)
 256:u8glib/u8g_polygon.c **** {
 638              		.loc 1 256 0
 639              		.cfi_startproc
 640              		@ args = 0, pretend = 0, frame = 0
 641              		@ frame_needed = 0, uses_anonymous_args = 0
 642              	.LVL78:
ARM GAS  C:\Users\master\AppData\Local\Temp\cccFc9Wc.s 			page 17


 643 0000 70B5     		push	{r4, r5, r6, lr}
 644              	.LCFI12:
 645              		.cfi_def_cfa_offset 16
 646              		.cfi_offset 4, -16
 647              		.cfi_offset 5, -12
 648              		.cfi_offset 6, -8
 649              		.cfi_offset 14, -4
 650 0002 0446     		mov	r4, r0
 651 0004 0E46     		mov	r6, r1
 257:u8glib/u8g_polygon.c ****   pg_word_t i = pg->total_scan_line_cnt;
 652              		.loc 1 257 0
 653 0006 B0F91A50 		ldrsh	r5, [r0, #26]
 654              	.LVL79:
 258:u8glib/u8g_polygon.c **** 
 259:u8glib/u8g_polygon.c ****   /* first line is skipped if the min y line is not flat */
 260:u8glib/u8g_polygon.c ****   pg_line_init(pg, PG_LEFT);		
 655              		.loc 1 260 0
 656 000a 0021     		movs	r1, #0
 657              	.LVL80:
 658 000c FFF7FEFF 		bl	pg_line_init
 659              	.LVL81:
 261:u8glib/u8g_polygon.c ****   pg_line_init(pg, PG_RIGHT);
 660              		.loc 1 261 0
 661 0010 0121     		movs	r1, #1
 662 0012 2046     		mov	r0, r4
 663 0014 FFF7FEFF 		bl	pg_line_init
 664              	.LVL82:
 262:u8glib/u8g_polygon.c ****   
 263:u8glib/u8g_polygon.c ****   if ( pg->is_min_y_not_flat != 0 )
 665              		.loc 1 263 0
 666 0018 637E     		ldrb	r3, [r4, #25]	@ zero_extendqisi2
 667 001a 3BB1     		cbz	r3, .L50
 264:u8glib/u8g_polygon.c ****   {
 265:u8glib/u8g_polygon.c ****     pge_Next(&(pg->pge[PG_LEFT])); 
 668              		.loc 1 265 0
 669 001c 04F11C00 		add	r0, r4, #28
 670 0020 FFF7FEFF 		bl	pge_Next
 671              	.LVL83:
 266:u8glib/u8g_polygon.c ****     pge_Next(&(pg->pge[PG_RIGHT]));
 672              		.loc 1 266 0
 673 0024 04F13400 		add	r0, r4, #52
 674 0028 FFF7FEFF 		bl	pge_Next
 675              	.LVL84:
 676              	.L50:
 267:u8glib/u8g_polygon.c ****   }
 268:u8glib/u8g_polygon.c **** 
 269:u8glib/u8g_polygon.c ****   do
 270:u8glib/u8g_polygon.c ****   {
 271:u8glib/u8g_polygon.c ****     pg_hline(pg, u8g);
 677              		.loc 1 271 0
 678 002c 3146     		mov	r1, r6
 679 002e 2046     		mov	r0, r4
 680 0030 FFF7FEFF 		bl	pg_hline
 681              	.LVL85:
 272:u8glib/u8g_polygon.c ****     while ( pge_Next(&(pg->pge[PG_LEFT])) == 0 )
 682              		.loc 1 272 0
 683 0034 03E0     		b	.L46
ARM GAS  C:\Users\master\AppData\Local\Temp\cccFc9Wc.s 			page 18


 684              	.L47:
 273:u8glib/u8g_polygon.c ****     {
 274:u8glib/u8g_polygon.c ****       pg_line_init(pg, PG_LEFT);
 685              		.loc 1 274 0
 686 0036 0021     		movs	r1, #0
 687 0038 2046     		mov	r0, r4
 688 003a FFF7FEFF 		bl	pg_line_init
 689              	.LVL86:
 690              	.L46:
 272:u8glib/u8g_polygon.c ****     while ( pge_Next(&(pg->pge[PG_LEFT])) == 0 )
 691              		.loc 1 272 0
 692 003e 04F11C00 		add	r0, r4, #28
 693 0042 FFF7FEFF 		bl	pge_Next
 694              	.LVL87:
 695 0046 0028     		cmp	r0, #0
 696 0048 F5D0     		beq	.L47
 697 004a 03E0     		b	.L48
 698              	.L49:
 275:u8glib/u8g_polygon.c ****     }
 276:u8glib/u8g_polygon.c ****     while ( pge_Next(&(pg->pge[PG_RIGHT])) == 0 )
 277:u8glib/u8g_polygon.c ****     {
 278:u8glib/u8g_polygon.c ****       pg_line_init(pg, PG_RIGHT);
 699              		.loc 1 278 0
 700 004c 0121     		movs	r1, #1
 701 004e 2046     		mov	r0, r4
 702 0050 FFF7FEFF 		bl	pg_line_init
 703              	.LVL88:
 704              	.L48:
 276:u8glib/u8g_polygon.c ****     {
 705              		.loc 1 276 0
 706 0054 04F13400 		add	r0, r4, #52
 707 0058 FFF7FEFF 		bl	pge_Next
 708              	.LVL89:
 709 005c 0028     		cmp	r0, #0
 710 005e F5D0     		beq	.L49
 279:u8glib/u8g_polygon.c ****     }
 280:u8glib/u8g_polygon.c ****     i--;
 711              		.loc 1 280 0
 712 0060 013D     		subs	r5, r5, #1
 713              	.LVL90:
 714 0062 2DB2     		sxth	r5, r5
 715              	.LVL91:
 281:u8glib/u8g_polygon.c ****   } while( i > 0 );
 716              		.loc 1 281 0
 717 0064 002D     		cmp	r5, #0
 718 0066 E1DC     		bgt	.L50
 282:u8glib/u8g_polygon.c **** }
 719              		.loc 1 282 0
 720 0068 70BD     		pop	{r4, r5, r6, pc}
 721              		.cfi_endproc
 722              	.LFE8:
 724 006a 00BF     		.section	.text.pg_ClearPolygonXY,"ax",%progbits
 725              		.align	2
 726              		.global	pg_ClearPolygonXY
 727              		.thumb
 728              		.thumb_func
 730              	pg_ClearPolygonXY:
ARM GAS  C:\Users\master\AppData\Local\Temp\cccFc9Wc.s 			page 19


 731              	.LFB9:
 283:u8glib/u8g_polygon.c **** 
 284:u8glib/u8g_polygon.c **** /*===========================================*/
 285:u8glib/u8g_polygon.c **** /* API procedures */
 286:u8glib/u8g_polygon.c **** 
 287:u8glib/u8g_polygon.c **** void pg_ClearPolygonXY(pg_struct *pg)
 288:u8glib/u8g_polygon.c **** {
 732              		.loc 1 288 0
 733              		.cfi_startproc
 734              		@ args = 0, pretend = 0, frame = 0
 735              		@ frame_needed = 0, uses_anonymous_args = 0
 736              		@ link register save eliminated.
 737              	.LVL92:
 289:u8glib/u8g_polygon.c ****   pg->cnt = 0;
 738              		.loc 1 289 0
 739 0000 0023     		movs	r3, #0
 740 0002 0376     		strb	r3, [r0, #24]
 741 0004 7047     		bx	lr
 742              		.cfi_endproc
 743              	.LFE9:
 745 0006 00BF     		.section	.text.pg_AddPolygonXY,"ax",%progbits
 746              		.align	2
 747              		.global	pg_AddPolygonXY
 748              		.thumb
 749              		.thumb_func
 751              	pg_AddPolygonXY:
 752              	.LFB10:
 290:u8glib/u8g_polygon.c **** }
 291:u8glib/u8g_polygon.c **** 
 292:u8glib/u8g_polygon.c **** void pg_AddPolygonXY(pg_struct *pg, u8g_t *u8g, int16_t x, int16_t y)
 293:u8glib/u8g_polygon.c **** {
 753              		.loc 1 293 0
 754              		.cfi_startproc
 755              		@ args = 0, pretend = 0, frame = 0
 756              		@ frame_needed = 0, uses_anonymous_args = 0
 757              		@ link register save eliminated.
 758              	.LVL93:
 294:u8glib/u8g_polygon.c ****   if ( pg->cnt < PG_MAX_POINTS )
 759              		.loc 1 294 0
 760 0000 017E     		ldrb	r1, [r0, #24]	@ zero_extendqisi2
 761              	.LVL94:
 762 0002 0529     		cmp	r1, #5
 763 0004 06D8     		bhi	.L53
 295:u8glib/u8g_polygon.c ****   {
 296:u8glib/u8g_polygon.c ****     pg->list[pg->cnt].x = x;
 764              		.loc 1 296 0
 765 0006 20F82120 		strh	r2, [r0, r1, lsl #2]	@ movhi
 297:u8glib/u8g_polygon.c ****     pg->list[pg->cnt].y = y;
 766              		.loc 1 297 0
 767 000a 00EB8102 		add	r2, r0, r1, lsl #2
 768              	.LVL95:
 769 000e 5380     		strh	r3, [r2, #2]	@ movhi
 298:u8glib/u8g_polygon.c ****     pg->cnt++;
 770              		.loc 1 298 0
 771 0010 0131     		adds	r1, r1, #1
 772 0012 0176     		strb	r1, [r0, #24]
 773              	.LVL96:
ARM GAS  C:\Users\master\AppData\Local\Temp\cccFc9Wc.s 			page 20


 774              	.L53:
 775 0014 7047     		bx	lr
 776              		.cfi_endproc
 777              	.LFE10:
 779 0016 00BF     		.section	.text.pg_DrawPolygon,"ax",%progbits
 780              		.align	2
 781              		.global	pg_DrawPolygon
 782              		.thumb
 783              		.thumb_func
 785              	pg_DrawPolygon:
 786              	.LFB11:
 299:u8glib/u8g_polygon.c ****   }
 300:u8glib/u8g_polygon.c **** }
 301:u8glib/u8g_polygon.c **** 
 302:u8glib/u8g_polygon.c **** void pg_DrawPolygon(pg_struct *pg, u8g_t *u8g)
 303:u8glib/u8g_polygon.c **** {
 787              		.loc 1 303 0
 788              		.cfi_startproc
 789              		@ args = 0, pretend = 0, frame = 0
 790              		@ frame_needed = 0, uses_anonymous_args = 0
 791              	.LVL97:
 792 0000 38B5     		push	{r3, r4, r5, lr}
 793              	.LCFI13:
 794              		.cfi_def_cfa_offset 16
 795              		.cfi_offset 3, -16
 796              		.cfi_offset 4, -12
 797              		.cfi_offset 5, -8
 798              		.cfi_offset 14, -4
 799 0002 0446     		mov	r4, r0
 800 0004 0D46     		mov	r5, r1
 304:u8glib/u8g_polygon.c ****   if ( pg_prepare(pg) == 0 )
 801              		.loc 1 304 0
 802 0006 FFF7FEFF 		bl	pg_prepare
 803              	.LVL98:
 804 000a 18B1     		cbz	r0, .L55
 305:u8glib/u8g_polygon.c ****     return;
 306:u8glib/u8g_polygon.c ****   pg_exec(pg, u8g);
 805              		.loc 1 306 0
 806 000c 2946     		mov	r1, r5
 807 000e 2046     		mov	r0, r4
 808 0010 FFF7FEFF 		bl	pg_exec
 809              	.LVL99:
 810              	.L55:
 811 0014 38BD     		pop	{r3, r4, r5, pc}
 812              		.cfi_endproc
 813              	.LFE11:
 815 0016 00BF     		.section	.text.u8g_ClearPolygonXY,"ax",%progbits
 816              		.align	2
 817              		.global	u8g_ClearPolygonXY
 818              		.thumb
 819              		.thumb_func
 821              	u8g_ClearPolygonXY:
 822              	.LFB12:
 307:u8glib/u8g_polygon.c **** }
 308:u8glib/u8g_polygon.c **** 
 309:u8glib/u8g_polygon.c **** pg_struct u8g_pg;
 310:u8glib/u8g_polygon.c **** 
ARM GAS  C:\Users\master\AppData\Local\Temp\cccFc9Wc.s 			page 21


 311:u8glib/u8g_polygon.c **** void u8g_ClearPolygonXY(void)
 312:u8glib/u8g_polygon.c **** {
 823              		.loc 1 312 0
 824              		.cfi_startproc
 825              		@ args = 0, pretend = 0, frame = 0
 826              		@ frame_needed = 0, uses_anonymous_args = 0
 827 0000 08B5     		push	{r3, lr}
 828              	.LCFI14:
 829              		.cfi_def_cfa_offset 8
 830              		.cfi_offset 3, -8
 831              		.cfi_offset 14, -4
 313:u8glib/u8g_polygon.c ****   pg_ClearPolygonXY(&u8g_pg);
 832              		.loc 1 313 0
 833 0002 0248     		ldr	r0, .L60
 834 0004 FFF7FEFF 		bl	pg_ClearPolygonXY
 835              	.LVL100:
 836 0008 08BD     		pop	{r3, pc}
 837              	.L61:
 838 000a 00BF     		.align	2
 839              	.L60:
 840 000c 00000000 		.word	u8g_pg
 841              		.cfi_endproc
 842              	.LFE12:
 844              		.section	.text.u8g_AddPolygonXY,"ax",%progbits
 845              		.align	2
 846              		.global	u8g_AddPolygonXY
 847              		.thumb
 848              		.thumb_func
 850              	u8g_AddPolygonXY:
 851              	.LFB13:
 314:u8glib/u8g_polygon.c **** }
 315:u8glib/u8g_polygon.c **** 
 316:u8glib/u8g_polygon.c **** void u8g_AddPolygonXY(u8g_t *u8g, int16_t x, int16_t y)
 317:u8glib/u8g_polygon.c **** {
 852              		.loc 1 317 0
 853              		.cfi_startproc
 854              		@ args = 0, pretend = 0, frame = 0
 855              		@ frame_needed = 0, uses_anonymous_args = 0
 856              	.LVL101:
 857 0000 08B5     		push	{r3, lr}
 858              	.LCFI15:
 859              		.cfi_def_cfa_offset 8
 860              		.cfi_offset 3, -8
 861              		.cfi_offset 14, -4
 318:u8glib/u8g_polygon.c ****   pg_AddPolygonXY(&u8g_pg, u8g, x, y);
 862              		.loc 1 318 0
 863 0002 1346     		mov	r3, r2
 864 0004 0A46     		mov	r2, r1
 865              	.LVL102:
 866 0006 0146     		mov	r1, r0
 867              	.LVL103:
 868 0008 0148     		ldr	r0, .L64
 869              	.LVL104:
 870 000a FFF7FEFF 		bl	pg_AddPolygonXY
 871              	.LVL105:
 872 000e 08BD     		pop	{r3, pc}
 873              	.L65:
ARM GAS  C:\Users\master\AppData\Local\Temp\cccFc9Wc.s 			page 22


 874              		.align	2
 875              	.L64:
 876 0010 00000000 		.word	u8g_pg
 877              		.cfi_endproc
 878              	.LFE13:
 880              		.section	.text.u8g_DrawPolygon,"ax",%progbits
 881              		.align	2
 882              		.global	u8g_DrawPolygon
 883              		.thumb
 884              		.thumb_func
 886              	u8g_DrawPolygon:
 887              	.LFB14:
 319:u8glib/u8g_polygon.c **** }
 320:u8glib/u8g_polygon.c **** 
 321:u8glib/u8g_polygon.c **** void u8g_DrawPolygon(u8g_t *u8g)
 322:u8glib/u8g_polygon.c **** {
 888              		.loc 1 322 0
 889              		.cfi_startproc
 890              		@ args = 0, pretend = 0, frame = 0
 891              		@ frame_needed = 0, uses_anonymous_args = 0
 892              	.LVL106:
 893 0000 08B5     		push	{r3, lr}
 894              	.LCFI16:
 895              		.cfi_def_cfa_offset 8
 896              		.cfi_offset 3, -8
 897              		.cfi_offset 14, -4
 323:u8glib/u8g_polygon.c ****   pg_DrawPolygon(&u8g_pg, u8g);
 898              		.loc 1 323 0
 899 0002 0146     		mov	r1, r0
 900 0004 0148     		ldr	r0, .L68
 901              	.LVL107:
 902 0006 FFF7FEFF 		bl	pg_DrawPolygon
 903              	.LVL108:
 904 000a 08BD     		pop	{r3, pc}
 905              	.L69:
 906              		.align	2
 907              	.L68:
 908 000c 00000000 		.word	u8g_pg
 909              		.cfi_endproc
 910              	.LFE14:
 912              		.section	.text.u8g_DrawTriangle,"ax",%progbits
 913              		.align	2
 914              		.global	u8g_DrawTriangle
 915              		.thumb
 916              		.thumb_func
 918              	u8g_DrawTriangle:
 919              	.LFB15:
 324:u8glib/u8g_polygon.c **** }
 325:u8glib/u8g_polygon.c **** 
 326:u8glib/u8g_polygon.c **** void u8g_DrawTriangle(u8g_t *u8g, int16_t x0, int16_t y0, int16_t x1, int16_t y1, int16_t x2, int16
 327:u8glib/u8g_polygon.c **** {
 920              		.loc 1 327 0
 921              		.cfi_startproc
 922              		@ args = 12, pretend = 0, frame = 0
 923              		@ frame_needed = 0, uses_anonymous_args = 0
 924              	.LVL109:
 925 0000 F8B5     		push	{r3, r4, r5, r6, r7, lr}
ARM GAS  C:\Users\master\AppData\Local\Temp\cccFc9Wc.s 			page 23


 926              	.LCFI17:
 927              		.cfi_def_cfa_offset 24
 928              		.cfi_offset 3, -24
 929              		.cfi_offset 4, -20
 930              		.cfi_offset 5, -16
 931              		.cfi_offset 6, -12
 932              		.cfi_offset 7, -8
 933              		.cfi_offset 14, -4
 934 0002 0446     		mov	r4, r0
 935 0004 0E46     		mov	r6, r1
 936 0006 1746     		mov	r7, r2
 937 0008 1D46     		mov	r5, r3
 328:u8glib/u8g_polygon.c ****   u8g_ClearPolygonXY();
 938              		.loc 1 328 0
 939 000a FFF7FEFF 		bl	u8g_ClearPolygonXY
 940              	.LVL110:
 329:u8glib/u8g_polygon.c ****   u8g_AddPolygonXY(u8g, x0, y0);
 941              		.loc 1 329 0
 942 000e 3A46     		mov	r2, r7
 943 0010 3146     		mov	r1, r6
 944 0012 2046     		mov	r0, r4
 945 0014 FFF7FEFF 		bl	u8g_AddPolygonXY
 946              	.LVL111:
 330:u8glib/u8g_polygon.c ****   u8g_AddPolygonXY(u8g, x1, y1);
 947              		.loc 1 330 0
 948 0018 BDF91820 		ldrsh	r2, [sp, #24]
 949 001c 2946     		mov	r1, r5
 950 001e 2046     		mov	r0, r4
 951 0020 FFF7FEFF 		bl	u8g_AddPolygonXY
 952              	.LVL112:
 331:u8glib/u8g_polygon.c ****   u8g_AddPolygonXY(u8g, x2, y2);
 953              		.loc 1 331 0
 954 0024 BDF92020 		ldrsh	r2, [sp, #32]
 955 0028 BDF91C10 		ldrsh	r1, [sp, #28]
 956 002c 2046     		mov	r0, r4
 957 002e FFF7FEFF 		bl	u8g_AddPolygonXY
 958              	.LVL113:
 332:u8glib/u8g_polygon.c ****   u8g_DrawPolygon(u8g);
 959              		.loc 1 332 0
 960 0032 2046     		mov	r0, r4
 961 0034 FFF7FEFF 		bl	u8g_DrawPolygon
 962              	.LVL114:
 963 0038 F8BD     		pop	{r3, r4, r5, r6, r7, pc}
 964              		.cfi_endproc
 965              	.LFE15:
 967              		.comm	u8g_pg,76,4
 968 003a 00BF     		.text
 969              	.Letext0:
 970              		.file 2 "c:\\program files (x86)\\gnu tools arm embedded\\5.4 2016q3\\arm-none-eabi\\include\\mach
 971              		.file 3 "c:\\program files (x86)\\gnu tools arm embedded\\5.4 2016q3\\arm-none-eabi\\include\\sys\
 972              		.file 4 "u8glib/u8g.h"
ARM GAS  C:\Users\master\AppData\Local\Temp\cccFc9Wc.s 			page 24

