ARM GAS  C:\Users\master\AppData\Local\Temp\ccyX2AUd.s 			page 1


   1              		.syntax unified
   2              		.cpu cortex-m4
   3              		.eabi_attribute 27, 1
   4              		.eabi_attribute 28, 1
   5              		.fpu fpv4-sp-d16
   6              		.eabi_attribute 20, 1
   7              		.eabi_attribute 21, 1
   8              		.eabi_attribute 23, 3
   9              		.eabi_attribute 24, 1
  10              		.eabi_attribute 25, 1
  11              		.eabi_attribute 26, 1
  12              		.eabi_attribute 30, 1
  13              		.eabi_attribute 34, 1
  14              		.eabi_attribute 18, 4
  15              		.thumb
  16              		.syntax unified
  17              		.file	"u8g_pb8h2.c"
  18              		.text
  19              	.Ltext0:
  20              		.cfi_sections	.debug_frame
  21              		.section	.text.u8g_pb8h2_set_pixel,"ax",%progbits
  22              		.align	2
  23              		.thumb
  24              		.thumb_func
  26              	u8g_pb8h2_set_pixel:
  27              	.LFB1:
  28              		.file 1 "u8glib/u8g_pb8h2.c"
   1:u8glib/u8g_pb8h2.c **** /*
   2:u8glib/u8g_pb8h2.c **** 
   3:u8glib/u8g_pb8h2.c ****   u8g_pb8h2.c
   4:u8glib/u8g_pb8h2.c ****   
   5:u8glib/u8g_pb8h2.c ****   8bit height 2 bit per pixel page buffer
   6:u8glib/u8g_pb8h2.c ****   byte has horizontal orientation
   7:u8glib/u8g_pb8h2.c **** 
   8:u8glib/u8g_pb8h2.c ****   Universal 8bit Graphics Library
   9:u8glib/u8g_pb8h2.c ****   
  10:u8glib/u8g_pb8h2.c ****   Copyright (c) 2011, olikraus@gmail.com
  11:u8glib/u8g_pb8h2.c ****   All rights reserved.
  12:u8glib/u8g_pb8h2.c **** 
  13:u8glib/u8g_pb8h2.c ****   Redistribution and use in source and binary forms, with or without modification, 
  14:u8glib/u8g_pb8h2.c ****   are permitted provided that the following conditions are met:
  15:u8glib/u8g_pb8h2.c **** 
  16:u8glib/u8g_pb8h2.c ****   * Redistributions of source code must retain the above copyright notice, this list 
  17:u8glib/u8g_pb8h2.c ****     of conditions and the following disclaimer.
  18:u8glib/u8g_pb8h2.c ****     
  19:u8glib/u8g_pb8h2.c ****   * Redistributions in binary form must reproduce the above copyright notice, this 
  20:u8glib/u8g_pb8h2.c ****     list of conditions and the following disclaimer in the documentation and/or other 
  21:u8glib/u8g_pb8h2.c ****     materials provided with the distribution.
  22:u8glib/u8g_pb8h2.c **** 
  23:u8glib/u8g_pb8h2.c ****   THIS SOFTWARE IS PROVIDED BY THE COPYRIGHT HOLDERS AND 
  24:u8glib/u8g_pb8h2.c ****   CONTRIBUTORS "AS IS" AND ANY EXPRESS OR IMPLIED WARRANTIES, 
  25:u8glib/u8g_pb8h2.c ****   INCLUDING, BUT NOT LIMITED TO, THE IMPLIED WARRANTIES OF 
  26:u8glib/u8g_pb8h2.c ****   MERCHANTABILITY AND FITNESS FOR A PARTICULAR PURPOSE ARE 
  27:u8glib/u8g_pb8h2.c ****   DISCLAIMED. IN NO EVENT SHALL THE COPYRIGHT HOLDER OR 
  28:u8glib/u8g_pb8h2.c ****   CONTRIBUTORS BE LIABLE FOR ANY DIRECT, INDIRECT, INCIDENTAL, 
  29:u8glib/u8g_pb8h2.c ****   SPECIAL, EXEMPLARY, OR CONSEQUENTIAL DAMAGES (INCLUDING, BUT 
  30:u8glib/u8g_pb8h2.c ****   NOT LIMITED TO, PROCUREMENT OF SUBSTITUTE GOODS OR SERVICES; 
ARM GAS  C:\Users\master\AppData\Local\Temp\ccyX2AUd.s 			page 2


  31:u8glib/u8g_pb8h2.c ****   LOSS OF USE, DATA, OR PROFITS; OR BUSINESS INTERRUPTION) HOWEVER 
  32:u8glib/u8g_pb8h2.c ****   CAUSED AND ON ANY THEORY OF LIABILITY, WHETHER IN CONTRACT, 
  33:u8glib/u8g_pb8h2.c ****   STRICT LIABILITY, OR TORT (INCLUDING NEGLIGENCE OR OTHERWISE) 
  34:u8glib/u8g_pb8h2.c ****   ARISING IN ANY WAY OUT OF THE USE OF THIS SOFTWARE, EVEN IF 
  35:u8glib/u8g_pb8h2.c ****   ADVISED OF THE POSSIBILITY OF SUCH DAMAGE.  
  36:u8glib/u8g_pb8h2.c ****   
  37:u8glib/u8g_pb8h2.c **** 
  38:u8glib/u8g_pb8h2.c **** */
  39:u8glib/u8g_pb8h2.c **** 
  40:u8glib/u8g_pb8h2.c **** #include "u8g.h"
  41:u8glib/u8g_pb8h2.c **** #include <string.h>
  42:u8glib/u8g_pb8h2.c **** 
  43:u8glib/u8g_pb8h2.c **** void u8g_pb8h2_Init(u8g_pb_t *b, void *buf, u8g_uint_t width)
  44:u8glib/u8g_pb8h2.c **** {
  45:u8glib/u8g_pb8h2.c ****   b->buf = buf;
  46:u8glib/u8g_pb8h2.c ****   b->width = width;
  47:u8glib/u8g_pb8h2.c ****   u8g_pb_Clear(b);
  48:u8glib/u8g_pb8h2.c **** }
  49:u8glib/u8g_pb8h2.c **** 
  50:u8glib/u8g_pb8h2.c **** static void u8g_pb8h2_set_pixel(u8g_pb_t *b, u8g_uint_t x, u8g_uint_t y, uint8_t color_index) U8G_N
  51:u8glib/u8g_pb8h2.c **** static void u8g_pb8h2_set_pixel(u8g_pb_t *b, u8g_uint_t x, u8g_uint_t y, uint8_t color_index)
  52:u8glib/u8g_pb8h2.c **** {
  29              		.loc 1 52 0
  30              		.cfi_startproc
  31              		@ args = 0, pretend = 0, frame = 0
  32              		@ frame_needed = 0, uses_anonymous_args = 0
  33              		@ link register save eliminated.
  34              	.LVL0:
  35 0000 30B4     		push	{r4, r5}
  36              	.LCFI0:
  37              		.cfi_def_cfa_offset 8
  38              		.cfi_offset 4, -8
  39              		.cfi_offset 5, -4
  53:u8glib/u8g_pb8h2.c ****   register uint8_t mask;
  54:u8glib/u8g_pb8h2.c ****   register uint16_t tmp;
  55:u8glib/u8g_pb8h2.c ****   
  56:u8glib/u8g_pb8h2.c ****   uint8_t *ptr = b->buf;
  40              		.loc 1 56 0
  41 0002 8568     		ldr	r5, [r0, #8]
  42              	.LVL1:
  57:u8glib/u8g_pb8h2.c ****   
  58:u8glib/u8g_pb8h2.c ****   y -= b->p.page_y0;
  43              		.loc 1 58 0
  44 0004 8478     		ldrb	r4, [r0, #2]	@ zero_extendqisi2
  45 0006 121B     		subs	r2, r2, r4
  46              	.LVL2:
  47 0008 D4B2     		uxtb	r4, r2
  48              	.LVL3:
  59:u8glib/u8g_pb8h2.c ****   
  60:u8glib/u8g_pb8h2.c ****   tmp = b->width;
  49              		.loc 1 60 0
  50 000a 4279     		ldrb	r2, [r0, #5]	@ zero_extendqisi2
  51              	.LVL4:
  61:u8glib/u8g_pb8h2.c ****   tmp >>= 2;
  52              		.loc 1 61 0
  53 000c 9208     		lsrs	r2, r2, #2
  54              	.LVL5:
ARM GAS  C:\Users\master\AppData\Local\Temp\ccyX2AUd.s 			page 3


  62:u8glib/u8g_pb8h2.c ****   tmp *= (uint8_t)y;
  63:u8glib/u8g_pb8h2.c ****   ptr += tmp;
  64:u8glib/u8g_pb8h2.c ****   
  65:u8glib/u8g_pb8h2.c ****   tmp = x;
  66:u8glib/u8g_pb8h2.c ****   tmp >>= 2;
  55              		.loc 1 66 0
  56 000e 8808     		lsrs	r0, r1, #2
  57              	.LVL6:
  67:u8glib/u8g_pb8h2.c ****   ptr += tmp;
  58              		.loc 1 67 0
  59 0010 04FB0202 		mla	r2, r4, r2, r0
  60              	.LVL7:
  68:u8glib/u8g_pb8h2.c ****   
  69:u8glib/u8g_pb8h2.c ****   tmp = x;
  70:u8glib/u8g_pb8h2.c ****   tmp &= 3;
  61              		.loc 1 70 0
  62 0014 01F00301 		and	r1, r1, #3
  63              	.LVL8:
  71:u8glib/u8g_pb8h2.c ****   tmp <<= 1;
  64              		.loc 1 71 0
  65 0018 4900     		lsls	r1, r1, #1
  66              	.LVL9:
  72:u8glib/u8g_pb8h2.c ****   mask = 3;
  73:u8glib/u8g_pb8h2.c ****   mask <<= tmp;
  67              		.loc 1 73 0
  68 001a 0320     		movs	r0, #3
  69 001c 8840     		lsls	r0, r0, r1
  70 001e C4B2     		uxtb	r4, r0
  71              	.LVL10:
  74:u8glib/u8g_pb8h2.c ****   mask = ~mask;
  75:u8glib/u8g_pb8h2.c ****   color_index &= 3;
  72              		.loc 1 75 0
  73 0020 03F00303 		and	r3, r3, #3
  74              	.LVL11:
  76:u8glib/u8g_pb8h2.c ****   color_index <<= tmp;
  75              		.loc 1 76 0
  76 0024 03FA01F1 		lsl	r1, r3, r1
  77              	.LVL12:
  78 0028 C9B2     		uxtb	r1, r1
  79              	.LVL13:
  77:u8glib/u8g_pb8h2.c ****     
  78:u8glib/u8g_pb8h2.c ****   *ptr &= mask;
  80              		.loc 1 78 0
  81 002a A85C     		ldrb	r0, [r5, r2]	@ zero_extendqisi2
  82 002c 20EA0400 		bic	r0, r0, r4
  79:u8glib/u8g_pb8h2.c ****   *ptr |= color_index;
  83              		.loc 1 79 0
  84 0030 0143     		orrs	r1, r1, r0
  85              	.LVL14:
  86 0032 A954     		strb	r1, [r5, r2]
  80:u8glib/u8g_pb8h2.c **** }
  87              		.loc 1 80 0
  88 0034 30BC     		pop	{r4, r5}
  89              	.LCFI1:
  90              		.cfi_restore 5
  91              		.cfi_restore 4
  92              		.cfi_def_cfa_offset 0
ARM GAS  C:\Users\master\AppData\Local\Temp\ccyX2AUd.s 			page 4


  93              	.LVL15:
  94 0036 7047     		bx	lr
  95              		.cfi_endproc
  96              	.LFE1:
  98              		.section	.text.u8g_pb8h2_Init,"ax",%progbits
  99              		.align	2
 100              		.global	u8g_pb8h2_Init
 101              		.thumb
 102              		.thumb_func
 104              	u8g_pb8h2_Init:
 105              	.LFB0:
  44:u8glib/u8g_pb8h2.c ****   b->buf = buf;
 106              		.loc 1 44 0
 107              		.cfi_startproc
 108              		@ args = 0, pretend = 0, frame = 0
 109              		@ frame_needed = 0, uses_anonymous_args = 0
 110              	.LVL16:
 111 0000 08B5     		push	{r3, lr}
 112              	.LCFI2:
 113              		.cfi_def_cfa_offset 8
 114              		.cfi_offset 3, -8
 115              		.cfi_offset 14, -4
  45:u8glib/u8g_pb8h2.c ****   b->width = width;
 116              		.loc 1 45 0
 117 0002 8160     		str	r1, [r0, #8]
  46:u8glib/u8g_pb8h2.c ****   u8g_pb_Clear(b);
 118              		.loc 1 46 0
 119 0004 4271     		strb	r2, [r0, #5]
  47:u8glib/u8g_pb8h2.c **** }
 120              		.loc 1 47 0
 121 0006 FFF7FEFF 		bl	u8g_pb_Clear
 122              	.LVL17:
 123 000a 08BD     		pop	{r3, pc}
 124              		.cfi_endproc
 125              	.LFE0:
 127              		.section	.text.u8g_pb8h2_SetPixel,"ax",%progbits
 128              		.align	2
 129              		.global	u8g_pb8h2_SetPixel
 130              		.thumb
 131              		.thumb_func
 133              	u8g_pb8h2_SetPixel:
 134              	.LFB2:
  81:u8glib/u8g_pb8h2.c **** 
  82:u8glib/u8g_pb8h2.c **** 
  83:u8glib/u8g_pb8h2.c **** void u8g_pb8h2_SetPixel(u8g_pb_t *b, const u8g_dev_arg_pixel_t * const arg_pixel)
  84:u8glib/u8g_pb8h2.c **** {
 135              		.loc 1 84 0
 136              		.cfi_startproc
 137              		@ args = 0, pretend = 0, frame = 0
 138              		@ frame_needed = 0, uses_anonymous_args = 0
 139              	.LVL18:
  85:u8glib/u8g_pb8h2.c ****   if ( arg_pixel->y < b->p.page_y0 )
 140              		.loc 1 85 0
 141 0000 4A78     		ldrb	r2, [r1, #1]	@ zero_extendqisi2
 142 0002 8378     		ldrb	r3, [r0, #2]	@ zero_extendqisi2
 143 0004 9A42     		cmp	r2, r3
 144 0006 0CD3     		bcc	.L8
ARM GAS  C:\Users\master\AppData\Local\Temp\ccyX2AUd.s 			page 5


  86:u8glib/u8g_pb8h2.c ****     return;
  87:u8glib/u8g_pb8h2.c ****   if ( arg_pixel->y > b->p.page_y1 )
 145              		.loc 1 87 0
 146 0008 C378     		ldrb	r3, [r0, #3]	@ zero_extendqisi2
 147 000a 9A42     		cmp	r2, r3
 148 000c 09D8     		bhi	.L8
  84:u8glib/u8g_pb8h2.c ****   if ( arg_pixel->y < b->p.page_y0 )
 149              		.loc 1 84 0
 150 000e 10B5     		push	{r4, lr}
 151              	.LCFI3:
 152              		.cfi_def_cfa_offset 8
 153              		.cfi_offset 4, -8
 154              		.cfi_offset 14, -4
  88:u8glib/u8g_pb8h2.c ****     return;
  89:u8glib/u8g_pb8h2.c ****   if ( arg_pixel->x >= b->width )
 155              		.loc 1 89 0
 156 0010 0C78     		ldrb	r4, [r1]	@ zero_extendqisi2
 157 0012 4379     		ldrb	r3, [r0, #5]	@ zero_extendqisi2
 158 0014 9C42     		cmp	r4, r3
 159 0016 03D2     		bcs	.L5
  90:u8glib/u8g_pb8h2.c ****     return;
  91:u8glib/u8g_pb8h2.c ****   u8g_pb8h2_set_pixel(b, arg_pixel->x, arg_pixel->y, arg_pixel->color);
 160              		.loc 1 91 0
 161 0018 0B79     		ldrb	r3, [r1, #4]	@ zero_extendqisi2
 162 001a 2146     		mov	r1, r4
 163              	.LVL19:
 164 001c FFF7FEFF 		bl	u8g_pb8h2_set_pixel
 165              	.LVL20:
 166              	.L5:
 167 0020 10BD     		pop	{r4, pc}
 168              	.LVL21:
 169              	.L8:
 170              	.LCFI4:
 171              		.cfi_def_cfa_offset 0
 172              		.cfi_restore 4
 173              		.cfi_restore 14
 174 0022 7047     		bx	lr
 175              		.cfi_endproc
 176              	.LFE2:
 178              		.section	.text.u8g_pb8h2_Set8PixelStd,"ax",%progbits
 179              		.align	2
 180              		.global	u8g_pb8h2_Set8PixelStd
 181              		.thumb
 182              		.thumb_func
 184              	u8g_pb8h2_Set8PixelStd:
 185              	.LFB3:
  92:u8glib/u8g_pb8h2.c **** }
  93:u8glib/u8g_pb8h2.c **** 
  94:u8glib/u8g_pb8h2.c **** 
  95:u8glib/u8g_pb8h2.c **** void u8g_pb8h2_Set8PixelStd(u8g_pb_t *b, u8g_dev_arg_pixel_t *arg_pixel)
  96:u8glib/u8g_pb8h2.c **** {
 186              		.loc 1 96 0
 187              		.cfi_startproc
 188              		@ args = 0, pretend = 0, frame = 0
 189              		@ frame_needed = 0, uses_anonymous_args = 0
 190              	.LVL22:
 191 0000 70B5     		push	{r4, r5, r6, lr}
ARM GAS  C:\Users\master\AppData\Local\Temp\ccyX2AUd.s 			page 6


 192              	.LCFI5:
 193              		.cfi_def_cfa_offset 16
 194              		.cfi_offset 4, -16
 195              		.cfi_offset 5, -12
 196              		.cfi_offset 6, -8
 197              		.cfi_offset 14, -4
 198 0002 0646     		mov	r6, r0
 199 0004 0D46     		mov	r5, r1
  97:u8glib/u8g_pb8h2.c ****   register uint8_t pixel = arg_pixel->pixel;
 200              		.loc 1 97 0
 201 0006 8C78     		ldrb	r4, [r1, #2]	@ zero_extendqisi2
 202              	.LVL23:
 203              	.L17:
  98:u8glib/u8g_pb8h2.c ****   do
  99:u8glib/u8g_pb8h2.c ****   {
 100:u8glib/u8g_pb8h2.c ****     if ( pixel & 128 )
 204              		.loc 1 100 0
 205 0008 14F0800F 		tst	r4, #128
 206 000c 03D0     		beq	.L10
 101:u8glib/u8g_pb8h2.c ****     {
 102:u8glib/u8g_pb8h2.c ****       u8g_pb8h2_SetPixel(b, arg_pixel);
 207              		.loc 1 102 0
 208 000e 2946     		mov	r1, r5
 209 0010 3046     		mov	r0, r6
 210 0012 FFF7FEFF 		bl	u8g_pb8h2_SetPixel
 211              	.LVL24:
 212              	.L10:
 103:u8glib/u8g_pb8h2.c ****     }
 104:u8glib/u8g_pb8h2.c ****     switch( arg_pixel->dir )
 213              		.loc 1 104 0
 214 0016 EB78     		ldrb	r3, [r5, #3]	@ zero_extendqisi2
 215 0018 032B     		cmp	r3, #3
 216 001a 12D8     		bhi	.L11
 217 001c DFE803F0 		tbb	[pc, r3]
 218              	.L13:
 219 0020 02       		.byte	(.L12-.L13)/2
 220 0021 06       		.byte	(.L14-.L13)/2
 221 0022 0A       		.byte	(.L15-.L13)/2
 222 0023 0E       		.byte	(.L16-.L13)/2
 223              		.p2align 1
 224              	.L12:
 105:u8glib/u8g_pb8h2.c ****     {
 106:u8glib/u8g_pb8h2.c ****       case 0: arg_pixel->x++; break;
 225              		.loc 1 106 0
 226 0024 2B78     		ldrb	r3, [r5]	@ zero_extendqisi2
 227 0026 0133     		adds	r3, r3, #1
 228 0028 2B70     		strb	r3, [r5]
 229 002a 0AE0     		b	.L11
 230              	.L14:
 107:u8glib/u8g_pb8h2.c ****       case 1: arg_pixel->y++; break;
 231              		.loc 1 107 0
 232 002c 6B78     		ldrb	r3, [r5, #1]	@ zero_extendqisi2
 233 002e 0133     		adds	r3, r3, #1
 234 0030 6B70     		strb	r3, [r5, #1]
 235 0032 06E0     		b	.L11
 236              	.L15:
 108:u8glib/u8g_pb8h2.c ****       case 2: arg_pixel->x--; break;
ARM GAS  C:\Users\master\AppData\Local\Temp\ccyX2AUd.s 			page 7


 237              		.loc 1 108 0
 238 0034 2B78     		ldrb	r3, [r5]	@ zero_extendqisi2
 239 0036 013B     		subs	r3, r3, #1
 240 0038 2B70     		strb	r3, [r5]
 241 003a 02E0     		b	.L11
 242              	.L16:
 109:u8glib/u8g_pb8h2.c ****       case 3: arg_pixel->y--; break;
 243              		.loc 1 109 0
 244 003c 6B78     		ldrb	r3, [r5, #1]	@ zero_extendqisi2
 245 003e 013B     		subs	r3, r3, #1
 246 0040 6B70     		strb	r3, [r5, #1]
 247              	.L11:
 110:u8glib/u8g_pb8h2.c ****     }
 111:u8glib/u8g_pb8h2.c ****     pixel <<= 1;
 248              		.loc 1 111 0
 249 0042 6400     		lsls	r4, r4, #1
 250              	.LVL25:
 112:u8glib/u8g_pb8h2.c ****   } while( pixel != 0  );
 251              		.loc 1 112 0
 252 0044 14F0FF04 		ands	r4, r4, #255
 253              	.LVL26:
 254 0048 DED1     		bne	.L17
 113:u8glib/u8g_pb8h2.c **** }
 255              		.loc 1 113 0
 256 004a 70BD     		pop	{r4, r5, r6, pc}
 257              		.cfi_endproc
 258              	.LFE3:
 260              		.section	.text.u8g_dev_pb8h2_base_fn,"ax",%progbits
 261              		.align	2
 262              		.global	u8g_dev_pb8h2_base_fn
 263              		.thumb
 264              		.thumb_func
 266              	u8g_dev_pb8h2_base_fn:
 267              	.LFB4:
 114:u8glib/u8g_pb8h2.c **** 
 115:u8glib/u8g_pb8h2.c **** 
 116:u8glib/u8g_pb8h2.c **** 
 117:u8glib/u8g_pb8h2.c **** uint8_t u8g_dev_pb8h2_base_fn(u8g_t *u8g, u8g_dev_t *dev, uint8_t msg, void *arg)
 118:u8glib/u8g_pb8h2.c **** {
 268              		.loc 1 118 0
 269              		.cfi_startproc
 270              		@ args = 0, pretend = 0, frame = 0
 271              		@ frame_needed = 0, uses_anonymous_args = 0
 272              	.LVL27:
 273 0000 38B5     		push	{r3, r4, r5, lr}
 274              	.LCFI6:
 275              		.cfi_def_cfa_offset 16
 276              		.cfi_offset 3, -16
 277              		.cfi_offset 4, -12
 278              		.cfi_offset 5, -8
 279              		.cfi_offset 14, -4
 280 0002 1D46     		mov	r5, r3
 119:u8glib/u8g_pb8h2.c ****   u8g_pb_t *pb = (u8g_pb_t *)(dev->dev_mem);
 281              		.loc 1 119 0
 282 0004 4C68     		ldr	r4, [r1, #4]
 283              	.LVL28:
 120:u8glib/u8g_pb8h2.c ****   switch(msg)
ARM GAS  C:\Users\master\AppData\Local\Temp\ccyX2AUd.s 			page 8


 284              		.loc 1 120 0
 285 0006 143A     		subs	r2, r2, #20
 286              	.LVL29:
 287 0008 342A     		cmp	r2, #52
 288 000a 4FD8     		bhi	.L30
 289 000c DFE802F0 		tbb	[pc, r2]
 290              	.LVL30:
 291              	.L22:
 292 0010 2E       		.byte	(.L21-.L22)/2
 293 0011 36       		.byte	(.L23-.L22)/2
 294 0012 4E       		.byte	(.L30-.L22)/2
 295 0013 40       		.byte	(.L24-.L22)/2
 296 0014 4E       		.byte	(.L30-.L22)/2
 297 0015 4E       		.byte	(.L30-.L22)/2
 298 0016 4E       		.byte	(.L30-.L22)/2
 299 0017 4E       		.byte	(.L30-.L22)/2
 300 0018 4E       		.byte	(.L30-.L22)/2
 301 0019 4E       		.byte	(.L30-.L22)/2
 302 001a 4E       		.byte	(.L30-.L22)/2
 303 001b 4E       		.byte	(.L30-.L22)/2
 304 001c 4E       		.byte	(.L30-.L22)/2
 305 001d 4E       		.byte	(.L30-.L22)/2
 306 001e 4E       		.byte	(.L30-.L22)/2
 307 001f 4E       		.byte	(.L30-.L22)/2
 308 0020 4E       		.byte	(.L30-.L22)/2
 309 0021 4E       		.byte	(.L30-.L22)/2
 310 0022 4E       		.byte	(.L30-.L22)/2
 311 0023 4E       		.byte	(.L30-.L22)/2
 312 0024 4E       		.byte	(.L30-.L22)/2
 313 0025 4E       		.byte	(.L30-.L22)/2
 314 0026 4E       		.byte	(.L30-.L22)/2
 315 0027 4E       		.byte	(.L30-.L22)/2
 316 0028 4E       		.byte	(.L30-.L22)/2
 317 0029 4E       		.byte	(.L30-.L22)/2
 318 002a 4E       		.byte	(.L30-.L22)/2
 319 002b 4E       		.byte	(.L30-.L22)/2
 320 002c 4E       		.byte	(.L30-.L22)/2
 321 002d 4E       		.byte	(.L30-.L22)/2
 322 002e 28       		.byte	(.L25-.L22)/2
 323 002f 4E       		.byte	(.L30-.L22)/2
 324 0030 4E       		.byte	(.L30-.L22)/2
 325 0031 4E       		.byte	(.L30-.L22)/2
 326 0032 4E       		.byte	(.L30-.L22)/2
 327 0033 4E       		.byte	(.L30-.L22)/2
 328 0034 4E       		.byte	(.L30-.L22)/2
 329 0035 4E       		.byte	(.L30-.L22)/2
 330 0036 4E       		.byte	(.L30-.L22)/2
 331 0037 1D       		.byte	(.L26-.L22)/2
 332 0038 4E       		.byte	(.L30-.L22)/2
 333 0039 4E       		.byte	(.L30-.L22)/2
 334 003a 4E       		.byte	(.L30-.L22)/2
 335 003b 4E       		.byte	(.L30-.L22)/2
 336 003c 4E       		.byte	(.L30-.L22)/2
 337 003d 4E       		.byte	(.L30-.L22)/2
 338 003e 4E       		.byte	(.L30-.L22)/2
 339 003f 4E       		.byte	(.L30-.L22)/2
 340 0040 4E       		.byte	(.L30-.L22)/2
ARM GAS  C:\Users\master\AppData\Local\Temp\ccyX2AUd.s 			page 9


 341 0041 4E       		.byte	(.L30-.L22)/2
 342 0042 46       		.byte	(.L27-.L22)/2
 343 0043 4A       		.byte	(.L28-.L22)/2
 344 0044 1B       		.byte	(.L29-.L22)/2
 345 0045 00       		.p2align 1
 346              	.L29:
 121:u8glib/u8g_pb8h2.c ****   {
 122:u8glib/u8g_pb8h2.c ****     case U8G_DEV_MSG_SET_8PIXEL:
 123:u8glib/u8g_pb8h2.c ****       if ( u8g_pb_Is8PixelVisible(pb, (u8g_dev_arg_pixel_t *)arg) )
 124:u8glib/u8g_pb8h2.c ****       {
 125:u8glib/u8g_pb8h2.c ****         u8g_pb8h2_Set8PixelStd(pb, (u8g_dev_arg_pixel_t *)arg);
 126:u8glib/u8g_pb8h2.c ****       }
 127:u8glib/u8g_pb8h2.c ****       break;
 128:u8glib/u8g_pb8h2.c ****     case U8G_DEV_MSG_SET_PIXEL:
 129:u8glib/u8g_pb8h2.c ****       u8g_pb8h2_SetPixel(pb, (u8g_dev_arg_pixel_t *)arg);
 130:u8glib/u8g_pb8h2.c ****       break;
 131:u8glib/u8g_pb8h2.c ****     case U8G_DEV_MSG_INIT:
 132:u8glib/u8g_pb8h2.c ****       break;
 133:u8glib/u8g_pb8h2.c ****     case U8G_DEV_MSG_STOP:
 134:u8glib/u8g_pb8h2.c ****       break;
 135:u8glib/u8g_pb8h2.c ****     case U8G_DEV_MSG_PAGE_FIRST:
 136:u8glib/u8g_pb8h2.c ****       u8g_pb_Clear(pb);
 137:u8glib/u8g_pb8h2.c ****       u8g_page_First(&(pb->p));
 138:u8glib/u8g_pb8h2.c ****       break;
 139:u8glib/u8g_pb8h2.c ****     case U8G_DEV_MSG_PAGE_NEXT:
 140:u8glib/u8g_pb8h2.c ****       if ( u8g_page_Next(&(pb->p)) == 0 )
 141:u8glib/u8g_pb8h2.c ****         return 0;
 142:u8glib/u8g_pb8h2.c ****       u8g_pb_Clear(pb);
 143:u8glib/u8g_pb8h2.c ****       break;
 144:u8glib/u8g_pb8h2.c **** #ifdef U8G_DEV_MSG_IS_BBX_INTERSECTION
 145:u8glib/u8g_pb8h2.c ****     case U8G_DEV_MSG_IS_BBX_INTERSECTION:
 146:u8glib/u8g_pb8h2.c ****       return u8g_pb_IsIntersection(pb, (u8g_dev_arg_bbx_t *)arg);
 147:u8glib/u8g_pb8h2.c **** #endif
 148:u8glib/u8g_pb8h2.c ****     case U8G_DEV_MSG_GET_PAGE_BOX:
 149:u8glib/u8g_pb8h2.c ****       u8g_pb_GetPageBox(pb, (u8g_box_t *)arg);
 150:u8glib/u8g_pb8h2.c ****       break;
 151:u8glib/u8g_pb8h2.c ****     case U8G_DEV_MSG_GET_WIDTH:
 152:u8glib/u8g_pb8h2.c ****       *((u8g_uint_t *)arg) = pb->width;
 153:u8glib/u8g_pb8h2.c ****       break;
 154:u8glib/u8g_pb8h2.c ****     case U8G_DEV_MSG_GET_HEIGHT:
 155:u8glib/u8g_pb8h2.c ****       *((u8g_uint_t *)arg) = pb->p.total_height;
 156:u8glib/u8g_pb8h2.c ****       break;
 157:u8glib/u8g_pb8h2.c ****     case U8G_DEV_MSG_SET_COLOR_ENTRY:
 158:u8glib/u8g_pb8h2.c ****       break;
 159:u8glib/u8g_pb8h2.c ****     case U8G_DEV_MSG_SET_XY_CB:
 160:u8glib/u8g_pb8h2.c ****       break;
 161:u8glib/u8g_pb8h2.c ****     case U8G_DEV_MSG_GET_MODE:
 162:u8glib/u8g_pb8h2.c ****       return U8G_MODE_GRAY2BIT;
 347              		.loc 1 162 0
 348 0046 0223     		movs	r3, #2
 349 0048 33E0     		b	.L20
 350              	.L26:
 123:u8glib/u8g_pb8h2.c ****       {
 351              		.loc 1 123 0
 352 004a 2946     		mov	r1, r5
 353              	.LVL31:
 354 004c 2046     		mov	r0, r4
ARM GAS  C:\Users\master\AppData\Local\Temp\ccyX2AUd.s 			page 10


 355              	.LVL32:
 356 004e FFF7FEFF 		bl	u8g_pb_Is8PixelVisible
 357              	.LVL33:
 358 0052 68B3     		cbz	r0, .L31
 125:u8glib/u8g_pb8h2.c ****       }
 359              		.loc 1 125 0
 360 0054 2946     		mov	r1, r5
 361 0056 2046     		mov	r0, r4
 362 0058 FFF7FEFF 		bl	u8g_pb8h2_Set8PixelStd
 363              	.LVL34:
 163:u8glib/u8g_pb8h2.c ****   }
 164:u8glib/u8g_pb8h2.c ****   return 1;
 364              		.loc 1 164 0
 365 005c 0123     		movs	r3, #1
 366 005e 28E0     		b	.L20
 367              	.LVL35:
 368              	.L25:
 129:u8glib/u8g_pb8h2.c ****       break;
 369              		.loc 1 129 0
 370 0060 2946     		mov	r1, r5
 371              	.LVL36:
 372 0062 2046     		mov	r0, r4
 373              	.LVL37:
 374 0064 FFF7FEFF 		bl	u8g_pb8h2_SetPixel
 375              	.LVL38:
 376              		.loc 1 164 0
 377 0068 0123     		movs	r3, #1
 130:u8glib/u8g_pb8h2.c ****     case U8G_DEV_MSG_INIT:
 378              		.loc 1 130 0
 379 006a 22E0     		b	.L20
 380              	.LVL39:
 381              	.L21:
 136:u8glib/u8g_pb8h2.c ****       u8g_page_First(&(pb->p));
 382              		.loc 1 136 0
 383 006c 2046     		mov	r0, r4
 384              	.LVL40:
 385 006e FFF7FEFF 		bl	u8g_pb_Clear
 386              	.LVL41:
 137:u8glib/u8g_pb8h2.c ****       break;
 387              		.loc 1 137 0
 388 0072 2046     		mov	r0, r4
 389 0074 FFF7FEFF 		bl	u8g_page_First
 390              	.LVL42:
 391              		.loc 1 164 0
 392 0078 0123     		movs	r3, #1
 138:u8glib/u8g_pb8h2.c ****     case U8G_DEV_MSG_PAGE_NEXT:
 393              		.loc 1 138 0
 394 007a 1AE0     		b	.L20
 395              	.LVL43:
 396              	.L23:
 140:u8glib/u8g_pb8h2.c ****         return 0;
 397              		.loc 1 140 0
 398 007c 2046     		mov	r0, r4
 399              	.LVL44:
 400 007e FFF7FEFF 		bl	u8g_page_Next
 401              	.LVL45:
 402 0082 0346     		mov	r3, r0
ARM GAS  C:\Users\master\AppData\Local\Temp\ccyX2AUd.s 			page 11


 403 0084 A8B1     		cbz	r0, .L20
 142:u8glib/u8g_pb8h2.c ****       break;
 404              		.loc 1 142 0
 405 0086 2046     		mov	r0, r4
 406 0088 FFF7FEFF 		bl	u8g_pb_Clear
 407              	.LVL46:
 408              		.loc 1 164 0
 409 008c 0123     		movs	r3, #1
 143:u8glib/u8g_pb8h2.c **** #ifdef U8G_DEV_MSG_IS_BBX_INTERSECTION
 410              		.loc 1 143 0
 411 008e 10E0     		b	.L20
 412              	.LVL47:
 413              	.L24:
 149:u8glib/u8g_pb8h2.c ****       break;
 414              		.loc 1 149 0
 415 0090 2946     		mov	r1, r5
 416              	.LVL48:
 417 0092 2046     		mov	r0, r4
 418              	.LVL49:
 419 0094 FFF7FEFF 		bl	u8g_pb_GetPageBox
 420              	.LVL50:
 421              		.loc 1 164 0
 422 0098 0123     		movs	r3, #1
 150:u8glib/u8g_pb8h2.c ****     case U8G_DEV_MSG_GET_WIDTH:
 423              		.loc 1 150 0
 424 009a 0AE0     		b	.L20
 425              	.LVL51:
 426              	.L27:
 152:u8glib/u8g_pb8h2.c ****       break;
 427              		.loc 1 152 0
 428 009c 6379     		ldrb	r3, [r4, #5]	@ zero_extendqisi2
 429 009e 2B70     		strb	r3, [r5]
 430              		.loc 1 164 0
 431 00a0 0123     		movs	r3, #1
 153:u8glib/u8g_pb8h2.c ****     case U8G_DEV_MSG_GET_HEIGHT:
 432              		.loc 1 153 0
 433 00a2 06E0     		b	.L20
 434              	.L28:
 155:u8glib/u8g_pb8h2.c ****       break;
 435              		.loc 1 155 0
 436 00a4 6378     		ldrb	r3, [r4, #1]	@ zero_extendqisi2
 437 00a6 2B70     		strb	r3, [r5]
 438              		.loc 1 164 0
 439 00a8 0123     		movs	r3, #1
 156:u8glib/u8g_pb8h2.c ****     case U8G_DEV_MSG_SET_COLOR_ENTRY:
 440              		.loc 1 156 0
 441 00aa 02E0     		b	.L20
 442              	.L30:
 443              		.loc 1 164 0
 444 00ac 0123     		movs	r3, #1
 445 00ae 00E0     		b	.L20
 446              	.LVL52:
 447              	.L31:
 448 00b0 0123     		movs	r3, #1
 449              	.L20:
 165:u8glib/u8g_pb8h2.c **** }
 450              		.loc 1 165 0
ARM GAS  C:\Users\master\AppData\Local\Temp\ccyX2AUd.s 			page 12


 451 00b2 1846     		mov	r0, r3
 452 00b4 38BD     		pop	{r3, r4, r5, pc}
 453              		.cfi_endproc
 454              	.LFE4:
 456 00b6 00BF     		.text
 457              	.Letext0:
 458              		.file 2 "c:\\program files (x86)\\gnu tools arm embedded\\5.4 2016q3\\arm-none-eabi\\include\\mach
 459              		.file 3 "c:\\program files (x86)\\gnu tools arm embedded\\5.4 2016q3\\arm-none-eabi\\include\\sys\
 460              		.file 4 "u8glib/u8g.h"
ARM GAS  C:\Users\master\AppData\Local\Temp\ccyX2AUd.s 			page 13

