ARM GAS  C:\Users\master\AppData\Local\Temp\ccWViyoZ.s 			page 1


   1              		.syntax unified
   2              		.cpu cortex-m4
   3              		.eabi_attribute 27, 1
   4              		.eabi_attribute 28, 1
   5              		.fpu fpv4-sp-d16
   6              		.eabi_attribute 20, 1
   7              		.eabi_attribute 21, 1
   8              		.eabi_attribute 23, 3
   9              		.eabi_attribute 24, 1
  10              		.eabi_attribute 25, 1
  11              		.eabi_attribute 26, 1
  12              		.eabi_attribute 30, 1
  13              		.eabi_attribute 34, 1
  14              		.eabi_attribute 18, 4
  15              		.thumb
  16              		.syntax unified
  17              		.file	"u8g_circle.c"
  18              		.text
  19              	.Ltext0:
  20              		.cfi_sections	.debug_frame
  21              		.section	.text.u8g_draw_circle_section,"ax",%progbits
  22              		.align	2
  23              		.thumb
  24              		.thumb_func
  26              	u8g_draw_circle_section:
  27              	.LFB0:
  28              		.file 1 "u8glib/u8g_circle.c"
   1:u8glib/u8g_circle.c **** /*
   2:u8glib/u8g_circle.c **** 
   3:u8glib/u8g_circle.c ****   u8g_circle.c
   4:u8glib/u8g_circle.c **** 
   5:u8glib/u8g_circle.c ****   Utility to draw empty and filled circles.
   6:u8glib/u8g_circle.c ****   
   7:u8glib/u8g_circle.c ****   Universal 8bit Graphics Library
   8:u8glib/u8g_circle.c ****   
   9:u8glib/u8g_circle.c ****   Copyright (c) 2011, bjthom@gmail.com
  10:u8glib/u8g_circle.c ****   u8g_DrawCircle & u8g_DrawDisc by olikraus@gmail.com
  11:u8glib/u8g_circle.c ****   
  12:u8glib/u8g_circle.c ****   All rights reserved.
  13:u8glib/u8g_circle.c **** 
  14:u8glib/u8g_circle.c ****   Redistribution and use in source and binary forms, with or without modification, 
  15:u8glib/u8g_circle.c ****   are permitted provided that the following conditions are met:
  16:u8glib/u8g_circle.c **** 
  17:u8glib/u8g_circle.c ****   * Redistributions of source code must retain the above copyright notice, this list 
  18:u8glib/u8g_circle.c ****     of conditions and the following disclaimer.
  19:u8glib/u8g_circle.c ****     
  20:u8glib/u8g_circle.c ****   * Redistributions in binary form must reproduce the above copyright notice, this 
  21:u8glib/u8g_circle.c ****     list of conditions and the following disclaimer in the documentation and/or other 
  22:u8glib/u8g_circle.c ****     materials provided with the distribution.
  23:u8glib/u8g_circle.c **** 
  24:u8glib/u8g_circle.c ****   THIS SOFTWARE IS PROVIDED BY THE COPYRIGHT HOLDERS AND 
  25:u8glib/u8g_circle.c ****   CONTRIBUTORS "AS IS" AND ANY EXPRESS OR IMPLIED WARRANTIES, 
  26:u8glib/u8g_circle.c ****   INCLUDING, BUT NOT LIMITED TO, THE IMPLIED WARRANTIES OF 
  27:u8glib/u8g_circle.c ****   MERCHANTABILITY AND FITNESS FOR A PARTICULAR PURPOSE ARE 
  28:u8glib/u8g_circle.c ****   DISCLAIMED. IN NO EVENT SHALL THE COPYRIGHT HOLDER OR 
  29:u8glib/u8g_circle.c ****   CONTRIBUTORS BE LIABLE FOR ANY DIRECT, INDIRECT, INCIDENTAL, 
  30:u8glib/u8g_circle.c ****   SPECIAL, EXEMPLARY, OR CONSEQUENTIAL DAMAGES (INCLUDING, BUT 
ARM GAS  C:\Users\master\AppData\Local\Temp\ccWViyoZ.s 			page 2


  31:u8glib/u8g_circle.c ****   NOT LIMITED TO, PROCUREMENT OF SUBSTITUTE GOODS OR SERVICES; 
  32:u8glib/u8g_circle.c ****   LOSS OF USE, DATA, OR PROFITS; OR BUSINESS INTERRUPTION) HOWEVER 
  33:u8glib/u8g_circle.c ****   CAUSED AND ON ANY THEORY OF LIABILITY, WHETHER IN CONTRACT, 
  34:u8glib/u8g_circle.c ****   STRICT LIABILITY, OR TORT (INCLUDING NEGLIGENCE OR OTHERWISE) 
  35:u8glib/u8g_circle.c ****   ARISING IN ANY WAY OUT OF THE USE OF THIS SOFTWARE, EVEN IF 
  36:u8glib/u8g_circle.c ****   ADVISED OF THE POSSIBILITY OF SUCH DAMAGE.  
  37:u8glib/u8g_circle.c ****   
  38:u8glib/u8g_circle.c ****   Addition to the U8G Library 02/25/12
  39:u8glib/u8g_circle.c ****   
  40:u8glib/u8g_circle.c ****   
  41:u8glib/u8g_circle.c **** */
  42:u8glib/u8g_circle.c **** 
  43:u8glib/u8g_circle.c **** #include "u8g.h"
  44:u8glib/u8g_circle.c **** 
  45:u8glib/u8g_circle.c **** #ifdef OLD_CODE
  46:u8glib/u8g_circle.c **** 
  47:u8glib/u8g_circle.c **** void circ_upperRight(u8g_t *u8g, u8g_uint_t x, u8g_uint_t y, u8g_uint_t x0, u8g_uint_t y0) {
  48:u8glib/u8g_circle.c ****   u8g_DrawPixel(u8g, x0 + x, y0 - y);
  49:u8glib/u8g_circle.c ****   u8g_DrawPixel(u8g, x0 + y, y0 - x);
  50:u8glib/u8g_circle.c **** }
  51:u8glib/u8g_circle.c **** 		
  52:u8glib/u8g_circle.c **** void circ_upperLeft(u8g_t *u8g, u8g_uint_t x, u8g_uint_t y, u8g_uint_t x0, u8g_uint_t y0) {
  53:u8glib/u8g_circle.c ****   u8g_DrawPixel(u8g, x0 - x, y0 - y);
  54:u8glib/u8g_circle.c ****   u8g_DrawPixel(u8g, x0 - y, y0 - x);
  55:u8glib/u8g_circle.c **** }
  56:u8glib/u8g_circle.c **** 		
  57:u8glib/u8g_circle.c **** void circ_lowerRight(u8g_t *u8g, u8g_uint_t x, u8g_uint_t y, u8g_uint_t x0, u8g_uint_t y0) {
  58:u8glib/u8g_circle.c ****   u8g_DrawPixel(u8g, x0 + x, y0 + y);
  59:u8glib/u8g_circle.c ****   u8g_DrawPixel(u8g, x0 + y, y0 + x);
  60:u8glib/u8g_circle.c **** }
  61:u8glib/u8g_circle.c **** 		
  62:u8glib/u8g_circle.c **** void circ_lowerLeft(u8g_t *u8g, u8g_uint_t x, u8g_uint_t y, u8g_uint_t x0, u8g_uint_t y0) {
  63:u8glib/u8g_circle.c ****   u8g_DrawPixel(u8g, x0 - x, y0 + y);
  64:u8glib/u8g_circle.c ****   u8g_DrawPixel(u8g, x0 - y, y0 + x);
  65:u8glib/u8g_circle.c **** }
  66:u8glib/u8g_circle.c **** 			
  67:u8glib/u8g_circle.c **** void circ_all(u8g_t *u8g, u8g_uint_t x, u8g_uint_t y, u8g_uint_t x0, u8g_uint_t y0) {
  68:u8glib/u8g_circle.c ****   circ_upperRight(u8g, x, y, x0, y0);
  69:u8glib/u8g_circle.c ****   circ_upperLeft(u8g, x, y, x0, y0);
  70:u8glib/u8g_circle.c ****   circ_lowerRight(u8g, x, y, x0, y0);
  71:u8glib/u8g_circle.c ****   circ_lowerLeft(u8g, x, y, x0, y0);
  72:u8glib/u8g_circle.c **** }
  73:u8glib/u8g_circle.c **** 
  74:u8glib/u8g_circle.c **** void u8g_DrawEmpCirc(u8g_t *u8g, u8g_uint_t x0, u8g_uint_t y0, u8g_uint_t rad, uint8_t option)
  75:u8glib/u8g_circle.c **** {
  76:u8glib/u8g_circle.c ****   if ( u8g_IsBBXIntersection(u8g, x0-rad-1, y0-rad-1, 2*rad+1, 2*rad+1) == 0)
  77:u8glib/u8g_circle.c ****     return;
  78:u8glib/u8g_circle.c **** 
  79:u8glib/u8g_circle.c ****   int f = 1 - rad;
  80:u8glib/u8g_circle.c ****   int ddF_x = 1;
  81:u8glib/u8g_circle.c ****   int ddF_y = -2*rad;
  82:u8glib/u8g_circle.c ****   uint8_t x = 0;
  83:u8glib/u8g_circle.c ****   uint8_t y = rad;
  84:u8glib/u8g_circle.c **** 
  85:u8glib/u8g_circle.c ****   void ( *circ_util )(u8g_t *, u8g_uint_t, u8g_uint_t, u8g_uint_t, u8g_uint_t);
  86:u8glib/u8g_circle.c ****   
  87:u8glib/u8g_circle.c ****   switch (option)
ARM GAS  C:\Users\master\AppData\Local\Temp\ccWViyoZ.s 			page 3


  88:u8glib/u8g_circle.c ****   {
  89:u8glib/u8g_circle.c **** 	case U8G_CIRC_UPPER_RIGHT:
  90:u8glib/u8g_circle.c **** 		u8g_DrawPixel(u8g, x0, y0 - rad);
  91:u8glib/u8g_circle.c **** 		u8g_DrawPixel(u8g, x0 + rad, y0);
  92:u8glib/u8g_circle.c **** 		circ_util = circ_upperRight;
  93:u8glib/u8g_circle.c **** 		break;
  94:u8glib/u8g_circle.c **** 	case U8G_CIRC_UPPER_LEFT:
  95:u8glib/u8g_circle.c **** 		u8g_DrawPixel(u8g, x0, y0 - rad);
  96:u8glib/u8g_circle.c **** 		u8g_DrawPixel(u8g, x0 - rad, y0);
  97:u8glib/u8g_circle.c **** 		circ_util = circ_upperLeft;
  98:u8glib/u8g_circle.c **** 		break;
  99:u8glib/u8g_circle.c **** 	case U8G_CIRC_LOWER_RIGHT:
 100:u8glib/u8g_circle.c **** 		u8g_DrawPixel(u8g, x0, y0 + rad);
 101:u8glib/u8g_circle.c **** 		u8g_DrawPixel(u8g, x0 + rad, y0);
 102:u8glib/u8g_circle.c **** 		circ_util = circ_lowerRight;
 103:u8glib/u8g_circle.c **** 		break;
 104:u8glib/u8g_circle.c **** 	case U8G_CIRC_LOWER_LEFT:
 105:u8glib/u8g_circle.c **** 		u8g_DrawPixel(u8g, x0, y0 + rad);
 106:u8glib/u8g_circle.c **** 		u8g_DrawPixel(u8g, x0 - rad, y0);
 107:u8glib/u8g_circle.c **** 		circ_util = circ_lowerLeft;
 108:u8glib/u8g_circle.c **** 		break;
 109:u8glib/u8g_circle.c ****         default:
 110:u8glib/u8g_circle.c **** 	case U8G_CIRC_ALL:
 111:u8glib/u8g_circle.c **** 		u8g_DrawPixel(u8g, x0, y0 + rad);
 112:u8glib/u8g_circle.c **** 		u8g_DrawPixel(u8g, x0, y0 - rad);
 113:u8glib/u8g_circle.c **** 		u8g_DrawPixel(u8g, x0 + rad, y0);
 114:u8glib/u8g_circle.c **** 		u8g_DrawPixel(u8g, x0 - rad, y0);
 115:u8glib/u8g_circle.c **** 		circ_util = circ_all;
 116:u8glib/u8g_circle.c **** 		break;
 117:u8glib/u8g_circle.c ****   }
 118:u8glib/u8g_circle.c ****   
 119:u8glib/u8g_circle.c ****   while( x < y )
 120:u8glib/u8g_circle.c ****   {
 121:u8glib/u8g_circle.c ****     if(f >= 0) 
 122:u8glib/u8g_circle.c ****     {
 123:u8glib/u8g_circle.c ****       y--;
 124:u8glib/u8g_circle.c ****       ddF_y += 2;
 125:u8glib/u8g_circle.c ****       f += ddF_y;
 126:u8glib/u8g_circle.c ****     }
 127:u8glib/u8g_circle.c ****     x++;
 128:u8glib/u8g_circle.c ****     ddF_x += 2;
 129:u8glib/u8g_circle.c ****     f += ddF_x;
 130:u8glib/u8g_circle.c ****     
 131:u8glib/u8g_circle.c ****     circ_util(u8g, x, y, x0, y0);
 132:u8glib/u8g_circle.c ****   }
 133:u8glib/u8g_circle.c **** }
 134:u8glib/u8g_circle.c **** 
 135:u8glib/u8g_circle.c **** 
 136:u8glib/u8g_circle.c **** void u8g_DrawFillCirc(u8g_t *u8g, u8g_uint_t x0, u8g_uint_t y0, u8g_uint_t rad, uint8_t option)
 137:u8glib/u8g_circle.c **** {
 138:u8glib/u8g_circle.c ****   if ( u8g_IsBBXIntersection(u8g, x0-rad-1, y0-rad-1, 2*rad+1, 2*rad+1) == 0)
 139:u8glib/u8g_circle.c ****     return;
 140:u8glib/u8g_circle.c **** 
 141:u8glib/u8g_circle.c ****   int f = 1 - rad;
 142:u8glib/u8g_circle.c ****   int ddF_x = 1;
 143:u8glib/u8g_circle.c ****   int ddF_y = -2*rad;
 144:u8glib/u8g_circle.c ****   uint8_t x = 0;
ARM GAS  C:\Users\master\AppData\Local\Temp\ccWViyoZ.s 			page 4


 145:u8glib/u8g_circle.c ****   uint8_t y = rad;
 146:u8glib/u8g_circle.c ****   
 147:u8glib/u8g_circle.c ****   // Draw vertical diameter at the horiz. center
 148:u8glib/u8g_circle.c ****   // u8g_DrawVLine(u8g, x0, y0 - rad, 2*rad+1);
 149:u8glib/u8g_circle.c **** 
 150:u8glib/u8g_circle.c ****   if (option == U8G_CIRC_UPPER_LEFT || option == U8G_CIRC_UPPER_RIGHT) {
 151:u8glib/u8g_circle.c **** 	u8g_DrawVLine(u8g, x0, y0 - rad, rad+1);
 152:u8glib/u8g_circle.c ****   }
 153:u8glib/u8g_circle.c ****   else if (option == U8G_CIRC_LOWER_LEFT || option == U8G_CIRC_LOWER_RIGHT) {
 154:u8glib/u8g_circle.c **** 	u8g_DrawVLine(u8g, x0, y0, rad+1);
 155:u8glib/u8g_circle.c ****   }
 156:u8glib/u8g_circle.c ****   else {
 157:u8glib/u8g_circle.c **** 	u8g_DrawVLine(u8g, x0, y0 - rad, 2*rad+1);
 158:u8glib/u8g_circle.c ****   }
 159:u8glib/u8g_circle.c ****   
 160:u8glib/u8g_circle.c ****   while( x < y )
 161:u8glib/u8g_circle.c ****   {
 162:u8glib/u8g_circle.c ****     if(f >= 0) 
 163:u8glib/u8g_circle.c ****     {
 164:u8glib/u8g_circle.c ****       y--;
 165:u8glib/u8g_circle.c ****       ddF_y += 2;
 166:u8glib/u8g_circle.c ****       f += ddF_y;
 167:u8glib/u8g_circle.c ****     }
 168:u8glib/u8g_circle.c ****     x++;
 169:u8glib/u8g_circle.c ****     ddF_x += 2;
 170:u8glib/u8g_circle.c ****     f += ddF_x;
 171:u8glib/u8g_circle.c ****     
 172:u8glib/u8g_circle.c **** 	//Draw vertical lines from one point to another
 173:u8glib/u8g_circle.c **** 	
 174:u8glib/u8g_circle.c **** 	switch (option)
 175:u8glib/u8g_circle.c **** 	{
 176:u8glib/u8g_circle.c **** 		case U8G_CIRC_UPPER_RIGHT:
 177:u8glib/u8g_circle.c **** 			u8g_DrawVLine(u8g, x0+x, y0-y, y+1);
 178:u8glib/u8g_circle.c **** 			u8g_DrawVLine(u8g, x0+y, y0-x, x+1);
 179:u8glib/u8g_circle.c **** 			break;
 180:u8glib/u8g_circle.c **** 		case U8G_CIRC_UPPER_LEFT:
 181:u8glib/u8g_circle.c **** 			u8g_DrawVLine(u8g, x0-x, y0-y, y+1);
 182:u8glib/u8g_circle.c **** 			u8g_DrawVLine(u8g, x0-y, y0-x, x+1);
 183:u8glib/u8g_circle.c **** 			break;
 184:u8glib/u8g_circle.c **** 		case U8G_CIRC_LOWER_RIGHT:
 185:u8glib/u8g_circle.c **** 			u8g_DrawVLine(u8g, x0+x, y0, y+1);
 186:u8glib/u8g_circle.c **** 			u8g_DrawVLine(u8g, x0+y, y0, x+1);
 187:u8glib/u8g_circle.c **** 			break;
 188:u8glib/u8g_circle.c **** 		case U8G_CIRC_LOWER_LEFT:
 189:u8glib/u8g_circle.c **** 			u8g_DrawVLine(u8g, x0-x, y0, y+1);
 190:u8glib/u8g_circle.c **** 			u8g_DrawVLine(u8g, x0-y, y0, x+1);
 191:u8glib/u8g_circle.c **** 			break;
 192:u8glib/u8g_circle.c **** 		case U8G_CIRC_ALL:
 193:u8glib/u8g_circle.c **** 			u8g_DrawVLine(u8g, x0+x, y0-y, 2*y+1);
 194:u8glib/u8g_circle.c **** 			u8g_DrawVLine(u8g, x0-x, y0-y, 2*y+1);
 195:u8glib/u8g_circle.c **** 			u8g_DrawVLine(u8g, x0+y, y0-x, 2*x+1);
 196:u8glib/u8g_circle.c **** 			u8g_DrawVLine(u8g, x0-y, y0-x, 2*x+1);
 197:u8glib/u8g_circle.c **** 			break;
 198:u8glib/u8g_circle.c **** 	}
 199:u8glib/u8g_circle.c ****   }
 200:u8glib/u8g_circle.c **** }
 201:u8glib/u8g_circle.c **** 
ARM GAS  C:\Users\master\AppData\Local\Temp\ccWViyoZ.s 			page 5


 202:u8glib/u8g_circle.c **** #endif 
 203:u8glib/u8g_circle.c **** 
 204:u8glib/u8g_circle.c **** /*=========================================================================*/
 205:u8glib/u8g_circle.c **** 
 206:u8glib/u8g_circle.c **** static void u8g_draw_circle_section(u8g_t *u8g, u8g_uint_t x, u8g_uint_t y, u8g_uint_t x0, u8g_uint
 207:u8glib/u8g_circle.c **** 
 208:u8glib/u8g_circle.c **** static void u8g_draw_circle_section(u8g_t *u8g, u8g_uint_t x, u8g_uint_t y, u8g_uint_t x0, u8g_uint
 209:u8glib/u8g_circle.c **** {
  29              		.loc 1 209 0
  30              		.cfi_startproc
  31              		@ args = 8, pretend = 0, frame = 0
  32              		@ frame_needed = 0, uses_anonymous_args = 0
  33              	.LVL0:
  34 0000 2DE9F843 		push	{r3, r4, r5, r6, r7, r8, r9, lr}
  35              	.LCFI0:
  36              		.cfi_def_cfa_offset 32
  37              		.cfi_offset 3, -32
  38              		.cfi_offset 4, -28
  39              		.cfi_offset 5, -24
  40              		.cfi_offset 6, -20
  41              		.cfi_offset 7, -16
  42              		.cfi_offset 8, -12
  43              		.cfi_offset 9, -8
  44              		.cfi_offset 14, -4
  45 0004 0746     		mov	r7, r0
  46 0006 8946     		mov	r9, r1
  47 0008 9046     		mov	r8, r2
  48 000a 1D46     		mov	r5, r3
  49 000c 9DF82060 		ldrb	r6, [sp, #32]	@ zero_extendqisi2
  50 0010 9DF82440 		ldrb	r4, [sp, #36]	@ zero_extendqisi2
 210:u8glib/u8g_circle.c ****     /* upper right */
 211:u8glib/u8g_circle.c ****     if ( option & U8G_DRAW_UPPER_RIGHT )
  51              		.loc 1 211 0
  52 0014 14F0010F 		tst	r4, #1
  53 0018 0ED0     		beq	.L2
 212:u8glib/u8g_circle.c ****     {
 213:u8glib/u8g_circle.c ****       u8g_DrawPixel(u8g, x0 + x, y0 - y);
  54              		.loc 1 213 0
  55 001a B21A     		subs	r2, r6, r2
  56              	.LVL1:
  57 001c 5918     		adds	r1, r3, r1
  58              	.LVL2:
  59 001e D2B2     		uxtb	r2, r2
  60 0020 C9B2     		uxtb	r1, r1
  61 0022 FFF7FEFF 		bl	u8g_DrawPixel
  62              	.LVL3:
 214:u8glib/u8g_circle.c ****       u8g_DrawPixel(u8g, x0 + y, y0 - x);
  63              		.loc 1 214 0
  64 0026 C9EB0602 		rsb	r2, r9, r6
  65 002a 05EB0801 		add	r1, r5, r8
  66 002e D2B2     		uxtb	r2, r2
  67 0030 C9B2     		uxtb	r1, r1
  68 0032 3846     		mov	r0, r7
  69 0034 FFF7FEFF 		bl	u8g_DrawPixel
  70              	.LVL4:
  71              	.L2:
 215:u8glib/u8g_circle.c ****     }
ARM GAS  C:\Users\master\AppData\Local\Temp\ccWViyoZ.s 			page 6


 216:u8glib/u8g_circle.c ****     
 217:u8glib/u8g_circle.c ****     /* upper left */
 218:u8glib/u8g_circle.c ****     if ( option & U8G_DRAW_UPPER_LEFT )
  72              		.loc 1 218 0
  73 0038 14F0020F 		tst	r4, #2
  74 003c 11D0     		beq	.L3
 219:u8glib/u8g_circle.c ****     {
 220:u8glib/u8g_circle.c ****       u8g_DrawPixel(u8g, x0 - x, y0 - y);
  75              		.loc 1 220 0
  76 003e C8EB0602 		rsb	r2, r8, r6
  77 0042 C9EB0501 		rsb	r1, r9, r5
  78 0046 D2B2     		uxtb	r2, r2
  79 0048 C9B2     		uxtb	r1, r1
  80 004a 3846     		mov	r0, r7
  81 004c FFF7FEFF 		bl	u8g_DrawPixel
  82              	.LVL5:
 221:u8glib/u8g_circle.c ****       u8g_DrawPixel(u8g, x0 - y, y0 - x);
  83              		.loc 1 221 0
  84 0050 C9EB0602 		rsb	r2, r9, r6
  85 0054 C8EB0501 		rsb	r1, r8, r5
  86 0058 D2B2     		uxtb	r2, r2
  87 005a C9B2     		uxtb	r1, r1
  88 005c 3846     		mov	r0, r7
  89 005e FFF7FEFF 		bl	u8g_DrawPixel
  90              	.LVL6:
  91              	.L3:
 222:u8glib/u8g_circle.c ****     }
 223:u8glib/u8g_circle.c ****     
 224:u8glib/u8g_circle.c ****     /* lower right */
 225:u8glib/u8g_circle.c ****     if ( option & U8G_DRAW_LOWER_RIGHT )
  92              		.loc 1 225 0
  93 0062 14F0080F 		tst	r4, #8
  94 0066 11D0     		beq	.L4
 226:u8glib/u8g_circle.c ****     {
 227:u8glib/u8g_circle.c ****       u8g_DrawPixel(u8g, x0 + x, y0 + y);
  95              		.loc 1 227 0
  96 0068 06EB0802 		add	r2, r6, r8
  97 006c 05EB0901 		add	r1, r5, r9
  98 0070 D2B2     		uxtb	r2, r2
  99 0072 C9B2     		uxtb	r1, r1
 100 0074 3846     		mov	r0, r7
 101 0076 FFF7FEFF 		bl	u8g_DrawPixel
 102              	.LVL7:
 228:u8glib/u8g_circle.c ****       u8g_DrawPixel(u8g, x0 + y, y0 + x);
 103              		.loc 1 228 0
 104 007a 09EB0602 		add	r2, r9, r6
 105 007e 05EB0801 		add	r1, r5, r8
 106 0082 D2B2     		uxtb	r2, r2
 107 0084 C9B2     		uxtb	r1, r1
 108 0086 3846     		mov	r0, r7
 109 0088 FFF7FEFF 		bl	u8g_DrawPixel
 110              	.LVL8:
 111              	.L4:
 229:u8glib/u8g_circle.c ****     }
 230:u8glib/u8g_circle.c ****     
 231:u8glib/u8g_circle.c ****     /* lower left */
 232:u8glib/u8g_circle.c ****     if ( option & U8G_DRAW_LOWER_LEFT )
ARM GAS  C:\Users\master\AppData\Local\Temp\ccWViyoZ.s 			page 7


 112              		.loc 1 232 0
 113 008c 14F0040F 		tst	r4, #4
 114 0090 11D0     		beq	.L1
 233:u8glib/u8g_circle.c ****     {
 234:u8glib/u8g_circle.c ****       u8g_DrawPixel(u8g, x0 - x, y0 + y);
 115              		.loc 1 234 0
 116 0092 06EB0802 		add	r2, r6, r8
 117 0096 C9EB0501 		rsb	r1, r9, r5
 118 009a D2B2     		uxtb	r2, r2
 119 009c C9B2     		uxtb	r1, r1
 120 009e 3846     		mov	r0, r7
 121 00a0 FFF7FEFF 		bl	u8g_DrawPixel
 122              	.LVL9:
 235:u8glib/u8g_circle.c ****       u8g_DrawPixel(u8g, x0 - y, y0 + x);
 123              		.loc 1 235 0
 124 00a4 09EB0602 		add	r2, r9, r6
 125 00a8 C8EB0501 		rsb	r1, r8, r5
 126 00ac D2B2     		uxtb	r2, r2
 127 00ae C9B2     		uxtb	r1, r1
 128 00b0 3846     		mov	r0, r7
 129 00b2 FFF7FEFF 		bl	u8g_DrawPixel
 130              	.LVL10:
 131              	.L1:
 132 00b6 BDE8F883 		pop	{r3, r4, r5, r6, r7, r8, r9, pc}
 133              		.cfi_endproc
 134              	.LFE0:
 136 00ba 00BF     		.section	.text.u8g_draw_disc_section,"ax",%progbits
 137              		.align	2
 138              		.thumb
 139              		.thumb_func
 141              	u8g_draw_disc_section:
 142              	.LFB3:
 236:u8glib/u8g_circle.c ****     }
 237:u8glib/u8g_circle.c **** }
 238:u8glib/u8g_circle.c **** 
 239:u8glib/u8g_circle.c **** void u8g_draw_circle(u8g_t *u8g, u8g_uint_t x0, u8g_uint_t y0, u8g_uint_t rad, uint8_t option)
 240:u8glib/u8g_circle.c **** {
 241:u8glib/u8g_circle.c ****     u8g_int_t f;
 242:u8glib/u8g_circle.c ****     u8g_int_t ddF_x;
 243:u8glib/u8g_circle.c ****     u8g_int_t ddF_y;
 244:u8glib/u8g_circle.c ****     u8g_uint_t x;
 245:u8glib/u8g_circle.c ****     u8g_uint_t y;
 246:u8glib/u8g_circle.c **** 
 247:u8glib/u8g_circle.c ****     f = 1;
 248:u8glib/u8g_circle.c ****     f -= rad;
 249:u8glib/u8g_circle.c ****     ddF_x = 1;
 250:u8glib/u8g_circle.c ****     ddF_y = 0;
 251:u8glib/u8g_circle.c ****     ddF_y -= rad;
 252:u8glib/u8g_circle.c ****     ddF_y *= 2;
 253:u8glib/u8g_circle.c ****     x = 0;
 254:u8glib/u8g_circle.c ****     y = rad;
 255:u8glib/u8g_circle.c **** 
 256:u8glib/u8g_circle.c ****     u8g_draw_circle_section(u8g, x, y, x0, y0, option);
 257:u8glib/u8g_circle.c ****     
 258:u8glib/u8g_circle.c ****     while ( x < y )
 259:u8glib/u8g_circle.c ****     {
 260:u8glib/u8g_circle.c ****       if (f >= 0) 
ARM GAS  C:\Users\master\AppData\Local\Temp\ccWViyoZ.s 			page 8


 261:u8glib/u8g_circle.c ****       {
 262:u8glib/u8g_circle.c ****         y--;
 263:u8glib/u8g_circle.c ****         ddF_y += 2;
 264:u8glib/u8g_circle.c ****         f += ddF_y;
 265:u8glib/u8g_circle.c ****       }
 266:u8glib/u8g_circle.c ****       x++;
 267:u8glib/u8g_circle.c ****       ddF_x += 2;
 268:u8glib/u8g_circle.c ****       f += ddF_x;
 269:u8glib/u8g_circle.c **** 
 270:u8glib/u8g_circle.c ****       u8g_draw_circle_section(u8g, x, y, x0, y0, option);    
 271:u8glib/u8g_circle.c ****     }
 272:u8glib/u8g_circle.c **** }
 273:u8glib/u8g_circle.c **** 
 274:u8glib/u8g_circle.c **** void u8g_DrawCircle(u8g_t *u8g, u8g_uint_t x0, u8g_uint_t y0, u8g_uint_t rad, uint8_t option)
 275:u8glib/u8g_circle.c **** {
 276:u8glib/u8g_circle.c ****   /* check for bounding box */
 277:u8glib/u8g_circle.c ****   {
 278:u8glib/u8g_circle.c ****     u8g_uint_t radp, radp2;
 279:u8glib/u8g_circle.c ****     
 280:u8glib/u8g_circle.c ****     radp = rad;
 281:u8glib/u8g_circle.c ****     radp++;
 282:u8glib/u8g_circle.c ****     radp2 = radp;
 283:u8glib/u8g_circle.c ****     radp2 *= 2;
 284:u8glib/u8g_circle.c ****     
 285:u8glib/u8g_circle.c ****     if ( u8g_IsBBXIntersection(u8g, x0-radp, y0-radp, radp2, radp2) == 0)
 286:u8glib/u8g_circle.c ****       return;    
 287:u8glib/u8g_circle.c ****   }
 288:u8glib/u8g_circle.c ****   
 289:u8glib/u8g_circle.c ****   /* draw circle */
 290:u8glib/u8g_circle.c ****   u8g_draw_circle(u8g, x0, y0, rad, option);
 291:u8glib/u8g_circle.c **** }
 292:u8glib/u8g_circle.c **** 
 293:u8glib/u8g_circle.c **** static void u8g_draw_disc_section(u8g_t *u8g, u8g_uint_t x, u8g_uint_t y, u8g_uint_t x0, u8g_uint_t
 294:u8glib/u8g_circle.c **** 
 295:u8glib/u8g_circle.c **** static void u8g_draw_disc_section(u8g_t *u8g, u8g_uint_t x, u8g_uint_t y, u8g_uint_t x0, u8g_uint_t
 296:u8glib/u8g_circle.c **** {
 143              		.loc 1 296 0
 144              		.cfi_startproc
 145              		@ args = 8, pretend = 0, frame = 0
 146              		@ frame_needed = 0, uses_anonymous_args = 0
 147              	.LVL11:
 148 0000 2DE9F843 		push	{r3, r4, r5, r6, r7, r8, r9, lr}
 149              	.LCFI1:
 150              		.cfi_def_cfa_offset 32
 151              		.cfi_offset 3, -32
 152              		.cfi_offset 4, -28
 153              		.cfi_offset 5, -24
 154              		.cfi_offset 6, -20
 155              		.cfi_offset 7, -16
 156              		.cfi_offset 8, -12
 157              		.cfi_offset 9, -8
 158              		.cfi_offset 14, -4
 159 0004 8046     		mov	r8, r0
 160 0006 0D46     		mov	r5, r1
 161 0008 1746     		mov	r7, r2
 162 000a 1E46     		mov	r6, r3
 163 000c 9DF82090 		ldrb	r9, [sp, #32]	@ zero_extendqisi2
ARM GAS  C:\Users\master\AppData\Local\Temp\ccWViyoZ.s 			page 9


 164 0010 9DF82440 		ldrb	r4, [sp, #36]	@ zero_extendqisi2
 297:u8glib/u8g_circle.c ****     /* upper right */
 298:u8glib/u8g_circle.c ****     if ( option & U8G_DRAW_UPPER_RIGHT )
 165              		.loc 1 298 0
 166 0014 14F0010F 		tst	r4, #1
 167 0018 12D0     		beq	.L8
 299:u8glib/u8g_circle.c ****     {
 300:u8glib/u8g_circle.c ****       u8g_DrawVLine(u8g, x0+x, y0-y, y+1);
 168              		.loc 1 300 0
 169 001a 531C     		adds	r3, r2, #1
 170              	.LVL12:
 171 001c C2EB0902 		rsb	r2, r2, r9
 172              	.LVL13:
 173 0020 7118     		adds	r1, r6, r1
 174              	.LVL14:
 175 0022 DBB2     		uxtb	r3, r3
 176 0024 D2B2     		uxtb	r2, r2
 177 0026 C9B2     		uxtb	r1, r1
 178 0028 FFF7FEFF 		bl	u8g_DrawVLine
 179              	.LVL15:
 301:u8glib/u8g_circle.c ****       u8g_DrawVLine(u8g, x0+y, y0-x, x+1);
 180              		.loc 1 301 0
 181 002c 6B1C     		adds	r3, r5, #1
 182 002e C5EB0902 		rsb	r2, r5, r9
 183 0032 F119     		adds	r1, r6, r7
 184 0034 DBB2     		uxtb	r3, r3
 185 0036 D2B2     		uxtb	r2, r2
 186 0038 C9B2     		uxtb	r1, r1
 187 003a 4046     		mov	r0, r8
 188 003c FFF7FEFF 		bl	u8g_DrawVLine
 189              	.LVL16:
 190              	.L8:
 302:u8glib/u8g_circle.c ****     }
 303:u8glib/u8g_circle.c ****     
 304:u8glib/u8g_circle.c ****     /* upper left */
 305:u8glib/u8g_circle.c ****     if ( option & U8G_DRAW_UPPER_LEFT )
 191              		.loc 1 305 0
 192 0040 14F0020F 		tst	r4, #2
 193 0044 13D0     		beq	.L9
 306:u8glib/u8g_circle.c ****     {
 307:u8glib/u8g_circle.c ****       u8g_DrawVLine(u8g, x0-x, y0-y, y+1);
 194              		.loc 1 307 0
 195 0046 7B1C     		adds	r3, r7, #1
 196 0048 C7EB0902 		rsb	r2, r7, r9
 197 004c 711B     		subs	r1, r6, r5
 198 004e DBB2     		uxtb	r3, r3
 199 0050 D2B2     		uxtb	r2, r2
 200 0052 C9B2     		uxtb	r1, r1
 201 0054 4046     		mov	r0, r8
 202 0056 FFF7FEFF 		bl	u8g_DrawVLine
 203              	.LVL17:
 308:u8glib/u8g_circle.c ****       u8g_DrawVLine(u8g, x0-y, y0-x, x+1);
 204              		.loc 1 308 0
 205 005a 6B1C     		adds	r3, r5, #1
 206 005c C5EB0902 		rsb	r2, r5, r9
 207 0060 F11B     		subs	r1, r6, r7
 208 0062 DBB2     		uxtb	r3, r3
ARM GAS  C:\Users\master\AppData\Local\Temp\ccWViyoZ.s 			page 10


 209 0064 D2B2     		uxtb	r2, r2
 210 0066 C9B2     		uxtb	r1, r1
 211 0068 4046     		mov	r0, r8
 212 006a FFF7FEFF 		bl	u8g_DrawVLine
 213              	.LVL18:
 214              	.L9:
 309:u8glib/u8g_circle.c ****     }
 310:u8glib/u8g_circle.c ****     
 311:u8glib/u8g_circle.c ****     /* lower right */
 312:u8glib/u8g_circle.c ****     if ( option & U8G_DRAW_LOWER_RIGHT )
 215              		.loc 1 312 0
 216 006e 14F0080F 		tst	r4, #8
 217 0072 0FD0     		beq	.L10
 313:u8glib/u8g_circle.c ****     {
 314:u8glib/u8g_circle.c ****       u8g_DrawVLine(u8g, x0+x, y0, y+1);
 218              		.loc 1 314 0
 219 0074 7B1C     		adds	r3, r7, #1
 220 0076 7119     		adds	r1, r6, r5
 221 0078 DBB2     		uxtb	r3, r3
 222 007a 4A46     		mov	r2, r9
 223 007c C9B2     		uxtb	r1, r1
 224 007e 4046     		mov	r0, r8
 225 0080 FFF7FEFF 		bl	u8g_DrawVLine
 226              	.LVL19:
 315:u8glib/u8g_circle.c ****       u8g_DrawVLine(u8g, x0+y, y0, x+1);
 227              		.loc 1 315 0
 228 0084 6B1C     		adds	r3, r5, #1
 229 0086 F119     		adds	r1, r6, r7
 230 0088 DBB2     		uxtb	r3, r3
 231 008a 4A46     		mov	r2, r9
 232 008c C9B2     		uxtb	r1, r1
 233 008e 4046     		mov	r0, r8
 234 0090 FFF7FEFF 		bl	u8g_DrawVLine
 235              	.LVL20:
 236              	.L10:
 316:u8glib/u8g_circle.c ****     }
 317:u8glib/u8g_circle.c ****     
 318:u8glib/u8g_circle.c ****     /* lower left */
 319:u8glib/u8g_circle.c ****     if ( option & U8G_DRAW_LOWER_LEFT )
 237              		.loc 1 319 0
 238 0094 14F0040F 		tst	r4, #4
 239 0098 0FD0     		beq	.L7
 320:u8glib/u8g_circle.c ****     {
 321:u8glib/u8g_circle.c ****       u8g_DrawVLine(u8g, x0-x, y0, y+1);
 240              		.loc 1 321 0
 241 009a 7B1C     		adds	r3, r7, #1
 242 009c 711B     		subs	r1, r6, r5
 243 009e DBB2     		uxtb	r3, r3
 244 00a0 4A46     		mov	r2, r9
 245 00a2 C9B2     		uxtb	r1, r1
 246 00a4 4046     		mov	r0, r8
 247 00a6 FFF7FEFF 		bl	u8g_DrawVLine
 248              	.LVL21:
 322:u8glib/u8g_circle.c ****       u8g_DrawVLine(u8g, x0-y, y0, x+1);
 249              		.loc 1 322 0
 250 00aa 6B1C     		adds	r3, r5, #1
 251 00ac F11B     		subs	r1, r6, r7
ARM GAS  C:\Users\master\AppData\Local\Temp\ccWViyoZ.s 			page 11


 252 00ae DBB2     		uxtb	r3, r3
 253 00b0 4A46     		mov	r2, r9
 254 00b2 C9B2     		uxtb	r1, r1
 255 00b4 4046     		mov	r0, r8
 256 00b6 FFF7FEFF 		bl	u8g_DrawVLine
 257              	.LVL22:
 258              	.L7:
 259 00ba BDE8F883 		pop	{r3, r4, r5, r6, r7, r8, r9, pc}
 260              		.cfi_endproc
 261              	.LFE3:
 263 00be 00BF     		.section	.text.u8g_draw_circle,"ax",%progbits
 264              		.align	2
 265              		.global	u8g_draw_circle
 266              		.thumb
 267              		.thumb_func
 269              	u8g_draw_circle:
 270              	.LFB1:
 240:u8glib/u8g_circle.c ****     u8g_int_t f;
 271              		.loc 1 240 0
 272              		.cfi_startproc
 273              		@ args = 4, pretend = 0, frame = 8
 274              		@ frame_needed = 0, uses_anonymous_args = 0
 275              	.LVL23:
 276 0000 2DE9F04F 		push	{r4, r5, r6, r7, r8, r9, r10, fp, lr}
 277              	.LCFI2:
 278              		.cfi_def_cfa_offset 36
 279              		.cfi_offset 4, -36
 280              		.cfi_offset 5, -32
 281              		.cfi_offset 6, -28
 282              		.cfi_offset 7, -24
 283              		.cfi_offset 8, -20
 284              		.cfi_offset 9, -16
 285              		.cfi_offset 10, -12
 286              		.cfi_offset 11, -8
 287              		.cfi_offset 14, -4
 288 0004 85B0     		sub	sp, sp, #20
 289              	.LCFI3:
 290              		.cfi_def_cfa_offset 56
 291 0006 0390     		str	r0, [sp, #12]
 292 0008 8946     		mov	r9, r1
 293 000a 9246     		mov	r10, r2
 294 000c 1F46     		mov	r7, r3
 295 000e 9DF838B0 		ldrb	fp, [sp, #56]	@ zero_extendqisi2
 296              	.LVL24:
 248:u8glib/u8g_circle.c ****     ddF_x = 1;
 297              		.loc 1 248 0
 298 0012 C3F10108 		rsb	r8, r3, #1
 299 0016 4FFA88F8 		sxtb	r8, r8
 300              	.LVL25:
 251:u8glib/u8g_circle.c ****     ddF_y *= 2;
 301              		.loc 1 251 0
 302 001a 5D42     		negs	r5, r3
 303 001c EDB2     		uxtb	r5, r5
 304              	.LVL26:
 252:u8glib/u8g_circle.c ****     x = 0;
 305              		.loc 1 252 0
 306 001e 6D00     		lsls	r5, r5, #1
ARM GAS  C:\Users\master\AppData\Local\Temp\ccWViyoZ.s 			page 12


 307              	.LVL27:
 308 0020 6DB2     		sxtb	r5, r5
 309              	.LVL28:
 256:u8glib/u8g_circle.c ****     
 310              		.loc 1 256 0
 311 0022 CDF804B0 		str	fp, [sp, #4]
 312 0026 0092     		str	r2, [sp]
 313 0028 0B46     		mov	r3, r1
 314              	.LVL29:
 315 002a 3A46     		mov	r2, r7
 316              	.LVL30:
 317 002c 0021     		movs	r1, #0
 318              	.LVL31:
 319 002e FFF7FEFF 		bl	u8g_draw_circle_section
 320              	.LVL32:
 253:u8glib/u8g_circle.c ****     y = rad;
 321              		.loc 1 253 0
 322 0032 0026     		movs	r6, #0
 249:u8glib/u8g_circle.c ****     ddF_y = 0;
 323              		.loc 1 249 0
 324 0034 0124     		movs	r4, #1
 258:u8glib/u8g_circle.c ****     {
 325              		.loc 1 258 0
 326 0036 1CE0     		b	.L14
 327              	.LVL33:
 328              	.L16:
 260:u8glib/u8g_circle.c ****       {
 329              		.loc 1 260 0
 330 0038 B8F1000F 		cmp	r8, #0
 331 003c 07DB     		blt	.L15
 262:u8glib/u8g_circle.c ****         ddF_y += 2;
 332              		.loc 1 262 0
 333 003e 013F     		subs	r7, r7, #1
 334              	.LVL34:
 335 0040 FFB2     		uxtb	r7, r7
 336              	.LVL35:
 263:u8glib/u8g_circle.c ****         f += ddF_y;
 337              		.loc 1 263 0
 338 0042 0235     		adds	r5, r5, #2
 339              	.LVL36:
 340 0044 EBB2     		uxtb	r3, r5
 341 0046 5DB2     		sxtb	r5, r3
 342              	.LVL37:
 264:u8glib/u8g_circle.c ****       }
 343              		.loc 1 264 0
 344 0048 9844     		add	r8, r8, r3
 345              	.LVL38:
 346 004a 4FFA88F8 		sxtb	r8, r8
 347              	.LVL39:
 348              	.L15:
 266:u8glib/u8g_circle.c ****       ddF_x += 2;
 349              		.loc 1 266 0
 350 004e 0136     		adds	r6, r6, #1
 351              	.LVL40:
 352 0050 F6B2     		uxtb	r6, r6
 353              	.LVL41:
 267:u8glib/u8g_circle.c ****       f += ddF_x;
ARM GAS  C:\Users\master\AppData\Local\Temp\ccWViyoZ.s 			page 13


 354              		.loc 1 267 0
 355 0052 0234     		adds	r4, r4, #2
 356              	.LVL42:
 357 0054 E3B2     		uxtb	r3, r4
 358 0056 5CB2     		sxtb	r4, r3
 359              	.LVL43:
 268:u8glib/u8g_circle.c **** 
 360              		.loc 1 268 0
 361 0058 9844     		add	r8, r8, r3
 362              	.LVL44:
 363 005a 4FFA88F8 		sxtb	r8, r8
 364              	.LVL45:
 270:u8glib/u8g_circle.c ****     }
 365              		.loc 1 270 0
 366 005e CDF804B0 		str	fp, [sp, #4]
 367 0062 CDF800A0 		str	r10, [sp]
 368 0066 4B46     		mov	r3, r9
 369 0068 3A46     		mov	r2, r7
 370 006a 3146     		mov	r1, r6
 371 006c 0398     		ldr	r0, [sp, #12]
 372 006e FFF7FEFF 		bl	u8g_draw_circle_section
 373              	.LVL46:
 374              	.L14:
 258:u8glib/u8g_circle.c ****     {
 375              		.loc 1 258 0
 376 0072 BE42     		cmp	r6, r7
 377 0074 E0D3     		bcc	.L16
 272:u8glib/u8g_circle.c **** 
 378              		.loc 1 272 0
 379 0076 05B0     		add	sp, sp, #20
 380              	.LCFI4:
 381              		.cfi_def_cfa_offset 36
 382              		@ sp needed
 383 0078 BDE8F08F 		pop	{r4, r5, r6, r7, r8, r9, r10, fp, pc}
 384              		.cfi_endproc
 385              	.LFE1:
 387              		.section	.text.u8g_DrawCircle,"ax",%progbits
 388              		.align	2
 389              		.global	u8g_DrawCircle
 390              		.thumb
 391              		.thumb_func
 393              	u8g_DrawCircle:
 394              	.LFB2:
 275:u8glib/u8g_circle.c ****   /* check for bounding box */
 395              		.loc 1 275 0
 396              		.cfi_startproc
 397              		@ args = 4, pretend = 0, frame = 0
 398              		@ frame_needed = 0, uses_anonymous_args = 0
 399              	.LVL47:
 400 0000 F0B5     		push	{r4, r5, r6, r7, lr}
 401              	.LCFI5:
 402              		.cfi_def_cfa_offset 20
 403              		.cfi_offset 4, -20
 404              		.cfi_offset 5, -16
 405              		.cfi_offset 6, -12
 406              		.cfi_offset 7, -8
 407              		.cfi_offset 14, -4
ARM GAS  C:\Users\master\AppData\Local\Temp\ccWViyoZ.s 			page 14


 408 0002 83B0     		sub	sp, sp, #12
 409              	.LCFI6:
 410              		.cfi_def_cfa_offset 32
 411 0004 0746     		mov	r7, r0
 412 0006 0C46     		mov	r4, r1
 413 0008 1546     		mov	r5, r2
 414 000a 1E46     		mov	r6, r3
 415              	.LVL48:
 416              	.LBB2:
 281:u8glib/u8g_circle.c ****     radp2 = radp;
 417              		.loc 1 281 0
 418 000c 591C     		adds	r1, r3, #1
 419              	.LVL49:
 420 000e C9B2     		uxtb	r1, r1
 421              	.LVL50:
 283:u8glib/u8g_circle.c ****     
 422              		.loc 1 283 0
 423 0010 4B00     		lsls	r3, r1, #1
 424              	.LVL51:
 425 0012 DBB2     		uxtb	r3, r3
 426              	.LVL52:
 285:u8glib/u8g_circle.c ****       return;    
 427              		.loc 1 285 0
 428 0014 521A     		subs	r2, r2, r1
 429              	.LVL53:
 430 0016 611A     		subs	r1, r4, r1
 431              	.LVL54:
 432 0018 0093     		str	r3, [sp]
 433 001a D2B2     		uxtb	r2, r2
 434 001c C9B2     		uxtb	r1, r1
 435 001e FFF7FEFF 		bl	u8g_IsBBXIntersection
 436              	.LVL55:
 437 0022 40B1     		cbz	r0, .L18
 438              	.LBE2:
 290:u8glib/u8g_circle.c **** }
 439              		.loc 1 290 0
 440 0024 9DF82030 		ldrb	r3, [sp, #32]	@ zero_extendqisi2
 441 0028 0093     		str	r3, [sp]
 442 002a 3346     		mov	r3, r6
 443 002c 2A46     		mov	r2, r5
 444 002e 2146     		mov	r1, r4
 445 0030 3846     		mov	r0, r7
 446 0032 FFF7FEFF 		bl	u8g_draw_circle
 447              	.LVL56:
 448              	.L18:
 291:u8glib/u8g_circle.c **** 
 449              		.loc 1 291 0
 450 0036 03B0     		add	sp, sp, #12
 451              	.LCFI7:
 452              		.cfi_def_cfa_offset 20
 453              		@ sp needed
 454 0038 F0BD     		pop	{r4, r5, r6, r7, pc}
 455              		.cfi_endproc
 456              	.LFE2:
 458 003a 00BF     		.section	.text.u8g_draw_disc,"ax",%progbits
 459              		.align	2
 460              		.global	u8g_draw_disc
ARM GAS  C:\Users\master\AppData\Local\Temp\ccWViyoZ.s 			page 15


 461              		.thumb
 462              		.thumb_func
 464              	u8g_draw_disc:
 465              	.LFB4:
 323:u8glib/u8g_circle.c ****     }
 324:u8glib/u8g_circle.c **** }
 325:u8glib/u8g_circle.c **** 
 326:u8glib/u8g_circle.c **** void u8g_draw_disc(u8g_t *u8g, u8g_uint_t x0, u8g_uint_t y0, u8g_uint_t rad, uint8_t option)
 327:u8glib/u8g_circle.c **** {
 466              		.loc 1 327 0
 467              		.cfi_startproc
 468              		@ args = 4, pretend = 0, frame = 8
 469              		@ frame_needed = 0, uses_anonymous_args = 0
 470              	.LVL57:
 471 0000 2DE9F04F 		push	{r4, r5, r6, r7, r8, r9, r10, fp, lr}
 472              	.LCFI8:
 473              		.cfi_def_cfa_offset 36
 474              		.cfi_offset 4, -36
 475              		.cfi_offset 5, -32
 476              		.cfi_offset 6, -28
 477              		.cfi_offset 7, -24
 478              		.cfi_offset 8, -20
 479              		.cfi_offset 9, -16
 480              		.cfi_offset 10, -12
 481              		.cfi_offset 11, -8
 482              		.cfi_offset 14, -4
 483 0004 85B0     		sub	sp, sp, #20
 484              	.LCFI9:
 485              		.cfi_def_cfa_offset 56
 486 0006 0390     		str	r0, [sp, #12]
 487 0008 8946     		mov	r9, r1
 488 000a 9246     		mov	r10, r2
 489 000c 1F46     		mov	r7, r3
 490 000e 9DF838B0 		ldrb	fp, [sp, #56]	@ zero_extendqisi2
 491              	.LVL58:
 328:u8glib/u8g_circle.c ****   u8g_int_t f;
 329:u8glib/u8g_circle.c ****   u8g_int_t ddF_x;
 330:u8glib/u8g_circle.c ****   u8g_int_t ddF_y;
 331:u8glib/u8g_circle.c ****   u8g_uint_t x;
 332:u8glib/u8g_circle.c ****   u8g_uint_t y;
 333:u8glib/u8g_circle.c **** 
 334:u8glib/u8g_circle.c ****   f = 1;
 335:u8glib/u8g_circle.c ****   f -= rad;
 492              		.loc 1 335 0
 493 0012 C3F10108 		rsb	r8, r3, #1
 494 0016 4FFA88F8 		sxtb	r8, r8
 495              	.LVL59:
 336:u8glib/u8g_circle.c ****   ddF_x = 1;
 337:u8glib/u8g_circle.c ****   ddF_y = 0;
 338:u8glib/u8g_circle.c ****   ddF_y -= rad;
 496              		.loc 1 338 0
 497 001a 5D42     		negs	r5, r3
 498 001c EDB2     		uxtb	r5, r5
 499              	.LVL60:
 339:u8glib/u8g_circle.c ****   ddF_y *= 2;
 500              		.loc 1 339 0
 501 001e 6D00     		lsls	r5, r5, #1
ARM GAS  C:\Users\master\AppData\Local\Temp\ccWViyoZ.s 			page 16


 502              	.LVL61:
 503 0020 6DB2     		sxtb	r5, r5
 504              	.LVL62:
 340:u8glib/u8g_circle.c ****   x = 0;
 341:u8glib/u8g_circle.c ****   y = rad;
 342:u8glib/u8g_circle.c **** 
 343:u8glib/u8g_circle.c ****   u8g_draw_disc_section(u8g, x, y, x0, y0, option);
 505              		.loc 1 343 0
 506 0022 CDF804B0 		str	fp, [sp, #4]
 507 0026 0092     		str	r2, [sp]
 508 0028 0B46     		mov	r3, r1
 509              	.LVL63:
 510 002a 3A46     		mov	r2, r7
 511              	.LVL64:
 512 002c 0021     		movs	r1, #0
 513              	.LVL65:
 514 002e FFF7FEFF 		bl	u8g_draw_disc_section
 515              	.LVL66:
 340:u8glib/u8g_circle.c ****   x = 0;
 516              		.loc 1 340 0
 517 0032 0026     		movs	r6, #0
 336:u8glib/u8g_circle.c ****   ddF_y = 0;
 518              		.loc 1 336 0
 519 0034 0124     		movs	r4, #1
 344:u8glib/u8g_circle.c ****   
 345:u8glib/u8g_circle.c ****   while ( x < y )
 520              		.loc 1 345 0
 521 0036 1CE0     		b	.L22
 522              	.LVL67:
 523              	.L24:
 346:u8glib/u8g_circle.c ****   {
 347:u8glib/u8g_circle.c ****     if (f >= 0) 
 524              		.loc 1 347 0
 525 0038 B8F1000F 		cmp	r8, #0
 526 003c 07DB     		blt	.L23
 348:u8glib/u8g_circle.c ****     {
 349:u8glib/u8g_circle.c ****       y--;
 527              		.loc 1 349 0
 528 003e 013F     		subs	r7, r7, #1
 529              	.LVL68:
 530 0040 FFB2     		uxtb	r7, r7
 531              	.LVL69:
 350:u8glib/u8g_circle.c ****       ddF_y += 2;
 532              		.loc 1 350 0
 533 0042 0235     		adds	r5, r5, #2
 534              	.LVL70:
 535 0044 EBB2     		uxtb	r3, r5
 536 0046 5DB2     		sxtb	r5, r3
 537              	.LVL71:
 351:u8glib/u8g_circle.c ****       f += ddF_y;
 538              		.loc 1 351 0
 539 0048 9844     		add	r8, r8, r3
 540              	.LVL72:
 541 004a 4FFA88F8 		sxtb	r8, r8
 542              	.LVL73:
 543              	.L23:
 352:u8glib/u8g_circle.c ****     }
ARM GAS  C:\Users\master\AppData\Local\Temp\ccWViyoZ.s 			page 17


 353:u8glib/u8g_circle.c ****     x++;
 544              		.loc 1 353 0
 545 004e 0136     		adds	r6, r6, #1
 546              	.LVL74:
 547 0050 F6B2     		uxtb	r6, r6
 548              	.LVL75:
 354:u8glib/u8g_circle.c ****     ddF_x += 2;
 549              		.loc 1 354 0
 550 0052 0234     		adds	r4, r4, #2
 551              	.LVL76:
 552 0054 E3B2     		uxtb	r3, r4
 553 0056 5CB2     		sxtb	r4, r3
 554              	.LVL77:
 355:u8glib/u8g_circle.c ****     f += ddF_x;
 555              		.loc 1 355 0
 556 0058 9844     		add	r8, r8, r3
 557              	.LVL78:
 558 005a 4FFA88F8 		sxtb	r8, r8
 559              	.LVL79:
 356:u8glib/u8g_circle.c **** 
 357:u8glib/u8g_circle.c ****     u8g_draw_disc_section(u8g, x, y, x0, y0, option);    
 560              		.loc 1 357 0
 561 005e CDF804B0 		str	fp, [sp, #4]
 562 0062 CDF800A0 		str	r10, [sp]
 563 0066 4B46     		mov	r3, r9
 564 0068 3A46     		mov	r2, r7
 565 006a 3146     		mov	r1, r6
 566 006c 0398     		ldr	r0, [sp, #12]
 567 006e FFF7FEFF 		bl	u8g_draw_disc_section
 568              	.LVL80:
 569              	.L22:
 345:u8glib/u8g_circle.c ****   {
 570              		.loc 1 345 0
 571 0072 BE42     		cmp	r6, r7
 572 0074 E0D3     		bcc	.L24
 358:u8glib/u8g_circle.c ****   }
 359:u8glib/u8g_circle.c **** }
 573              		.loc 1 359 0
 574 0076 05B0     		add	sp, sp, #20
 575              	.LCFI10:
 576              		.cfi_def_cfa_offset 36
 577              		@ sp needed
 578 0078 BDE8F08F 		pop	{r4, r5, r6, r7, r8, r9, r10, fp, pc}
 579              		.cfi_endproc
 580              	.LFE4:
 582              		.section	.text.u8g_DrawDisc,"ax",%progbits
 583              		.align	2
 584              		.global	u8g_DrawDisc
 585              		.thumb
 586              		.thumb_func
 588              	u8g_DrawDisc:
 589              	.LFB5:
 360:u8glib/u8g_circle.c **** 
 361:u8glib/u8g_circle.c **** void u8g_DrawDisc(u8g_t *u8g, u8g_uint_t x0, u8g_uint_t y0, u8g_uint_t rad, uint8_t option)
 362:u8glib/u8g_circle.c **** {
 590              		.loc 1 362 0
 591              		.cfi_startproc
ARM GAS  C:\Users\master\AppData\Local\Temp\ccWViyoZ.s 			page 18


 592              		@ args = 4, pretend = 0, frame = 0
 593              		@ frame_needed = 0, uses_anonymous_args = 0
 594              	.LVL81:
 595 0000 F0B5     		push	{r4, r5, r6, r7, lr}
 596              	.LCFI11:
 597              		.cfi_def_cfa_offset 20
 598              		.cfi_offset 4, -20
 599              		.cfi_offset 5, -16
 600              		.cfi_offset 6, -12
 601              		.cfi_offset 7, -8
 602              		.cfi_offset 14, -4
 603 0002 83B0     		sub	sp, sp, #12
 604              	.LCFI12:
 605              		.cfi_def_cfa_offset 32
 606 0004 0746     		mov	r7, r0
 607 0006 0C46     		mov	r4, r1
 608 0008 1546     		mov	r5, r2
 609 000a 1E46     		mov	r6, r3
 610              	.LVL82:
 611              	.LBB3:
 363:u8glib/u8g_circle.c ****   /* check for bounding box */
 364:u8glib/u8g_circle.c ****   {
 365:u8glib/u8g_circle.c ****     u8g_uint_t radp, radp2;
 366:u8glib/u8g_circle.c ****     
 367:u8glib/u8g_circle.c ****     radp = rad;
 368:u8glib/u8g_circle.c ****     radp++;
 612              		.loc 1 368 0
 613 000c 591C     		adds	r1, r3, #1
 614              	.LVL83:
 615 000e C9B2     		uxtb	r1, r1
 616              	.LVL84:
 369:u8glib/u8g_circle.c ****     radp2 = radp;
 370:u8glib/u8g_circle.c ****     radp2 *= 2;
 617              		.loc 1 370 0
 618 0010 4B00     		lsls	r3, r1, #1
 619              	.LVL85:
 620 0012 DBB2     		uxtb	r3, r3
 621              	.LVL86:
 371:u8glib/u8g_circle.c ****     
 372:u8glib/u8g_circle.c ****     if ( u8g_IsBBXIntersection(u8g, x0-radp, y0-radp, radp2, radp2) == 0)
 622              		.loc 1 372 0
 623 0014 521A     		subs	r2, r2, r1
 624              	.LVL87:
 625 0016 611A     		subs	r1, r4, r1
 626              	.LVL88:
 627 0018 0093     		str	r3, [sp]
 628 001a D2B2     		uxtb	r2, r2
 629 001c C9B2     		uxtb	r1, r1
 630 001e FFF7FEFF 		bl	u8g_IsBBXIntersection
 631              	.LVL89:
 632 0022 40B1     		cbz	r0, .L26
 633              	.LBE3:
 373:u8glib/u8g_circle.c ****       return;    
 374:u8glib/u8g_circle.c ****   }
 375:u8glib/u8g_circle.c ****   
 376:u8glib/u8g_circle.c ****   /* draw disc */
 377:u8glib/u8g_circle.c ****   u8g_draw_disc(u8g, x0, y0, rad, option);
ARM GAS  C:\Users\master\AppData\Local\Temp\ccWViyoZ.s 			page 19


 634              		.loc 1 377 0
 635 0024 9DF82030 		ldrb	r3, [sp, #32]	@ zero_extendqisi2
 636 0028 0093     		str	r3, [sp]
 637 002a 3346     		mov	r3, r6
 638 002c 2A46     		mov	r2, r5
 639 002e 2146     		mov	r1, r4
 640 0030 3846     		mov	r0, r7
 641 0032 FFF7FEFF 		bl	u8g_draw_disc
 642              	.LVL90:
 643              	.L26:
 378:u8glib/u8g_circle.c **** }
 644              		.loc 1 378 0
 645 0036 03B0     		add	sp, sp, #12
 646              	.LCFI13:
 647              		.cfi_def_cfa_offset 20
 648              		@ sp needed
 649 0038 F0BD     		pop	{r4, r5, r6, r7, pc}
 650              		.cfi_endproc
 651              	.LFE5:
 653 003a 00BF     		.text
 654              	.Letext0:
 655              		.file 2 "c:\\program files (x86)\\gnu tools arm embedded\\5.4 2016q3\\arm-none-eabi\\include\\mach
 656              		.file 3 "c:\\program files (x86)\\gnu tools arm embedded\\5.4 2016q3\\arm-none-eabi\\include\\sys\
 657              		.file 4 "u8glib/u8g.h"
ARM GAS  C:\Users\master\AppData\Local\Temp\ccWViyoZ.s 			page 20

