ARM GAS  C:\Users\master\AppData\Local\Temp\ccm1Zl6f.s 			page 1


   1              		.syntax unified
   2              		.cpu cortex-m4
   3              		.eabi_attribute 27, 1
   4              		.eabi_attribute 28, 1
   5              		.fpu fpv4-sp-d16
   6              		.eabi_attribute 20, 1
   7              		.eabi_attribute 21, 1
   8              		.eabi_attribute 23, 3
   9              		.eabi_attribute 24, 1
  10              		.eabi_attribute 25, 1
  11              		.eabi_attribute 26, 1
  12              		.eabi_attribute 30, 1
  13              		.eabi_attribute 34, 1
  14              		.eabi_attribute 18, 4
  15              		.thumb
  16              		.syntax unified
  17              		.file	"u8g_clip.c"
  18              		.text
  19              	.Ltext0:
  20              		.cfi_sections	.debug_frame
  21              		.section	.text.u8g_IsBBXIntersection,"ax",%progbits
  22              		.align	2
  23              		.global	u8g_IsBBXIntersection
  24              		.thumb
  25              		.thumb_func
  27              	u8g_IsBBXIntersection:
  28              	.LFB1:
  29              		.file 1 "u8glib/u8g_clip.c"
   1:u8glib/u8g_clip.c **** /*
   2:u8glib/u8g_clip.c **** 
   3:u8glib/u8g_clip.c ****   u8g_clip.c
   4:u8glib/u8g_clip.c ****   
   5:u8glib/u8g_clip.c ****   procedures for clipping
   6:u8glib/u8g_clip.c ****   taken over from procs in u8g_pb.c
   7:u8glib/u8g_clip.c **** 
   8:u8glib/u8g_clip.c ****   Universal 8bit Graphics Library
   9:u8glib/u8g_clip.c ****   
  10:u8glib/u8g_clip.c ****   Copyright (c) 2012, olikraus@gmail.com
  11:u8glib/u8g_clip.c ****   All rights reserved.
  12:u8glib/u8g_clip.c **** 
  13:u8glib/u8g_clip.c ****   Redistribution and use in source and binary forms, with or without modification, 
  14:u8glib/u8g_clip.c ****   are permitted provided that the following conditions are met:
  15:u8glib/u8g_clip.c **** 
  16:u8glib/u8g_clip.c ****   * Redistributions of source code must retain the above copyright notice, this list 
  17:u8glib/u8g_clip.c ****     of conditions and the following disclaimer.
  18:u8glib/u8g_clip.c ****     
  19:u8glib/u8g_clip.c ****   * Redistributions in binary form must reproduce the above copyright notice, this 
  20:u8glib/u8g_clip.c ****     list of conditions and the following disclaimer in the documentation and/or other 
  21:u8glib/u8g_clip.c ****     materials provided with the distribution.
  22:u8glib/u8g_clip.c **** 
  23:u8glib/u8g_clip.c ****   THIS SOFTWARE IS PROVIDED BY THE COPYRIGHT HOLDERS AND 
  24:u8glib/u8g_clip.c ****   CONTRIBUTORS "AS IS" AND ANY EXPRESS OR IMPLIED WARRANTIES, 
  25:u8glib/u8g_clip.c ****   INCLUDING, BUT NOT LIMITED TO, THE IMPLIED WARRANTIES OF 
  26:u8glib/u8g_clip.c ****   MERCHANTABILITY AND FITNESS FOR A PARTICULAR PURPOSE ARE 
  27:u8glib/u8g_clip.c ****   DISCLAIMED. IN NO EVENT SHALL THE COPYRIGHT HOLDER OR 
  28:u8glib/u8g_clip.c ****   CONTRIBUTORS BE LIABLE FOR ANY DIRECT, INDIRECT, INCIDENTAL, 
  29:u8glib/u8g_clip.c ****   SPECIAL, EXEMPLARY, OR CONSEQUENTIAL DAMAGES (INCLUDING, BUT 
ARM GAS  C:\Users\master\AppData\Local\Temp\ccm1Zl6f.s 			page 2


  30:u8glib/u8g_clip.c ****   NOT LIMITED TO, PROCUREMENT OF SUBSTITUTE GOODS OR SERVICES; 
  31:u8glib/u8g_clip.c ****   LOSS OF USE, DATA, OR PROFITS; OR BUSINESS INTERRUPTION) HOWEVER 
  32:u8glib/u8g_clip.c ****   CAUSED AND ON ANY THEORY OF LIABILITY, WHETHER IN CONTRACT, 
  33:u8glib/u8g_clip.c ****   STRICT LIABILITY, OR TORT (INCLUDING NEGLIGENCE OR OTHERWISE) 
  34:u8glib/u8g_clip.c ****   ARISING IN ANY WAY OUT OF THE USE OF THIS SOFTWARE, EVEN IF 
  35:u8glib/u8g_clip.c ****   ADVISED OF THE POSSIBILITY OF SUCH DAMAGE.  
  36:u8glib/u8g_clip.c ****   
  37:u8glib/u8g_clip.c ****   Notes
  38:u8glib/u8g_clip.c ****   
  39:u8glib/u8g_clip.c ****   This is one of the most critical parts of u8glib. It must be fast, but still reliable.
  40:u8glib/u8g_clip.c ****   Based on the intersection program (see tools folder), there is minimized version of
  41:u8glib/u8g_clip.c ****   the condition for the intersaction test:
  42:u8glib/u8g_clip.c ****     minimized version
  43:u8glib/u8g_clip.c ****     ---1----0 1             b1 <= a2 && b1 > b2
  44:u8glib/u8g_clip.c ****     -----1--0 1             b2 >= a1 && b1 > b2
  45:u8glib/u8g_clip.c ****     ---1-1--- 1             b1 <= a2 && b2 >= a1
  46:u8glib/u8g_clip.c ****   It includes the assumption, that a1 <= a2 is always true (correct, because
  47:u8glib/u8g_clip.c ****   a1, a2 are the page dimensions.
  48:u8glib/u8g_clip.c **** 
  49:u8glib/u8g_clip.c ****   The direct implementation of the above result is done in:
  50:u8glib/u8g_clip.c ****   uint8_t u8g_is_intersection_boolean(u8g_uint_t a0, u8g_uint_t a1, u8g_uint_t v0, u8g_uint_t v1)
  51:u8glib/u8g_clip.c ****   However, this is slower than a decision tree version:  
  52:u8glib/u8g_clip.c ****   static uint8_t u8g_is_intersection_decision_tree(u8g_uint_t a0, u8g_uint_t a1, u8g_uint_t v0, u8g
  53:u8glib/u8g_clip.c ****   Also suprising is, that the macro implementation is slower than the inlined version.
  54:u8glib/u8g_clip.c ****   
  55:u8glib/u8g_clip.c ****   The decision tree is based on the expansion of the truth table.
  56:u8glib/u8g_clip.c ****   
  57:u8glib/u8g_clip.c **** */
  58:u8glib/u8g_clip.c **** 
  59:u8glib/u8g_clip.c **** #include "u8g.h"
  60:u8glib/u8g_clip.c **** 
  61:u8glib/u8g_clip.c **** #ifdef __GNUC__
  62:u8glib/u8g_clip.c **** #define U8G_ALWAYS_INLINE __inline__ __attribute__((always_inline))
  63:u8glib/u8g_clip.c **** #else
  64:u8glib/u8g_clip.c **** #define U8G_ALWAYS_INLINE
  65:u8glib/u8g_clip.c **** #endif 
  66:u8glib/u8g_clip.c **** 
  67:u8glib/u8g_clip.c **** /*
  68:u8glib/u8g_clip.c ****   intersection assumptions:
  69:u8glib/u8g_clip.c ****     a1 <= a2 is always true    
  70:u8glib/u8g_clip.c ****     
  71:u8glib/u8g_clip.c ****     minimized version
  72:u8glib/u8g_clip.c ****     ---1----0 1             b1 <= a2 && b1 > b2
  73:u8glib/u8g_clip.c ****     -----1--0 1             b2 >= a1 && b1 > b2
  74:u8glib/u8g_clip.c ****     ---1-1--- 1             b1 <= a2 && b2 >= a1
  75:u8glib/u8g_clip.c ****   */
  76:u8glib/u8g_clip.c **** 
  77:u8glib/u8g_clip.c **** #ifdef OLD_CODE_WHICH_IS_TOO_SLOW
  78:u8glib/u8g_clip.c **** static uint8_t u8g_is_intersection_boolean(u8g_uint_t a0, u8g_uint_t a1, u8g_uint_t v0, u8g_uint_t 
  79:u8glib/u8g_clip.c **** {
  80:u8glib/u8g_clip.c ****   uint8_t c1, c2, c3, tmp;
  81:u8glib/u8g_clip.c ****   c1 = v0 <= a1;
  82:u8glib/u8g_clip.c ****   c2 = v1 >= a0;
  83:u8glib/u8g_clip.c ****   c3 = v0 > v1;
  84:u8glib/u8g_clip.c ****   
  85:u8glib/u8g_clip.c ****   tmp = c1;
  86:u8glib/u8g_clip.c ****   c1 &= c2;
ARM GAS  C:\Users\master\AppData\Local\Temp\ccm1Zl6f.s 			page 3


  87:u8glib/u8g_clip.c ****   c2 &= c3;
  88:u8glib/u8g_clip.c ****   c3 &= tmp;
  89:u8glib/u8g_clip.c ****   c1 |= c2;
  90:u8glib/u8g_clip.c ****   c1 |= c3;
  91:u8glib/u8g_clip.c ****   return c1 & 1;
  92:u8glib/u8g_clip.c **** }
  93:u8glib/u8g_clip.c **** #endif
  94:u8glib/u8g_clip.c **** 
  95:u8glib/u8g_clip.c **** #define U8G_IS_INTERSECTION_MACRO(a0,a1,v0,v1) ((uint8_t)( (v0) <= (a1) ) ? ( ( (v1) >= (a0) ) ? ( 
  96:u8glib/u8g_clip.c **** 
  97:u8glib/u8g_clip.c **** //static uint8_t u8g_is_intersection_decision_tree(u8g_uint_t a0, u8g_uint_t a1, u8g_uint_t v0, u8g
  98:u8glib/u8g_clip.c **** static uint8_t U8G_ALWAYS_INLINE u8g_is_intersection_decision_tree(u8g_uint_t a0, u8g_uint_t a1, u8
  99:u8glib/u8g_clip.c **** {
 100:u8glib/u8g_clip.c ****   /* surprisingly the macro leads to larger code */
 101:u8glib/u8g_clip.c ****   /* return U8G_IS_INTERSECTION_MACRO(a0,a1,v0,v1); */
 102:u8glib/u8g_clip.c ****   if ( v0 <= a1 )
 103:u8glib/u8g_clip.c ****   {
 104:u8glib/u8g_clip.c ****     if ( v1 >= a0 )
 105:u8glib/u8g_clip.c ****     {
 106:u8glib/u8g_clip.c ****       return 1;
 107:u8glib/u8g_clip.c ****     }
 108:u8glib/u8g_clip.c ****     else
 109:u8glib/u8g_clip.c ****     {
 110:u8glib/u8g_clip.c ****       if ( v0 > v1 )
 111:u8glib/u8g_clip.c ****       {
 112:u8glib/u8g_clip.c **** 	return 1;
 113:u8glib/u8g_clip.c ****       }
 114:u8glib/u8g_clip.c ****       else
 115:u8glib/u8g_clip.c ****       {
 116:u8glib/u8g_clip.c **** 	return 0;
 117:u8glib/u8g_clip.c ****       }
 118:u8glib/u8g_clip.c ****     }
 119:u8glib/u8g_clip.c ****   }
 120:u8glib/u8g_clip.c ****   else
 121:u8glib/u8g_clip.c ****   {
 122:u8glib/u8g_clip.c ****     if ( v1 >= a0 )
 123:u8glib/u8g_clip.c ****     {
 124:u8glib/u8g_clip.c ****       if ( v0 > v1 )
 125:u8glib/u8g_clip.c ****       {
 126:u8glib/u8g_clip.c **** 	return 1;
 127:u8glib/u8g_clip.c ****       }
 128:u8glib/u8g_clip.c ****       else
 129:u8glib/u8g_clip.c ****       {
 130:u8glib/u8g_clip.c **** 	return 0;
 131:u8glib/u8g_clip.c ****       }
 132:u8glib/u8g_clip.c ****     }
 133:u8glib/u8g_clip.c ****     else
 134:u8glib/u8g_clip.c ****     {
 135:u8glib/u8g_clip.c ****       return 0;
 136:u8glib/u8g_clip.c ****     }
 137:u8glib/u8g_clip.c ****   }
 138:u8glib/u8g_clip.c **** }
 139:u8glib/u8g_clip.c **** 
 140:u8glib/u8g_clip.c **** 
 141:u8glib/u8g_clip.c **** uint8_t u8g_IsBBXIntersection(u8g_t *u8g, u8g_uint_t x, u8g_uint_t y, u8g_uint_t w, u8g_uint_t h)
 142:u8glib/u8g_clip.c **** {
  30              		.loc 1 142 0
ARM GAS  C:\Users\master\AppData\Local\Temp\ccm1Zl6f.s 			page 4


  31              		.cfi_startproc
  32              		@ args = 4, pretend = 0, frame = 0
  33              		@ frame_needed = 0, uses_anonymous_args = 0
  34              		@ link register save eliminated.
  35              	.LVL0:
  36 0000 70B4     		push	{r4, r5, r6}
  37              	.LCFI0:
  38              		.cfi_def_cfa_offset 12
  39              		.cfi_offset 4, -12
  40              		.cfi_offset 5, -8
  41              		.cfi_offset 6, -4
  42              	.LVL1:
 143:u8glib/u8g_clip.c ****   register u8g_uint_t tmp;
 144:u8glib/u8g_clip.c ****   tmp = y;
 145:u8glib/u8g_clip.c ****   tmp += h;
  43              		.loc 1 145 0
  44 0002 9DF80C40 		ldrb	r4, [sp, #12]	@ zero_extendqisi2
  45 0006 1444     		add	r4, r4, r2
  46 0008 E4B2     		uxtb	r4, r4
  47              	.LVL2:
 146:u8glib/u8g_clip.c ****   tmp--;
  48              		.loc 1 146 0
  49 000a 013C     		subs	r4, r4, #1
  50              	.LVL3:
  51 000c E4B2     		uxtb	r4, r4
  52              	.LVL4:
 147:u8glib/u8g_clip.c ****   if ( u8g_is_intersection_decision_tree(u8g->current_page.y0, u8g->current_page.y1, y, tmp) == 0 )
  53              		.loc 1 147 0
  54 000e 90F83950 		ldrb	r5, [r0, #57]	@ zero_extendqisi2
  55 0012 90F83B60 		ldrb	r6, [r0, #59]	@ zero_extendqisi2
  56              	.LVL5:
  57              	.LBB6:
  58              	.LBB7:
 102:u8glib/u8g_clip.c ****   {
  59              		.loc 1 102 0
  60 0016 B242     		cmp	r2, r6
  61 0018 05D8     		bhi	.L2
 104:u8glib/u8g_clip.c ****     {
  62              		.loc 1 104 0
  63 001a AC42     		cmp	r4, r5
  64 001c 09D2     		bcs	.L7
 110:u8glib/u8g_clip.c ****       {
  65              		.loc 1 110 0
  66 001e A242     		cmp	r2, r4
  67 0020 09D9     		bls	.L8
 112:u8glib/u8g_clip.c ****       }
  68              		.loc 1 112 0
  69 0022 0122     		movs	r2, #1
  70              	.LVL6:
  71 0024 0CE0     		b	.L3
  72              	.LVL7:
  73              	.L2:
 122:u8glib/u8g_clip.c ****     {
  74              		.loc 1 122 0
  75 0026 AC42     		cmp	r4, r5
  76 0028 07D3     		bcc	.L9
 124:u8glib/u8g_clip.c ****       {
ARM GAS  C:\Users\master\AppData\Local\Temp\ccm1Zl6f.s 			page 5


  77              		.loc 1 124 0
  78 002a A242     		cmp	r2, r4
  79 002c 07D9     		bls	.L10
 126:u8glib/u8g_clip.c ****       }
  80              		.loc 1 126 0
  81 002e 0122     		movs	r2, #1
  82              	.LVL8:
  83 0030 06E0     		b	.L3
  84              	.LVL9:
  85              	.L7:
 106:u8glib/u8g_clip.c ****     }
  86              		.loc 1 106 0
  87 0032 0122     		movs	r2, #1
  88              	.LVL10:
  89 0034 04E0     		b	.L3
  90              	.LVL11:
  91              	.L8:
 116:u8glib/u8g_clip.c ****       }
  92              		.loc 1 116 0
  93 0036 0022     		movs	r2, #0
  94              	.LVL12:
  95 0038 02E0     		b	.L3
  96              	.LVL13:
  97              	.L9:
 135:u8glib/u8g_clip.c ****     }
  98              		.loc 1 135 0
  99 003a 0022     		movs	r2, #0
 100              	.LVL14:
 101 003c 00E0     		b	.L3
 102              	.LVL15:
 103              	.L10:
 130:u8glib/u8g_clip.c ****       }
 104              		.loc 1 130 0
 105 003e 0022     		movs	r2, #0
 106              	.LVL16:
 107              	.L3:
 108              	.LBE7:
 109              	.LBE6:
 110              		.loc 1 147 0
 111 0040 E2B1     		cbz	r2, .L4
 112              	.LVL17:
 148:u8glib/u8g_clip.c ****     return 0; 
 149:u8glib/u8g_clip.c ****   
 150:u8glib/u8g_clip.c ****   tmp = x;
 151:u8glib/u8g_clip.c ****   tmp += w;
 113              		.loc 1 151 0
 114 0042 0B44     		add	r3, r3, r1
 115              	.LVL18:
 116 0044 DBB2     		uxtb	r3, r3
 117              	.LVL19:
 152:u8glib/u8g_clip.c ****   tmp--;
 118              		.loc 1 152 0
 119 0046 013B     		subs	r3, r3, #1
 120              	.LVL20:
 121 0048 DBB2     		uxtb	r3, r3
 122              	.LVL21:
 153:u8glib/u8g_clip.c ****   return u8g_is_intersection_decision_tree(u8g->current_page.x0, u8g->current_page.x1, x, tmp);
ARM GAS  C:\Users\master\AppData\Local\Temp\ccm1Zl6f.s 			page 6


 123              		.loc 1 153 0
 124 004a 90F83820 		ldrb	r2, [r0, #56]	@ zero_extendqisi2
 125 004e 90F83A00 		ldrb	r0, [r0, #58]	@ zero_extendqisi2
 126              	.LVL22:
 127              	.LBB8:
 128              	.LBB9:
 102:u8glib/u8g_clip.c ****   {
 129              		.loc 1 102 0
 130 0052 8142     		cmp	r1, r0
 131 0054 05D8     		bhi	.L5
 104:u8glib/u8g_clip.c ****     {
 132              		.loc 1 104 0
 133 0056 9342     		cmp	r3, r2
 134 0058 09D2     		bcs	.L11
 110:u8glib/u8g_clip.c ****       {
 135              		.loc 1 110 0
 136 005a 9942     		cmp	r1, r3
 137 005c 09D9     		bls	.L12
 112:u8glib/u8g_clip.c ****       }
 138              		.loc 1 112 0
 139 005e 0122     		movs	r2, #1
 140              	.LVL23:
 141 0060 0CE0     		b	.L4
 142              	.LVL24:
 143              	.L5:
 122:u8glib/u8g_clip.c ****     {
 144              		.loc 1 122 0
 145 0062 9342     		cmp	r3, r2
 146 0064 07D3     		bcc	.L13
 124:u8glib/u8g_clip.c ****       {
 147              		.loc 1 124 0
 148 0066 9942     		cmp	r1, r3
 149 0068 07D9     		bls	.L14
 126:u8glib/u8g_clip.c ****       }
 150              		.loc 1 126 0
 151 006a 0122     		movs	r2, #1
 152              	.LVL25:
 153 006c 06E0     		b	.L4
 154              	.LVL26:
 155              	.L11:
 106:u8glib/u8g_clip.c ****     }
 156              		.loc 1 106 0
 157 006e 0122     		movs	r2, #1
 158              	.LVL27:
 159 0070 04E0     		b	.L4
 160              	.LVL28:
 161              	.L12:
 116:u8glib/u8g_clip.c ****       }
 162              		.loc 1 116 0
 163 0072 0022     		movs	r2, #0
 164              	.LVL29:
 165 0074 02E0     		b	.L4
 166              	.LVL30:
 167              	.L13:
 135:u8glib/u8g_clip.c ****     }
 168              		.loc 1 135 0
 169 0076 0022     		movs	r2, #0
ARM GAS  C:\Users\master\AppData\Local\Temp\ccm1Zl6f.s 			page 7


 170              	.LVL31:
 171 0078 00E0     		b	.L4
 172              	.LVL32:
 173              	.L14:
 130:u8glib/u8g_clip.c ****       }
 174              		.loc 1 130 0
 175 007a 0022     		movs	r2, #0
 176              	.LVL33:
 177              	.L4:
 178              	.LBE9:
 179              	.LBE8:
 154:u8glib/u8g_clip.c **** }
 180              		.loc 1 154 0
 181 007c 1046     		mov	r0, r2
 182 007e 70BC     		pop	{r4, r5, r6}
 183              	.LCFI1:
 184              		.cfi_restore 6
 185              		.cfi_restore 5
 186              		.cfi_restore 4
 187              		.cfi_def_cfa_offset 0
 188              	.LVL34:
 189 0080 7047     		bx	lr
 190              		.cfi_endproc
 191              	.LFE1:
 193 0082 00BF     		.text
 194              	.Letext0:
 195              		.file 2 "c:\\program files (x86)\\gnu tools arm embedded\\5.4 2016q3\\arm-none-eabi\\include\\mach
 196              		.file 3 "c:\\program files (x86)\\gnu tools arm embedded\\5.4 2016q3\\arm-none-eabi\\include\\sys\
 197              		.file 4 "u8glib/u8g.h"
ARM GAS  C:\Users\master\AppData\Local\Temp\ccm1Zl6f.s 			page 8

