ARM GAS  C:\Users\master\AppData\Local\Temp\ccDGE2QS.s 			page 1


   1              		.syntax unified
   2              		.cpu cortex-m4
   3              		.eabi_attribute 27, 1
   4              		.eabi_attribute 28, 1
   5              		.fpu fpv4-sp-d16
   6              		.eabi_attribute 20, 1
   7              		.eabi_attribute 21, 1
   8              		.eabi_attribute 23, 3
   9              		.eabi_attribute 24, 1
  10              		.eabi_attribute 25, 1
  11              		.eabi_attribute 26, 1
  12              		.eabi_attribute 30, 1
  13              		.eabi_attribute 34, 1
  14              		.eabi_attribute 18, 4
  15              		.thumb
  16              		.syntax unified
  17              		.file	"u8g_ll_api.c"
  18              		.text
  19              	.Ltext0:
  20              		.cfi_sections	.debug_frame
  21              		.section	.text.u8g_call_dev_fn,"ax",%progbits
  22              		.align	2
  23              		.global	u8g_call_dev_fn
  24              		.thumb
  25              		.thumb_func
  27              	u8g_call_dev_fn:
  28              	.LFB0:
  29              		.file 1 "u8glib/u8g_ll_api.c"
   1:u8glib/u8g_ll_api.c **** /*
   2:u8glib/u8g_ll_api.c **** 
   3:u8glib/u8g_ll_api.c ****   u8g_ll_api.c
   4:u8glib/u8g_ll_api.c ****   
   5:u8glib/u8g_ll_api.c ****   low level api
   6:u8glib/u8g_ll_api.c **** 
   7:u8glib/u8g_ll_api.c ****   Universal 8bit Graphics Library
   8:u8glib/u8g_ll_api.c ****   
   9:u8glib/u8g_ll_api.c ****   Copyright (c) 2011, olikraus@gmail.com
  10:u8glib/u8g_ll_api.c ****   All rights reserved.
  11:u8glib/u8g_ll_api.c **** 
  12:u8glib/u8g_ll_api.c ****   Redistribution and use in source and binary forms, with or without modification, 
  13:u8glib/u8g_ll_api.c ****   are permitted provided that the following conditions are met:
  14:u8glib/u8g_ll_api.c **** 
  15:u8glib/u8g_ll_api.c ****   * Redistributions of source code must retain the above copyright notice, this list 
  16:u8glib/u8g_ll_api.c ****     of conditions and the following disclaimer.
  17:u8glib/u8g_ll_api.c ****     
  18:u8glib/u8g_ll_api.c ****   * Redistributions in binary form must reproduce the above copyright notice, this 
  19:u8glib/u8g_ll_api.c ****     list of conditions and the following disclaimer in the documentation and/or other 
  20:u8glib/u8g_ll_api.c ****     materials provided with the distribution.
  21:u8glib/u8g_ll_api.c **** 
  22:u8glib/u8g_ll_api.c ****   THIS SOFTWARE IS PROVIDED BY THE COPYRIGHT HOLDERS AND 
  23:u8glib/u8g_ll_api.c ****   CONTRIBUTORS "AS IS" AND ANY EXPRESS OR IMPLIED WARRANTIES, 
  24:u8glib/u8g_ll_api.c ****   INCLUDING, BUT NOT LIMITED TO, THE IMPLIED WARRANTIES OF 
  25:u8glib/u8g_ll_api.c ****   MERCHANTABILITY AND FITNESS FOR A PARTICULAR PURPOSE ARE 
  26:u8glib/u8g_ll_api.c ****   DISCLAIMED. IN NO EVENT SHALL THE COPYRIGHT HOLDER OR 
  27:u8glib/u8g_ll_api.c ****   CONTRIBUTORS BE LIABLE FOR ANY DIRECT, INDIRECT, INCIDENTAL, 
  28:u8glib/u8g_ll_api.c ****   SPECIAL, EXEMPLARY, OR CONSEQUENTIAL DAMAGES (INCLUDING, BUT 
  29:u8glib/u8g_ll_api.c ****   NOT LIMITED TO, PROCUREMENT OF SUBSTITUTE GOODS OR SERVICES; 
ARM GAS  C:\Users\master\AppData\Local\Temp\ccDGE2QS.s 			page 2


  30:u8glib/u8g_ll_api.c ****   LOSS OF USE, DATA, OR PROFITS; OR BUSINESS INTERRUPTION) HOWEVER 
  31:u8glib/u8g_ll_api.c ****   CAUSED AND ON ANY THEORY OF LIABILITY, WHETHER IN CONTRACT, 
  32:u8glib/u8g_ll_api.c ****   STRICT LIABILITY, OR TORT (INCLUDING NEGLIGENCE OR OTHERWISE) 
  33:u8glib/u8g_ll_api.c ****   ARISING IN ANY WAY OUT OF THE USE OF THIS SOFTWARE, EVEN IF 
  34:u8glib/u8g_ll_api.c ****   ADVISED OF THE POSSIBILITY OF SUCH DAMAGE.  
  35:u8glib/u8g_ll_api.c ****   
  36:u8glib/u8g_ll_api.c **** 
  37:u8glib/u8g_ll_api.c **** */
  38:u8glib/u8g_ll_api.c **** 
  39:u8glib/u8g_ll_api.c **** #include <stddef.h>
  40:u8glib/u8g_ll_api.c **** #include "u8g.h"
  41:u8glib/u8g_ll_api.c **** 
  42:u8glib/u8g_ll_api.c **** uint8_t u8g_call_dev_fn(u8g_t *u8g, u8g_dev_t *dev, uint8_t msg, void *arg)
  43:u8glib/u8g_ll_api.c **** {
  30              		.loc 1 43 0
  31              		.cfi_startproc
  32              		@ args = 0, pretend = 0, frame = 0
  33              		@ frame_needed = 0, uses_anonymous_args = 0
  34              	.LVL0:
  35 0000 10B5     		push	{r4, lr}
  36              	.LCFI0:
  37              		.cfi_def_cfa_offset 8
  38              		.cfi_offset 4, -8
  39              		.cfi_offset 14, -4
  44:u8glib/u8g_ll_api.c ****   return dev->dev_fn(u8g, dev, msg, arg); 
  40              		.loc 1 44 0
  41 0002 0C68     		ldr	r4, [r1]
  42 0004 A047     		blx	r4
  43              	.LVL1:
  45:u8glib/u8g_ll_api.c **** }
  44              		.loc 1 45 0
  45 0006 10BD     		pop	{r4, pc}
  46              		.cfi_endproc
  47              	.LFE0:
  49              		.section	.text.u8g_InitLL,"ax",%progbits
  50              		.align	2
  51              		.global	u8g_InitLL
  52              		.thumb
  53              		.thumb_func
  55              	u8g_InitLL:
  56              	.LFB1:
  46:u8glib/u8g_ll_api.c **** 
  47:u8glib/u8g_ll_api.c **** /*====================================================================*/
  48:u8glib/u8g_ll_api.c **** 
  49:u8glib/u8g_ll_api.c **** uint8_t u8g_InitLL(u8g_t *u8g, u8g_dev_t *dev)
  50:u8glib/u8g_ll_api.c **** {
  57              		.loc 1 50 0
  58              		.cfi_startproc
  59              		@ args = 0, pretend = 0, frame = 0
  60              		@ frame_needed = 0, uses_anonymous_args = 0
  61              	.LVL2:
  62 0000 38B5     		push	{r3, r4, r5, lr}
  63              	.LCFI1:
  64              		.cfi_def_cfa_offset 16
  65              		.cfi_offset 3, -16
  66              		.cfi_offset 4, -12
  67              		.cfi_offset 5, -8
ARM GAS  C:\Users\master\AppData\Local\Temp\ccDGE2QS.s 			page 3


  68              		.cfi_offset 14, -4
  69 0002 0446     		mov	r4, r0
  70 0004 0D46     		mov	r5, r1
  51:u8glib/u8g_ll_api.c ****   uint8_t r;
  52:u8glib/u8g_ll_api.c ****   u8g->state_cb(U8G_STATE_MSG_BACKUP_ENV);
  71              		.loc 1 52 0
  72 0006 436B     		ldr	r3, [r0, #52]
  73 0008 0220     		movs	r0, #2
  74              	.LVL3:
  75 000a 9847     		blx	r3
  76              	.LVL4:
  53:u8glib/u8g_ll_api.c ****   r =  u8g_call_dev_fn(u8g, dev, U8G_DEV_MSG_INIT, NULL);
  77              		.loc 1 53 0
  78 000c 0023     		movs	r3, #0
  79 000e 0A22     		movs	r2, #10
  80 0010 2946     		mov	r1, r5
  81 0012 2046     		mov	r0, r4
  82 0014 FFF7FEFF 		bl	u8g_call_dev_fn
  83              	.LVL5:
  84 0018 0546     		mov	r5, r0
  85              	.LVL6:
  54:u8glib/u8g_ll_api.c ****   u8g->state_cb(U8G_STATE_MSG_BACKUP_U8G);
  86              		.loc 1 54 0
  87 001a 636B     		ldr	r3, [r4, #52]
  88 001c 0320     		movs	r0, #3
  89 001e 9847     		blx	r3
  90              	.LVL7:
  55:u8glib/u8g_ll_api.c ****   u8g->state_cb(U8G_STATE_MSG_RESTORE_ENV);
  91              		.loc 1 55 0
  92 0020 636B     		ldr	r3, [r4, #52]
  93 0022 0020     		movs	r0, #0
  94 0024 9847     		blx	r3
  95              	.LVL8:
  56:u8glib/u8g_ll_api.c ****   return r;
  57:u8glib/u8g_ll_api.c **** }
  96              		.loc 1 57 0
  97 0026 2846     		mov	r0, r5
  98 0028 38BD     		pop	{r3, r4, r5, pc}
  99              		.cfi_endproc
 100              	.LFE1:
 102 002a 00BF     		.section	.text.u8g_FirstPageLL,"ax",%progbits
 103              		.align	2
 104              		.global	u8g_FirstPageLL
 105              		.thumb
 106              		.thumb_func
 108              	u8g_FirstPageLL:
 109              	.LFB2:
  58:u8glib/u8g_ll_api.c **** 
  59:u8glib/u8g_ll_api.c **** void u8g_FirstPageLL(u8g_t *u8g, u8g_dev_t *dev)
  60:u8glib/u8g_ll_api.c **** {  
 110              		.loc 1 60 0
 111              		.cfi_startproc
 112              		@ args = 0, pretend = 0, frame = 0
 113              		@ frame_needed = 0, uses_anonymous_args = 0
 114              	.LVL9:
 115 0000 38B5     		push	{r3, r4, r5, lr}
 116              	.LCFI2:
ARM GAS  C:\Users\master\AppData\Local\Temp\ccDGE2QS.s 			page 4


 117              		.cfi_def_cfa_offset 16
 118              		.cfi_offset 3, -16
 119              		.cfi_offset 4, -12
 120              		.cfi_offset 5, -8
 121              		.cfi_offset 14, -4
 122 0002 0446     		mov	r4, r0
 123 0004 0D46     		mov	r5, r1
  61:u8glib/u8g_ll_api.c ****   u8g->state_cb(U8G_STATE_MSG_BACKUP_ENV);
 124              		.loc 1 61 0
 125 0006 436B     		ldr	r3, [r0, #52]
 126 0008 0220     		movs	r0, #2
 127              	.LVL10:
 128 000a 9847     		blx	r3
 129              	.LVL11:
  62:u8glib/u8g_ll_api.c ****   u8g->state_cb(U8G_STATE_MSG_RESTORE_U8G);
 130              		.loc 1 62 0
 131 000c 636B     		ldr	r3, [r4, #52]
 132 000e 0120     		movs	r0, #1
 133 0010 9847     		blx	r3
 134              	.LVL12:
  63:u8glib/u8g_ll_api.c ****   u8g_call_dev_fn(u8g, dev, U8G_DEV_MSG_PAGE_FIRST, NULL);
 135              		.loc 1 63 0
 136 0012 0023     		movs	r3, #0
 137 0014 1422     		movs	r2, #20
 138 0016 2946     		mov	r1, r5
 139 0018 2046     		mov	r0, r4
 140 001a FFF7FEFF 		bl	u8g_call_dev_fn
 141              	.LVL13:
  64:u8glib/u8g_ll_api.c ****   u8g_call_dev_fn(u8g, dev, U8G_DEV_MSG_GET_PAGE_BOX, &(u8g->current_page));
 142              		.loc 1 64 0
 143 001e 04F13803 		add	r3, r4, #56
 144 0022 1722     		movs	r2, #23
 145 0024 2946     		mov	r1, r5
 146 0026 2046     		mov	r0, r4
 147 0028 FFF7FEFF 		bl	u8g_call_dev_fn
 148              	.LVL14:
  65:u8glib/u8g_ll_api.c ****   u8g->state_cb(U8G_STATE_MSG_RESTORE_ENV);
 149              		.loc 1 65 0
 150 002c 636B     		ldr	r3, [r4, #52]
 151 002e 0020     		movs	r0, #0
 152 0030 9847     		blx	r3
 153              	.LVL15:
 154 0032 38BD     		pop	{r3, r4, r5, pc}
 155              		.cfi_endproc
 156              	.LFE2:
 158              		.section	.text.u8g_NextPageLL,"ax",%progbits
 159              		.align	2
 160              		.global	u8g_NextPageLL
 161              		.thumb
 162              		.thumb_func
 164              	u8g_NextPageLL:
 165              	.LFB3:
  66:u8glib/u8g_ll_api.c **** }
  67:u8glib/u8g_ll_api.c **** 
  68:u8glib/u8g_ll_api.c **** uint8_t u8g_NextPageLL(u8g_t *u8g, u8g_dev_t *dev)
  69:u8glib/u8g_ll_api.c **** {  
 166              		.loc 1 69 0
ARM GAS  C:\Users\master\AppData\Local\Temp\ccDGE2QS.s 			page 5


 167              		.cfi_startproc
 168              		@ args = 0, pretend = 0, frame = 0
 169              		@ frame_needed = 0, uses_anonymous_args = 0
 170              	.LVL16:
 171 0000 70B5     		push	{r4, r5, r6, lr}
 172              	.LCFI3:
 173              		.cfi_def_cfa_offset 16
 174              		.cfi_offset 4, -16
 175              		.cfi_offset 5, -12
 176              		.cfi_offset 6, -8
 177              		.cfi_offset 14, -4
 178 0002 0446     		mov	r4, r0
 179 0004 0D46     		mov	r5, r1
  70:u8glib/u8g_ll_api.c ****   uint8_t r;
  71:u8glib/u8g_ll_api.c ****   u8g->state_cb(U8G_STATE_MSG_BACKUP_ENV);
 180              		.loc 1 71 0
 181 0006 436B     		ldr	r3, [r0, #52]
 182 0008 0220     		movs	r0, #2
 183              	.LVL17:
 184 000a 9847     		blx	r3
 185              	.LVL18:
  72:u8glib/u8g_ll_api.c ****   u8g->state_cb(U8G_STATE_MSG_RESTORE_U8G);
 186              		.loc 1 72 0
 187 000c 636B     		ldr	r3, [r4, #52]
 188 000e 0120     		movs	r0, #1
 189 0010 9847     		blx	r3
 190              	.LVL19:
  73:u8glib/u8g_ll_api.c ****   r = u8g_call_dev_fn(u8g, dev, U8G_DEV_MSG_PAGE_NEXT, NULL);
 191              		.loc 1 73 0
 192 0012 0023     		movs	r3, #0
 193 0014 1522     		movs	r2, #21
 194 0016 2946     		mov	r1, r5
 195 0018 2046     		mov	r0, r4
 196 001a FFF7FEFF 		bl	u8g_call_dev_fn
 197              	.LVL20:
  74:u8glib/u8g_ll_api.c ****   if ( r != 0 )
 198              		.loc 1 74 0
 199 001e 0646     		mov	r6, r0
 200 0020 30B1     		cbz	r0, .L8
  75:u8glib/u8g_ll_api.c ****   {
  76:u8glib/u8g_ll_api.c ****     u8g_call_dev_fn(u8g, dev, U8G_DEV_MSG_GET_PAGE_BOX, &(u8g->current_page));
 201              		.loc 1 76 0
 202 0022 04F13803 		add	r3, r4, #56
 203 0026 1722     		movs	r2, #23
 204 0028 2946     		mov	r1, r5
 205 002a 2046     		mov	r0, r4
 206              	.LVL21:
 207 002c FFF7FEFF 		bl	u8g_call_dev_fn
 208              	.LVL22:
 209              	.L8:
  77:u8glib/u8g_ll_api.c ****   }
  78:u8glib/u8g_ll_api.c ****   u8g->state_cb(U8G_STATE_MSG_RESTORE_ENV);
 210              		.loc 1 78 0
 211 0030 636B     		ldr	r3, [r4, #52]
 212 0032 0020     		movs	r0, #0
 213 0034 9847     		blx	r3
 214              	.LVL23:
ARM GAS  C:\Users\master\AppData\Local\Temp\ccDGE2QS.s 			page 6


  79:u8glib/u8g_ll_api.c ****   return r;
  80:u8glib/u8g_ll_api.c **** }
 215              		.loc 1 80 0
 216 0036 3046     		mov	r0, r6
 217 0038 70BD     		pop	{r4, r5, r6, pc}
 218              		.cfi_endproc
 219              	.LFE3:
 221 003a 00BF     		.section	.text.u8g_SetContrastLL,"ax",%progbits
 222              		.align	2
 223              		.global	u8g_SetContrastLL
 224              		.thumb
 225              		.thumb_func
 227              	u8g_SetContrastLL:
 228              	.LFB4:
  81:u8glib/u8g_ll_api.c **** 
  82:u8glib/u8g_ll_api.c **** uint8_t u8g_SetContrastLL(u8g_t *u8g, u8g_dev_t *dev, uint8_t contrast)
  83:u8glib/u8g_ll_api.c **** {  
 229              		.loc 1 83 0
 230              		.cfi_startproc
 231              		@ args = 0, pretend = 0, frame = 8
 232              		@ frame_needed = 0, uses_anonymous_args = 0
 233              	.LVL24:
 234 0000 00B5     		push	{lr}
 235              	.LCFI4:
 236              		.cfi_def_cfa_offset 4
 237              		.cfi_offset 14, -4
 238 0002 83B0     		sub	sp, sp, #12
 239              	.LCFI5:
 240              		.cfi_def_cfa_offset 16
 241 0004 02AB     		add	r3, sp, #8
 242 0006 03F8012D 		strb	r2, [r3, #-1]!
  84:u8glib/u8g_ll_api.c ****   return u8g_call_dev_fn(u8g, dev, U8G_DEV_MSG_CONTRAST, &contrast);
 243              		.loc 1 84 0
 244 000a 0F22     		movs	r2, #15
 245              	.LVL25:
 246 000c FFF7FEFF 		bl	u8g_call_dev_fn
 247              	.LVL26:
  85:u8glib/u8g_ll_api.c **** }
 248              		.loc 1 85 0
 249 0010 03B0     		add	sp, sp, #12
 250              	.LCFI6:
 251              		.cfi_def_cfa_offset 4
 252              		@ sp needed
 253 0012 5DF804FB 		ldr	pc, [sp], #4
 254              		.cfi_endproc
 255              	.LFE4:
 257 0016 00BF     		.section	.text.u8g_DrawPixelLL,"ax",%progbits
 258              		.align	2
 259              		.global	u8g_DrawPixelLL
 260              		.thumb
 261              		.thumb_func
 263              	u8g_DrawPixelLL:
 264              	.LFB5:
  86:u8glib/u8g_ll_api.c **** 
  87:u8glib/u8g_ll_api.c **** void u8g_DrawPixelLL(u8g_t *u8g, u8g_dev_t *dev, u8g_uint_t x, u8g_uint_t y)
  88:u8glib/u8g_ll_api.c **** {
 265              		.loc 1 88 0
ARM GAS  C:\Users\master\AppData\Local\Temp\ccDGE2QS.s 			page 7


 266              		.cfi_startproc
 267              		@ args = 0, pretend = 0, frame = 0
 268              		@ frame_needed = 0, uses_anonymous_args = 0
 269              	.LVL27:
 270 0000 10B5     		push	{r4, lr}
 271              	.LCFI7:
 272              		.cfi_def_cfa_offset 8
 273              		.cfi_offset 4, -8
 274              		.cfi_offset 14, -4
 275              	.LVL28:
  89:u8glib/u8g_ll_api.c ****   u8g_dev_arg_pixel_t *arg = &(u8g->arg_pixel);
  90:u8glib/u8g_ll_api.c ****   arg->x = x;
 276              		.loc 1 90 0
 277 0002 80F82D20 		strb	r2, [r0, #45]
  91:u8glib/u8g_ll_api.c ****   arg->y = y;
 278              		.loc 1 91 0
 279 0006 80F82E30 		strb	r3, [r0, #46]
  92:u8glib/u8g_ll_api.c ****   u8g_call_dev_fn(u8g, dev, U8G_DEV_MSG_SET_PIXEL, arg);
 280              		.loc 1 92 0
 281 000a 00F12D03 		add	r3, r0, #45
 282              	.LVL29:
 283 000e 3222     		movs	r2, #50
 284              	.LVL30:
 285 0010 FFF7FEFF 		bl	u8g_call_dev_fn
 286              	.LVL31:
 287 0014 10BD     		pop	{r4, pc}
 288              		.cfi_endproc
 289              	.LFE5:
 291 0016 00BF     		.section	.text.u8g_Draw8PixelLL,"ax",%progbits
 292              		.align	2
 293              		.global	u8g_Draw8PixelLL
 294              		.thumb
 295              		.thumb_func
 297              	u8g_Draw8PixelLL:
 298              	.LFB6:
  93:u8glib/u8g_ll_api.c **** }
  94:u8glib/u8g_ll_api.c **** 
  95:u8glib/u8g_ll_api.c **** void u8g_Draw8PixelLL(u8g_t *u8g, u8g_dev_t *dev, u8g_uint_t x, u8g_uint_t y, uint8_t dir, uint8_t 
  96:u8glib/u8g_ll_api.c **** {
 299              		.loc 1 96 0
 300              		.cfi_startproc
 301              		@ args = 8, pretend = 0, frame = 0
 302              		@ frame_needed = 0, uses_anonymous_args = 0
 303              	.LVL32:
 304 0000 10B5     		push	{r4, lr}
 305              	.LCFI8:
 306              		.cfi_def_cfa_offset 8
 307              		.cfi_offset 4, -8
 308              		.cfi_offset 14, -4
 309              	.LVL33:
  97:u8glib/u8g_ll_api.c ****   u8g_dev_arg_pixel_t *arg = &(u8g->arg_pixel);
  98:u8glib/u8g_ll_api.c ****   arg->x = x;
 310              		.loc 1 98 0
 311 0002 80F82D20 		strb	r2, [r0, #45]
  99:u8glib/u8g_ll_api.c ****   arg->y = y;
 312              		.loc 1 99 0
 313 0006 80F82E30 		strb	r3, [r0, #46]
ARM GAS  C:\Users\master\AppData\Local\Temp\ccDGE2QS.s 			page 8


 100:u8glib/u8g_ll_api.c ****   arg->dir = dir;
 314              		.loc 1 100 0
 315 000a 9DF80830 		ldrb	r3, [sp, #8]	@ zero_extendqisi2
 316              	.LVL34:
 317 000e 80F83030 		strb	r3, [r0, #48]
 101:u8glib/u8g_ll_api.c ****   arg->pixel = pixel;
 318              		.loc 1 101 0
 319 0012 9DF80C30 		ldrb	r3, [sp, #12]	@ zero_extendqisi2
 320 0016 80F82F30 		strb	r3, [r0, #47]
 102:u8glib/u8g_ll_api.c ****   u8g_call_dev_fn(u8g, dev, U8G_DEV_MSG_SET_8PIXEL, arg);
 321              		.loc 1 102 0
 322 001a 00F12D03 		add	r3, r0, #45
 323              	.LVL35:
 324 001e 3B22     		movs	r2, #59
 325              	.LVL36:
 326 0020 FFF7FEFF 		bl	u8g_call_dev_fn
 327              	.LVL37:
 328 0024 10BD     		pop	{r4, pc}
 329              		.cfi_endproc
 330              	.LFE6:
 332 0026 00BF     		.section	.text.u8g_Draw4TPixelLL,"ax",%progbits
 333              		.align	2
 334              		.global	u8g_Draw4TPixelLL
 335              		.thumb
 336              		.thumb_func
 338              	u8g_Draw4TPixelLL:
 339              	.LFB7:
 103:u8glib/u8g_ll_api.c **** }
 104:u8glib/u8g_ll_api.c **** 
 105:u8glib/u8g_ll_api.c **** void u8g_Draw4TPixelLL(u8g_t *u8g, u8g_dev_t *dev, u8g_uint_t x, u8g_uint_t y, uint8_t dir, uint8_t
 106:u8glib/u8g_ll_api.c **** {
 340              		.loc 1 106 0
 341              		.cfi_startproc
 342              		@ args = 8, pretend = 0, frame = 0
 343              		@ frame_needed = 0, uses_anonymous_args = 0
 344              	.LVL38:
 345 0000 10B5     		push	{r4, lr}
 346              	.LCFI9:
 347              		.cfi_def_cfa_offset 8
 348              		.cfi_offset 4, -8
 349              		.cfi_offset 14, -4
 350              	.LVL39:
 107:u8glib/u8g_ll_api.c ****   u8g_dev_arg_pixel_t *arg = &(u8g->arg_pixel);
 108:u8glib/u8g_ll_api.c ****   arg->x = x;
 351              		.loc 1 108 0
 352 0002 80F82D20 		strb	r2, [r0, #45]
 109:u8glib/u8g_ll_api.c ****   arg->y = y;
 353              		.loc 1 109 0
 354 0006 80F82E30 		strb	r3, [r0, #46]
 110:u8glib/u8g_ll_api.c ****   arg->dir = dir;
 355              		.loc 1 110 0
 356 000a 9DF80830 		ldrb	r3, [sp, #8]	@ zero_extendqisi2
 357              	.LVL40:
 358 000e 80F83030 		strb	r3, [r0, #48]
 111:u8glib/u8g_ll_api.c ****   arg->pixel = pixel;
 359              		.loc 1 111 0
 360 0012 9DF80C30 		ldrb	r3, [sp, #12]	@ zero_extendqisi2
ARM GAS  C:\Users\master\AppData\Local\Temp\ccDGE2QS.s 			page 9


 361 0016 80F82F30 		strb	r3, [r0, #47]
 112:u8glib/u8g_ll_api.c ****   u8g_call_dev_fn(u8g, dev, U8G_DEV_MSG_SET_4TPIXEL, arg);
 362              		.loc 1 112 0
 363 001a 00F12D03 		add	r3, r0, #45
 364              	.LVL41:
 365 001e 2D22     		movs	r2, #45
 366              	.LVL42:
 367 0020 FFF7FEFF 		bl	u8g_call_dev_fn
 368              	.LVL43:
 369 0024 10BD     		pop	{r4, pc}
 370              		.cfi_endproc
 371              	.LFE7:
 373 0026 00BF     		.section	.text.u8g_GetWidthLL,"ax",%progbits
 374              		.align	2
 375              		.global	u8g_GetWidthLL
 376              		.thumb
 377              		.thumb_func
 379              	u8g_GetWidthLL:
 380              	.LFB8:
 113:u8glib/u8g_ll_api.c **** }
 114:u8glib/u8g_ll_api.c **** 
 115:u8glib/u8g_ll_api.c **** 
 116:u8glib/u8g_ll_api.c **** #ifdef U8G_DEV_MSG_IS_BBX_INTERSECTION
 117:u8glib/u8g_ll_api.c **** uint8_t u8g_IsBBXIntersectionLL(u8g_t *u8g, u8g_dev_t *dev, u8g_uint_t x, u8g_uint_t y, u8g_uint_t 
 118:u8glib/u8g_ll_api.c **** {  
 119:u8glib/u8g_ll_api.c ****   return u8g_call_dev_fn(u8g, dev, U8G_DEV_MSG_IS_BBX_INTERSECTION, &arg);
 120:u8glib/u8g_ll_api.c **** }
 121:u8glib/u8g_ll_api.c **** #endif
 122:u8glib/u8g_ll_api.c **** 
 123:u8glib/u8g_ll_api.c **** 
 124:u8glib/u8g_ll_api.c **** 
 125:u8glib/u8g_ll_api.c **** u8g_uint_t u8g_GetWidthLL(u8g_t *u8g, u8g_dev_t *dev)
 126:u8glib/u8g_ll_api.c **** {
 381              		.loc 1 126 0
 382              		.cfi_startproc
 383              		@ args = 0, pretend = 0, frame = 8
 384              		@ frame_needed = 0, uses_anonymous_args = 0
 385              	.LVL44:
 386 0000 00B5     		push	{lr}
 387              	.LCFI10:
 388              		.cfi_def_cfa_offset 4
 389              		.cfi_offset 14, -4
 390 0002 83B0     		sub	sp, sp, #12
 391              	.LCFI11:
 392              		.cfi_def_cfa_offset 16
 127:u8glib/u8g_ll_api.c ****   u8g_uint_t r;
 128:u8glib/u8g_ll_api.c ****   u8g_call_dev_fn(u8g, dev, U8G_DEV_MSG_GET_WIDTH, &r);
 393              		.loc 1 128 0
 394 0004 0DF10703 		add	r3, sp, #7
 395 0008 4622     		movs	r2, #70
 396 000a FFF7FEFF 		bl	u8g_call_dev_fn
 397              	.LVL45:
 129:u8glib/u8g_ll_api.c ****   return r;
 130:u8glib/u8g_ll_api.c **** }
 398              		.loc 1 130 0
 399 000e 9DF80700 		ldrb	r0, [sp, #7]	@ zero_extendqisi2
 400 0012 03B0     		add	sp, sp, #12
ARM GAS  C:\Users\master\AppData\Local\Temp\ccDGE2QS.s 			page 10


 401              	.LCFI12:
 402              		.cfi_def_cfa_offset 4
 403              		@ sp needed
 404 0014 5DF804FB 		ldr	pc, [sp], #4
 405              		.cfi_endproc
 406              	.LFE8:
 408              		.section	.text.u8g_GetHeightLL,"ax",%progbits
 409              		.align	2
 410              		.global	u8g_GetHeightLL
 411              		.thumb
 412              		.thumb_func
 414              	u8g_GetHeightLL:
 415              	.LFB9:
 131:u8glib/u8g_ll_api.c **** 
 132:u8glib/u8g_ll_api.c **** u8g_uint_t u8g_GetHeightLL(u8g_t *u8g, u8g_dev_t *dev)
 133:u8glib/u8g_ll_api.c **** {       
 416              		.loc 1 133 0
 417              		.cfi_startproc
 418              		@ args = 0, pretend = 0, frame = 8
 419              		@ frame_needed = 0, uses_anonymous_args = 0
 420              	.LVL46:
 421 0000 00B5     		push	{lr}
 422              	.LCFI13:
 423              		.cfi_def_cfa_offset 4
 424              		.cfi_offset 14, -4
 425 0002 83B0     		sub	sp, sp, #12
 426              	.LCFI14:
 427              		.cfi_def_cfa_offset 16
 134:u8glib/u8g_ll_api.c ****   u8g_uint_t r;
 135:u8glib/u8g_ll_api.c ****   u8g_call_dev_fn(u8g, dev, U8G_DEV_MSG_GET_HEIGHT, &r);
 428              		.loc 1 135 0
 429 0004 0DF10703 		add	r3, sp, #7
 430 0008 4722     		movs	r2, #71
 431 000a FFF7FEFF 		bl	u8g_call_dev_fn
 432              	.LVL47:
 136:u8glib/u8g_ll_api.c ****   return r;
 137:u8glib/u8g_ll_api.c **** }
 433              		.loc 1 137 0
 434 000e 9DF80700 		ldrb	r0, [sp, #7]	@ zero_extendqisi2
 435 0012 03B0     		add	sp, sp, #12
 436              	.LCFI15:
 437              		.cfi_def_cfa_offset 4
 438              		@ sp needed
 439 0014 5DF804FB 		ldr	pc, [sp], #4
 440              		.cfi_endproc
 441              	.LFE9:
 443              		.section	.text.u8g_GetModeLL,"ax",%progbits
 444              		.align	2
 445              		.global	u8g_GetModeLL
 446              		.thumb
 447              		.thumb_func
 449              	u8g_GetModeLL:
 450              	.LFB10:
 138:u8glib/u8g_ll_api.c **** 
 139:u8glib/u8g_ll_api.c **** u8g_uint_t u8g_GetModeLL(u8g_t *u8g, u8g_dev_t *dev)
 140:u8glib/u8g_ll_api.c **** {       
 451              		.loc 1 140 0
ARM GAS  C:\Users\master\AppData\Local\Temp\ccDGE2QS.s 			page 11


 452              		.cfi_startproc
 453              		@ args = 0, pretend = 0, frame = 0
 454              		@ frame_needed = 0, uses_anonymous_args = 0
 455              	.LVL48:
 456 0000 08B5     		push	{r3, lr}
 457              	.LCFI16:
 458              		.cfi_def_cfa_offset 8
 459              		.cfi_offset 3, -8
 460              		.cfi_offset 14, -4
 141:u8glib/u8g_ll_api.c ****   return u8g_call_dev_fn(u8g, dev, U8G_DEV_MSG_GET_MODE, NULL);
 461              		.loc 1 141 0
 462 0002 0023     		movs	r3, #0
 463 0004 4822     		movs	r2, #72
 464 0006 FFF7FEFF 		bl	u8g_call_dev_fn
 465              	.LVL49:
 142:u8glib/u8g_ll_api.c **** }
 466              		.loc 1 142 0
 467 000a 08BD     		pop	{r3, pc}
 468              		.cfi_endproc
 469              	.LFE10:
 471              		.section	.text.u8g_UpdateDimension,"ax",%progbits
 472              		.align	2
 473              		.global	u8g_UpdateDimension
 474              		.thumb
 475              		.thumb_func
 477              	u8g_UpdateDimension:
 478              	.LFB11:
 143:u8glib/u8g_ll_api.c **** 
 144:u8glib/u8g_ll_api.c **** 
 145:u8glib/u8g_ll_api.c **** 
 146:u8glib/u8g_ll_api.c **** /*====================================================================*/
 147:u8glib/u8g_ll_api.c **** 
 148:u8glib/u8g_ll_api.c **** void u8g_UpdateDimension(u8g_t *u8g)
 149:u8glib/u8g_ll_api.c **** {
 479              		.loc 1 149 0
 480              		.cfi_startproc
 481              		@ args = 0, pretend = 0, frame = 0
 482              		@ frame_needed = 0, uses_anonymous_args = 0
 483              	.LVL50:
 484 0000 10B5     		push	{r4, lr}
 485              	.LCFI17:
 486              		.cfi_def_cfa_offset 8
 487              		.cfi_offset 4, -8
 488              		.cfi_offset 14, -4
 489 0002 0446     		mov	r4, r0
 150:u8glib/u8g_ll_api.c ****   u8g->width = u8g_GetWidthLL(u8g, u8g->dev);
 490              		.loc 1 150 0
 491 0004 4168     		ldr	r1, [r0, #4]
 492 0006 FFF7FEFF 		bl	u8g_GetWidthLL
 493              	.LVL51:
 494 000a 2070     		strb	r0, [r4]
 151:u8glib/u8g_ll_api.c ****   u8g->height = u8g_GetHeightLL(u8g, u8g->dev);
 495              		.loc 1 151 0
 496 000c 6168     		ldr	r1, [r4, #4]
 497 000e 2046     		mov	r0, r4
 498 0010 FFF7FEFF 		bl	u8g_GetHeightLL
 499              	.LVL52:
ARM GAS  C:\Users\master\AppData\Local\Temp\ccDGE2QS.s 			page 12


 500 0014 6070     		strb	r0, [r4, #1]
 152:u8glib/u8g_ll_api.c ****   u8g->mode = u8g_GetModeLL(u8g, u8g->dev);
 501              		.loc 1 152 0
 502 0016 6168     		ldr	r1, [r4, #4]
 503 0018 2046     		mov	r0, r4
 504 001a FFF7FEFF 		bl	u8g_GetModeLL
 505              	.LVL53:
 506 001e E074     		strb	r0, [r4, #19]
 153:u8glib/u8g_ll_api.c ****   /* 9 Dec 2012: u8g_scale.c requires update of current page */
 154:u8glib/u8g_ll_api.c ****   u8g_call_dev_fn(u8g, u8g->dev, U8G_DEV_MSG_GET_PAGE_BOX, &(u8g->current_page));
 507              		.loc 1 154 0
 508 0020 04F13803 		add	r3, r4, #56
 509 0024 1722     		movs	r2, #23
 510 0026 6168     		ldr	r1, [r4, #4]
 511 0028 2046     		mov	r0, r4
 512 002a FFF7FEFF 		bl	u8g_call_dev_fn
 513              	.LVL54:
 514 002e 10BD     		pop	{r4, pc}
 515              		.cfi_endproc
 516              	.LFE11:
 518              		.section	.text.u8g_Begin,"ax",%progbits
 519              		.align	2
 520              		.global	u8g_Begin
 521              		.thumb
 522              		.thumb_func
 524              	u8g_Begin:
 525              	.LFB13:
 155:u8glib/u8g_ll_api.c **** }
 156:u8glib/u8g_ll_api.c **** 
 157:u8glib/u8g_ll_api.c **** static void u8g_init_data(u8g_t *u8g)
 158:u8glib/u8g_ll_api.c **** {
 159:u8glib/u8g_ll_api.c ****   u8g->font = NULL;
 160:u8glib/u8g_ll_api.c ****   u8g->cursor_font = NULL;
 161:u8glib/u8g_ll_api.c ****   u8g->cursor_bg_color = 0;
 162:u8glib/u8g_ll_api.c ****   u8g->cursor_fg_color = 1;
 163:u8glib/u8g_ll_api.c ****   u8g->cursor_encoding = 34;
 164:u8glib/u8g_ll_api.c ****   u8g->cursor_fn = (u8g_draw_cursor_fn)0;
 165:u8glib/u8g_ll_api.c **** 
 166:u8glib/u8g_ll_api.c **** #if defined(U8G_WITH_PINLIST)  
 167:u8glib/u8g_ll_api.c ****   {
 168:u8glib/u8g_ll_api.c ****     uint8_t i;
 169:u8glib/u8g_ll_api.c ****     for( i = 0; i < U8G_PIN_LIST_LEN; i++ )
 170:u8glib/u8g_ll_api.c ****       u8g->pin_list[i] = U8G_PIN_NONE;
 171:u8glib/u8g_ll_api.c ****   }
 172:u8glib/u8g_ll_api.c **** #endif
 173:u8glib/u8g_ll_api.c ****   
 174:u8glib/u8g_ll_api.c ****   u8g_SetColorIndex(u8g, 1);
 175:u8glib/u8g_ll_api.c **** 
 176:u8glib/u8g_ll_api.c ****   u8g_SetFontPosBaseline(u8g);
 177:u8glib/u8g_ll_api.c ****   
 178:u8glib/u8g_ll_api.c ****   u8g->font_height_mode = U8G_FONT_HEIGHT_MODE_XTEXT;
 179:u8glib/u8g_ll_api.c ****   u8g->font_ref_ascent = 0;
 180:u8glib/u8g_ll_api.c ****   u8g->font_ref_descent = 0;
 181:u8glib/u8g_ll_api.c ****   u8g->font_line_spacing_factor = 64;           /* 64 = 1.0, 77 = 1.2 line spacing factor */
 182:u8glib/u8g_ll_api.c ****   u8g->line_spacing = 0;
 183:u8glib/u8g_ll_api.c ****   
 184:u8glib/u8g_ll_api.c ****   u8g->state_cb = u8g_state_dummy_cb;
ARM GAS  C:\Users\master\AppData\Local\Temp\ccDGE2QS.s 			page 13


 185:u8glib/u8g_ll_api.c **** 
 186:u8glib/u8g_ll_api.c **** }
 187:u8glib/u8g_ll_api.c **** 
 188:u8glib/u8g_ll_api.c **** uint8_t u8g_Begin(u8g_t *u8g)
 189:u8glib/u8g_ll_api.c **** {
 526              		.loc 1 189 0
 527              		.cfi_startproc
 528              		@ args = 0, pretend = 0, frame = 0
 529              		@ frame_needed = 0, uses_anonymous_args = 0
 530              	.LVL55:
 531 0000 10B5     		push	{r4, lr}
 532              	.LCFI18:
 533              		.cfi_def_cfa_offset 8
 534              		.cfi_offset 4, -8
 535              		.cfi_offset 14, -4
 536 0002 0446     		mov	r4, r0
 190:u8glib/u8g_ll_api.c ****   /* call and init low level driver and com device */
 191:u8glib/u8g_ll_api.c ****   if ( u8g_InitLL(u8g, u8g->dev) == 0 )
 537              		.loc 1 191 0
 538 0004 4168     		ldr	r1, [r0, #4]
 539 0006 FFF7FEFF 		bl	u8g_InitLL
 540              	.LVL56:
 541 000a 0346     		mov	r3, r0
 542 000c 18B1     		cbz	r0, .L27
 192:u8glib/u8g_ll_api.c ****     return 0;
 193:u8glib/u8g_ll_api.c ****   /* fetch width and height from the low level */
 194:u8glib/u8g_ll_api.c ****   u8g_UpdateDimension(u8g);
 543              		.loc 1 194 0
 544 000e 2046     		mov	r0, r4
 545 0010 FFF7FEFF 		bl	u8g_UpdateDimension
 546              	.LVL57:
 195:u8glib/u8g_ll_api.c ****   return 1;
 547              		.loc 1 195 0
 548 0014 0123     		movs	r3, #1
 549              	.L27:
 196:u8glib/u8g_ll_api.c **** }
 550              		.loc 1 196 0
 551 0016 1846     		mov	r0, r3
 552 0018 10BD     		pop	{r4, pc}
 553              		.cfi_endproc
 554              	.LFE13:
 556 001a 00BF     		.section	.text.u8g_FirstPage,"ax",%progbits
 557              		.align	2
 558              		.global	u8g_FirstPage
 559              		.thumb
 560              		.thumb_func
 562              	u8g_FirstPage:
 563              	.LFB16:
 197:u8glib/u8g_ll_api.c **** 
 198:u8glib/u8g_ll_api.c **** uint8_t u8g_Init(u8g_t *u8g, u8g_dev_t *dev)
 199:u8glib/u8g_ll_api.c **** {
 200:u8glib/u8g_ll_api.c ****   u8g_init_data(u8g);
 201:u8glib/u8g_ll_api.c ****   u8g->dev = dev;
 202:u8glib/u8g_ll_api.c ****   
 203:u8glib/u8g_ll_api.c ****   /* On the Arduino Environment this will lead to two calls to u8g_Begin(), the following line will
 204:u8glib/u8g_ll_api.c ****   /* if - in future releases - this is removed, then still call u8g_UpdateDimension() */
 205:u8glib/u8g_ll_api.c ****   /* if Arduino call u8g_UpdateDimension else u8g_Begin */
ARM GAS  C:\Users\master\AppData\Local\Temp\ccDGE2QS.s 			page 14


 206:u8glib/u8g_ll_api.c ****   /* issue 146 */
 207:u8glib/u8g_ll_api.c ****   return u8g_Begin(u8g);
 208:u8glib/u8g_ll_api.c **** }
 209:u8glib/u8g_ll_api.c **** 
 210:u8glib/u8g_ll_api.c **** /* special init for pure ARM systems */
 211:u8glib/u8g_ll_api.c **** uint8_t u8g_InitComFn(u8g_t *u8g, u8g_dev_t *dev, u8g_com_fnptr com_fn)
 212:u8glib/u8g_ll_api.c **** {
 213:u8glib/u8g_ll_api.c ****   u8g_init_data(u8g);
 214:u8glib/u8g_ll_api.c ****   
 215:u8glib/u8g_ll_api.c **** #if defined(U8G_WITH_PINLIST)  
 216:u8glib/u8g_ll_api.c ****   {
 217:u8glib/u8g_ll_api.c ****     uint8_t i;
 218:u8glib/u8g_ll_api.c ****     for( i = 0; i < U8G_PIN_LIST_LEN; i++ )
 219:u8glib/u8g_ll_api.c ****       u8g->pin_list[i] = U8G_PIN_DUMMY;
 220:u8glib/u8g_ll_api.c ****   }
 221:u8glib/u8g_ll_api.c **** #endif
 222:u8glib/u8g_ll_api.c ****   
 223:u8glib/u8g_ll_api.c ****   u8g->dev = dev;
 224:u8glib/u8g_ll_api.c ****   
 225:u8glib/u8g_ll_api.c ****   /* replace the device procedure with a custom communication procedure */
 226:u8glib/u8g_ll_api.c ****   u8g->dev->com_fn = com_fn;
 227:u8glib/u8g_ll_api.c ****   
 228:u8glib/u8g_ll_api.c ****   /* On the Arduino Environment this will lead to two calls to u8g_Begin(), the following line will
 229:u8glib/u8g_ll_api.c ****   /* if - in future releases - this is removed, then still call u8g_UpdateDimension() */
 230:u8glib/u8g_ll_api.c ****   /* if Arduino call u8g_UpdateDimension else u8g_Begin */
 231:u8glib/u8g_ll_api.c ****   /* issue 146 */
 232:u8glib/u8g_ll_api.c ****   return u8g_Begin(u8g);
 233:u8glib/u8g_ll_api.c **** }
 234:u8glib/u8g_ll_api.c **** 
 235:u8glib/u8g_ll_api.c **** 
 236:u8glib/u8g_ll_api.c **** #if defined(U8G_WITH_PINLIST)  
 237:u8glib/u8g_ll_api.c **** uint8_t u8g_InitSPI(u8g_t *u8g, u8g_dev_t *dev, uint8_t sck, uint8_t mosi, uint8_t cs, uint8_t a0, 
 238:u8glib/u8g_ll_api.c **** {
 239:u8glib/u8g_ll_api.c ****   
 240:u8glib/u8g_ll_api.c ****   /* fill data structure with some suitable values */
 241:u8glib/u8g_ll_api.c ****   u8g_init_data(u8g);
 242:u8glib/u8g_ll_api.c ****   u8g->dev = dev;
 243:u8glib/u8g_ll_api.c ****     
 244:u8glib/u8g_ll_api.c ****   /* assign user pins */
 245:u8glib/u8g_ll_api.c ****   u8g->pin_list[U8G_PI_SCK] = sck;
 246:u8glib/u8g_ll_api.c ****   u8g->pin_list[U8G_PI_MOSI] = mosi;
 247:u8glib/u8g_ll_api.c ****   u8g->pin_list[U8G_PI_CS] = cs;
 248:u8glib/u8g_ll_api.c ****   u8g->pin_list[U8G_PI_A0] = a0;
 249:u8glib/u8g_ll_api.c ****   u8g->pin_list[U8G_PI_RESET] = reset;
 250:u8glib/u8g_ll_api.c ****   
 251:u8glib/u8g_ll_api.c ****   /* On the Arduino Environment this will lead to two calls to u8g_Begin(), the following line will
 252:u8glib/u8g_ll_api.c ****   /* if - in future releases - this is removed, then still call u8g_UpdateDimension() */
 253:u8glib/u8g_ll_api.c ****   /* if Arduino call u8g_UpdateDimension else u8g_Begin */
 254:u8glib/u8g_ll_api.c ****   /* issue 146 */
 255:u8glib/u8g_ll_api.c ****   return u8g_Begin(u8g);
 256:u8glib/u8g_ll_api.c **** }
 257:u8glib/u8g_ll_api.c **** 
 258:u8glib/u8g_ll_api.c **** uint8_t u8g_InitHWSPI(u8g_t *u8g, u8g_dev_t *dev, uint8_t cs, uint8_t a0, uint8_t reset)
 259:u8glib/u8g_ll_api.c **** {
 260:u8glib/u8g_ll_api.c ****   /* fill data structure with some suitable values */
 261:u8glib/u8g_ll_api.c ****   u8g_init_data(u8g);
 262:u8glib/u8g_ll_api.c ****   u8g->dev = dev;
ARM GAS  C:\Users\master\AppData\Local\Temp\ccDGE2QS.s 			page 15


 263:u8glib/u8g_ll_api.c ****   
 264:u8glib/u8g_ll_api.c ****   
 265:u8glib/u8g_ll_api.c ****   /* assign user pins */
 266:u8glib/u8g_ll_api.c ****   u8g->pin_list[U8G_PI_CS] = cs;
 267:u8glib/u8g_ll_api.c ****   u8g->pin_list[U8G_PI_A0] = a0;
 268:u8glib/u8g_ll_api.c ****   u8g->pin_list[U8G_PI_RESET] = reset;
 269:u8glib/u8g_ll_api.c ****   
 270:u8glib/u8g_ll_api.c ****   return u8g_Begin(u8g);
 271:u8glib/u8g_ll_api.c **** }
 272:u8glib/u8g_ll_api.c **** 
 273:u8glib/u8g_ll_api.c **** uint8_t u8g_InitI2C(u8g_t *u8g, u8g_dev_t *dev, uint8_t options)
 274:u8glib/u8g_ll_api.c **** {
 275:u8glib/u8g_ll_api.c ****   /* fill data structure with some suitable values */
 276:u8glib/u8g_ll_api.c ****   u8g_init_data(u8g);
 277:u8glib/u8g_ll_api.c ****   u8g->dev = dev;
 278:u8glib/u8g_ll_api.c ****     
 279:u8glib/u8g_ll_api.c ****   u8g->pin_list[U8G_PI_I2C_OPTION] = options;
 280:u8glib/u8g_ll_api.c ****   
 281:u8glib/u8g_ll_api.c ****   return u8g_Begin(u8g);
 282:u8glib/u8g_ll_api.c **** }
 283:u8glib/u8g_ll_api.c **** 
 284:u8glib/u8g_ll_api.c **** 
 285:u8glib/u8g_ll_api.c **** uint8_t u8g_Init8BitFixedPort(u8g_t *u8g, u8g_dev_t *dev, uint8_t en, uint8_t cs, uint8_t di, uint8
 286:u8glib/u8g_ll_api.c **** {
 287:u8glib/u8g_ll_api.c ****   
 288:u8glib/u8g_ll_api.c ****   /* fill data structure with some suitable values */
 289:u8glib/u8g_ll_api.c ****   u8g_init_data(u8g);
 290:u8glib/u8g_ll_api.c ****   u8g->dev = dev;
 291:u8glib/u8g_ll_api.c ****     
 292:u8glib/u8g_ll_api.c ****   /* assign user pins */
 293:u8glib/u8g_ll_api.c **** 
 294:u8glib/u8g_ll_api.c ****   u8g->pin_list[U8G_PI_EN] = en;
 295:u8glib/u8g_ll_api.c ****   u8g->pin_list[U8G_PI_CS] = cs;
 296:u8glib/u8g_ll_api.c ****   u8g->pin_list[U8G_PI_DI] = di;
 297:u8glib/u8g_ll_api.c ****   u8g->pin_list[U8G_PI_RW] = rw;
 298:u8glib/u8g_ll_api.c ****   u8g->pin_list[U8G_PI_RESET] = reset;
 299:u8glib/u8g_ll_api.c **** 
 300:u8glib/u8g_ll_api.c ****   return u8g_Begin(u8g);
 301:u8glib/u8g_ll_api.c **** }
 302:u8glib/u8g_ll_api.c **** 
 303:u8glib/u8g_ll_api.c **** uint8_t u8g_Init8Bit(u8g_t *u8g, u8g_dev_t *dev, uint8_t d0, uint8_t d1, uint8_t d2, uint8_t d3, ui
 304:u8glib/u8g_ll_api.c ****   uint8_t en, uint8_t cs1, uint8_t cs2, uint8_t di, uint8_t rw, uint8_t reset)
 305:u8glib/u8g_ll_api.c **** {
 306:u8glib/u8g_ll_api.c ****   
 307:u8glib/u8g_ll_api.c ****   /* fill data structure with some suitable values */
 308:u8glib/u8g_ll_api.c ****   u8g_init_data(u8g);
 309:u8glib/u8g_ll_api.c ****   u8g->dev = dev;
 310:u8glib/u8g_ll_api.c ****     
 311:u8glib/u8g_ll_api.c ****   /* assign user pins */
 312:u8glib/u8g_ll_api.c **** 
 313:u8glib/u8g_ll_api.c ****   u8g->pin_list[U8G_PI_D0] = d0;
 314:u8glib/u8g_ll_api.c ****   u8g->pin_list[U8G_PI_D1] = d1;
 315:u8glib/u8g_ll_api.c ****   u8g->pin_list[U8G_PI_D2] = d2;
 316:u8glib/u8g_ll_api.c ****   u8g->pin_list[U8G_PI_D3] = d3;
 317:u8glib/u8g_ll_api.c ****   u8g->pin_list[U8G_PI_D4] = d4;
 318:u8glib/u8g_ll_api.c ****   u8g->pin_list[U8G_PI_D5] = d5;
 319:u8glib/u8g_ll_api.c ****   u8g->pin_list[U8G_PI_D6] = d6;
ARM GAS  C:\Users\master\AppData\Local\Temp\ccDGE2QS.s 			page 16


 320:u8glib/u8g_ll_api.c ****   u8g->pin_list[U8G_PI_D7] = d7;
 321:u8glib/u8g_ll_api.c **** 
 322:u8glib/u8g_ll_api.c ****   u8g->pin_list[U8G_PI_EN] = en;
 323:u8glib/u8g_ll_api.c ****   u8g->pin_list[U8G_PI_CS1] = cs1;
 324:u8glib/u8g_ll_api.c ****   u8g->pin_list[U8G_PI_CS2] = cs2;
 325:u8glib/u8g_ll_api.c ****   u8g->pin_list[U8G_PI_DI] = di;
 326:u8glib/u8g_ll_api.c ****   u8g->pin_list[U8G_PI_RW] = rw;
 327:u8glib/u8g_ll_api.c ****   u8g->pin_list[U8G_PI_RESET] = reset;
 328:u8glib/u8g_ll_api.c ****   
 329:u8glib/u8g_ll_api.c ****   return u8g_Begin(u8g);
 330:u8glib/u8g_ll_api.c **** }
 331:u8glib/u8g_ll_api.c **** 
 332:u8glib/u8g_ll_api.c **** /*
 333:u8glib/u8g_ll_api.c **** 
 334:u8glib/u8g_ll_api.c ****   PIN_D0 8
 335:u8glib/u8g_ll_api.c ****   PIN_D1 9
 336:u8glib/u8g_ll_api.c ****   PIN_D2 10
 337:u8glib/u8g_ll_api.c ****   PIN_D3 11
 338:u8glib/u8g_ll_api.c ****   PIN_D4 4
 339:u8glib/u8g_ll_api.c ****   PIN_D5 5
 340:u8glib/u8g_ll_api.c ****   PIN_D6 6
 341:u8glib/u8g_ll_api.c ****   PIN_D7 7
 342:u8glib/u8g_ll_api.c **** 
 343:u8glib/u8g_ll_api.c ****   PIN_CS 14
 344:u8glib/u8g_ll_api.c ****   PIN_A0 15
 345:u8glib/u8g_ll_api.c ****   PIN_RESET 16
 346:u8glib/u8g_ll_api.c ****   PIN_WR 17
 347:u8glib/u8g_ll_api.c ****   PIN_RD 18
 348:u8glib/u8g_ll_api.c ****   
 349:u8glib/u8g_ll_api.c ****   u8g_InitRW8Bit(u8g, dev, d0, d1, d2, d3, d4, d5, d6, d7, cs, a0, wr, rd, reset)
 350:u8glib/u8g_ll_api.c ****   u8g_InitRW8Bit(u8g, dev,  8,  9, 10, 11,  4,  5,  6,  7, 14, 15, 17, 18, 16)
 351:u8glib/u8g_ll_api.c **** 
 352:u8glib/u8g_ll_api.c **** */
 353:u8glib/u8g_ll_api.c **** 
 354:u8glib/u8g_ll_api.c **** uint8_t u8g_InitRW8Bit(u8g_t *u8g, u8g_dev_t *dev, uint8_t d0, uint8_t d1, uint8_t d2, uint8_t d3, 
 355:u8glib/u8g_ll_api.c ****   uint8_t cs, uint8_t a0, uint8_t wr, uint8_t rd, uint8_t reset)
 356:u8glib/u8g_ll_api.c **** {
 357:u8glib/u8g_ll_api.c ****   
 358:u8glib/u8g_ll_api.c ****   /* fill data structure with some suitable values */
 359:u8glib/u8g_ll_api.c ****   u8g_init_data(u8g);
 360:u8glib/u8g_ll_api.c ****   u8g->dev = dev;
 361:u8glib/u8g_ll_api.c ****     
 362:u8glib/u8g_ll_api.c ****   /* assign user pins */
 363:u8glib/u8g_ll_api.c **** 
 364:u8glib/u8g_ll_api.c ****   u8g->pin_list[U8G_PI_D0] = d0;
 365:u8glib/u8g_ll_api.c ****   u8g->pin_list[U8G_PI_D1] = d1;
 366:u8glib/u8g_ll_api.c ****   u8g->pin_list[U8G_PI_D2] = d2;
 367:u8glib/u8g_ll_api.c ****   u8g->pin_list[U8G_PI_D3] = d3;
 368:u8glib/u8g_ll_api.c ****   u8g->pin_list[U8G_PI_D4] = d4;
 369:u8glib/u8g_ll_api.c ****   u8g->pin_list[U8G_PI_D5] = d5;
 370:u8glib/u8g_ll_api.c ****   u8g->pin_list[U8G_PI_D6] = d6;
 371:u8glib/u8g_ll_api.c ****   u8g->pin_list[U8G_PI_D7] = d7;
 372:u8glib/u8g_ll_api.c **** 
 373:u8glib/u8g_ll_api.c ****   u8g->pin_list[U8G_PI_CS] = cs;
 374:u8glib/u8g_ll_api.c ****   u8g->pin_list[U8G_PI_A0] = a0;
 375:u8glib/u8g_ll_api.c ****   u8g->pin_list[U8G_PI_WR] = wr;
 376:u8glib/u8g_ll_api.c ****   u8g->pin_list[U8G_PI_RD] = rd;
ARM GAS  C:\Users\master\AppData\Local\Temp\ccDGE2QS.s 			page 17


 377:u8glib/u8g_ll_api.c ****   u8g->pin_list[U8G_PI_RESET] = reset;
 378:u8glib/u8g_ll_api.c ****   
 379:u8glib/u8g_ll_api.c ****   return u8g_Begin(u8g);
 380:u8glib/u8g_ll_api.c **** }
 381:u8glib/u8g_ll_api.c **** #endif /* defined(U8G_WITH_PINLIST)  */
 382:u8glib/u8g_ll_api.c **** 
 383:u8glib/u8g_ll_api.c **** void u8g_FirstPage(u8g_t *u8g)
 384:u8glib/u8g_ll_api.c **** {
 564              		.loc 1 384 0
 565              		.cfi_startproc
 566              		@ args = 0, pretend = 0, frame = 0
 567              		@ frame_needed = 0, uses_anonymous_args = 0
 568              	.LVL58:
 569 0000 08B5     		push	{r3, lr}
 570              	.LCFI19:
 571              		.cfi_def_cfa_offset 8
 572              		.cfi_offset 3, -8
 573              		.cfi_offset 14, -4
 385:u8glib/u8g_ll_api.c ****   u8g_FirstPageLL(u8g, u8g->dev);
 574              		.loc 1 385 0
 575 0002 4168     		ldr	r1, [r0, #4]
 576 0004 FFF7FEFF 		bl	u8g_FirstPageLL
 577              	.LVL59:
 578 0008 08BD     		pop	{r3, pc}
 579              		.cfi_endproc
 580              	.LFE16:
 582 000a 00BF     		.section	.text.u8g_NextPage,"ax",%progbits
 583              		.align	2
 584              		.global	u8g_NextPage
 585              		.thumb
 586              		.thumb_func
 588              	u8g_NextPage:
 589              	.LFB17:
 386:u8glib/u8g_ll_api.c **** }
 387:u8glib/u8g_ll_api.c **** 
 388:u8glib/u8g_ll_api.c **** uint8_t u8g_NextPage(u8g_t *u8g)
 389:u8glib/u8g_ll_api.c **** {
 590              		.loc 1 389 0
 591              		.cfi_startproc
 592              		@ args = 0, pretend = 0, frame = 0
 593              		@ frame_needed = 0, uses_anonymous_args = 0
 594              	.LVL60:
 595 0000 10B5     		push	{r4, lr}
 596              	.LCFI20:
 597              		.cfi_def_cfa_offset 8
 598              		.cfi_offset 4, -8
 599              		.cfi_offset 14, -4
 600 0002 0446     		mov	r4, r0
 390:u8glib/u8g_ll_api.c ****   if  ( u8g->cursor_fn != (u8g_draw_cursor_fn)0 )
 601              		.loc 1 390 0
 602 0004 8369     		ldr	r3, [r0, #24]
 603 0006 03B1     		cbz	r3, .L32
 391:u8glib/u8g_ll_api.c ****   {
 392:u8glib/u8g_ll_api.c ****     u8g->cursor_fn(u8g);
 604              		.loc 1 392 0
 605 0008 9847     		blx	r3
 606              	.LVL61:
ARM GAS  C:\Users\master\AppData\Local\Temp\ccDGE2QS.s 			page 18


 607              	.L32:
 393:u8glib/u8g_ll_api.c ****   }
 394:u8glib/u8g_ll_api.c ****   return u8g_NextPageLL(u8g, u8g->dev);
 608              		.loc 1 394 0
 609 000a 6168     		ldr	r1, [r4, #4]
 610 000c 2046     		mov	r0, r4
 611 000e FFF7FEFF 		bl	u8g_NextPageLL
 612              	.LVL62:
 395:u8glib/u8g_ll_api.c **** }
 613              		.loc 1 395 0
 614 0012 10BD     		pop	{r4, pc}
 615              		.cfi_endproc
 616              	.LFE17:
 618              		.section	.text.u8g_SetContrast,"ax",%progbits
 619              		.align	2
 620              		.global	u8g_SetContrast
 621              		.thumb
 622              		.thumb_func
 624              	u8g_SetContrast:
 625              	.LFB18:
 396:u8glib/u8g_ll_api.c **** 
 397:u8glib/u8g_ll_api.c **** uint8_t u8g_SetContrast(u8g_t *u8g, uint8_t contrast)
 398:u8glib/u8g_ll_api.c **** {
 626              		.loc 1 398 0
 627              		.cfi_startproc
 628              		@ args = 0, pretend = 0, frame = 0
 629              		@ frame_needed = 0, uses_anonymous_args = 0
 630              	.LVL63:
 631 0000 08B5     		push	{r3, lr}
 632              	.LCFI21:
 633              		.cfi_def_cfa_offset 8
 634              		.cfi_offset 3, -8
 635              		.cfi_offset 14, -4
 399:u8glib/u8g_ll_api.c ****   return u8g_SetContrastLL(u8g, u8g->dev, contrast);
 636              		.loc 1 399 0
 637 0002 0A46     		mov	r2, r1
 638 0004 4168     		ldr	r1, [r0, #4]
 639              	.LVL64:
 640 0006 FFF7FEFF 		bl	u8g_SetContrastLL
 641              	.LVL65:
 400:u8glib/u8g_ll_api.c **** }
 642              		.loc 1 400 0
 643 000a 08BD     		pop	{r3, pc}
 644              		.cfi_endproc
 645              	.LFE18:
 647              		.section	.text.u8g_SleepOn,"ax",%progbits
 648              		.align	2
 649              		.global	u8g_SleepOn
 650              		.thumb
 651              		.thumb_func
 653              	u8g_SleepOn:
 654              	.LFB19:
 401:u8glib/u8g_ll_api.c **** 
 402:u8glib/u8g_ll_api.c **** void u8g_SleepOn(u8g_t *u8g)
 403:u8glib/u8g_ll_api.c **** {
 655              		.loc 1 403 0
 656              		.cfi_startproc
ARM GAS  C:\Users\master\AppData\Local\Temp\ccDGE2QS.s 			page 19


 657              		@ args = 0, pretend = 0, frame = 0
 658              		@ frame_needed = 0, uses_anonymous_args = 0
 659              	.LVL66:
 660 0000 08B5     		push	{r3, lr}
 661              	.LCFI22:
 662              		.cfi_def_cfa_offset 8
 663              		.cfi_offset 3, -8
 664              		.cfi_offset 14, -4
 404:u8glib/u8g_ll_api.c ****   u8g_call_dev_fn(u8g, u8g->dev, U8G_DEV_MSG_SLEEP_ON, NULL);
 665              		.loc 1 404 0
 666 0002 0023     		movs	r3, #0
 667 0004 1022     		movs	r2, #16
 668 0006 4168     		ldr	r1, [r0, #4]
 669 0008 FFF7FEFF 		bl	u8g_call_dev_fn
 670              	.LVL67:
 671 000c 08BD     		pop	{r3, pc}
 672              		.cfi_endproc
 673              	.LFE19:
 675 000e 00BF     		.section	.text.u8g_SleepOff,"ax",%progbits
 676              		.align	2
 677              		.global	u8g_SleepOff
 678              		.thumb
 679              		.thumb_func
 681              	u8g_SleepOff:
 682              	.LFB20:
 405:u8glib/u8g_ll_api.c **** }
 406:u8glib/u8g_ll_api.c **** 
 407:u8glib/u8g_ll_api.c **** void u8g_SleepOff(u8g_t *u8g)
 408:u8glib/u8g_ll_api.c **** {
 683              		.loc 1 408 0
 684              		.cfi_startproc
 685              		@ args = 0, pretend = 0, frame = 0
 686              		@ frame_needed = 0, uses_anonymous_args = 0
 687              	.LVL68:
 688 0000 08B5     		push	{r3, lr}
 689              	.LCFI23:
 690              		.cfi_def_cfa_offset 8
 691              		.cfi_offset 3, -8
 692              		.cfi_offset 14, -4
 409:u8glib/u8g_ll_api.c ****   u8g_call_dev_fn(u8g, u8g->dev, U8G_DEV_MSG_SLEEP_OFF, NULL);
 693              		.loc 1 409 0
 694 0002 0023     		movs	r3, #0
 695 0004 1122     		movs	r2, #17
 696 0006 4168     		ldr	r1, [r0, #4]
 697 0008 FFF7FEFF 		bl	u8g_call_dev_fn
 698              	.LVL69:
 699 000c 08BD     		pop	{r3, pc}
 700              		.cfi_endproc
 701              	.LFE20:
 703 000e 00BF     		.section	.text.u8g_DrawPixel,"ax",%progbits
 704              		.align	2
 705              		.global	u8g_DrawPixel
 706              		.thumb
 707              		.thumb_func
 709              	u8g_DrawPixel:
 710              	.LFB21:
 410:u8glib/u8g_ll_api.c **** }
ARM GAS  C:\Users\master\AppData\Local\Temp\ccDGE2QS.s 			page 20


 411:u8glib/u8g_ll_api.c **** 
 412:u8glib/u8g_ll_api.c **** 
 413:u8glib/u8g_ll_api.c **** void u8g_DrawPixel(u8g_t *u8g, u8g_uint_t x, u8g_uint_t y)
 414:u8glib/u8g_ll_api.c **** {
 711              		.loc 1 414 0
 712              		.cfi_startproc
 713              		@ args = 0, pretend = 0, frame = 0
 714              		@ frame_needed = 0, uses_anonymous_args = 0
 715              	.LVL70:
 716 0000 08B5     		push	{r3, lr}
 717              	.LCFI24:
 718              		.cfi_def_cfa_offset 8
 719              		.cfi_offset 3, -8
 720              		.cfi_offset 14, -4
 415:u8glib/u8g_ll_api.c ****   u8g_DrawPixelLL(u8g, u8g->dev, x, y);
 721              		.loc 1 415 0
 722 0002 1346     		mov	r3, r2
 723 0004 0A46     		mov	r2, r1
 724              	.LVL71:
 725 0006 4168     		ldr	r1, [r0, #4]
 726              	.LVL72:
 727 0008 FFF7FEFF 		bl	u8g_DrawPixelLL
 728              	.LVL73:
 729 000c 08BD     		pop	{r3, pc}
 730              		.cfi_endproc
 731              	.LFE21:
 733 000e 00BF     		.section	.text.u8g_Draw8Pixel,"ax",%progbits
 734              		.align	2
 735              		.global	u8g_Draw8Pixel
 736              		.thumb
 737              		.thumb_func
 739              	u8g_Draw8Pixel:
 740              	.LFB22:
 416:u8glib/u8g_ll_api.c **** }
 417:u8glib/u8g_ll_api.c **** 
 418:u8glib/u8g_ll_api.c **** void u8g_Draw8Pixel(u8g_t *u8g, u8g_uint_t x, u8g_uint_t y, uint8_t dir, uint8_t pixel)
 419:u8glib/u8g_ll_api.c **** {
 741              		.loc 1 419 0
 742              		.cfi_startproc
 743              		@ args = 4, pretend = 0, frame = 0
 744              		@ frame_needed = 0, uses_anonymous_args = 0
 745              	.LVL74:
 746 0000 30B5     		push	{r4, r5, lr}
 747              	.LCFI25:
 748              		.cfi_def_cfa_offset 12
 749              		.cfi_offset 4, -12
 750              		.cfi_offset 5, -8
 751              		.cfi_offset 14, -4
 752 0002 83B0     		sub	sp, sp, #12
 753              	.LCFI26:
 754              		.cfi_def_cfa_offset 24
 420:u8glib/u8g_ll_api.c ****   u8g_Draw8PixelLL(u8g, u8g->dev, x, y, dir, pixel);
 755              		.loc 1 420 0
 756 0004 4468     		ldr	r4, [r0, #4]
 757 0006 9DF81850 		ldrb	r5, [sp, #24]	@ zero_extendqisi2
 758 000a 0195     		str	r5, [sp, #4]
 759 000c 0093     		str	r3, [sp]
ARM GAS  C:\Users\master\AppData\Local\Temp\ccDGE2QS.s 			page 21


 760 000e 1346     		mov	r3, r2
 761              	.LVL75:
 762 0010 0A46     		mov	r2, r1
 763              	.LVL76:
 764 0012 2146     		mov	r1, r4
 765              	.LVL77:
 766 0014 FFF7FEFF 		bl	u8g_Draw8PixelLL
 767              	.LVL78:
 421:u8glib/u8g_ll_api.c **** }
 768              		.loc 1 421 0
 769 0018 03B0     		add	sp, sp, #12
 770              	.LCFI27:
 771              		.cfi_def_cfa_offset 12
 772              		@ sp needed
 773 001a 30BD     		pop	{r4, r5, pc}
 774              		.cfi_endproc
 775              	.LFE22:
 777              		.section	.text.u8g_Draw4TPixel,"ax",%progbits
 778              		.align	2
 779              		.global	u8g_Draw4TPixel
 780              		.thumb
 781              		.thumb_func
 783              	u8g_Draw4TPixel:
 784              	.LFB23:
 422:u8glib/u8g_ll_api.c **** 
 423:u8glib/u8g_ll_api.c **** void u8g_Draw4TPixel(u8g_t *u8g, u8g_uint_t x, u8g_uint_t y, uint8_t dir, uint8_t pixel)
 424:u8glib/u8g_ll_api.c **** {
 785              		.loc 1 424 0
 786              		.cfi_startproc
 787              		@ args = 4, pretend = 0, frame = 0
 788              		@ frame_needed = 0, uses_anonymous_args = 0
 789              	.LVL79:
 790 0000 30B5     		push	{r4, r5, lr}
 791              	.LCFI28:
 792              		.cfi_def_cfa_offset 12
 793              		.cfi_offset 4, -12
 794              		.cfi_offset 5, -8
 795              		.cfi_offset 14, -4
 796 0002 83B0     		sub	sp, sp, #12
 797              	.LCFI29:
 798              		.cfi_def_cfa_offset 24
 425:u8glib/u8g_ll_api.c ****   u8g_Draw4TPixelLL(u8g, u8g->dev, x, y, dir, pixel);
 799              		.loc 1 425 0
 800 0004 4468     		ldr	r4, [r0, #4]
 801 0006 9DF81850 		ldrb	r5, [sp, #24]	@ zero_extendqisi2
 802 000a 0195     		str	r5, [sp, #4]
 803 000c 0093     		str	r3, [sp]
 804 000e 1346     		mov	r3, r2
 805              	.LVL80:
 806 0010 0A46     		mov	r2, r1
 807              	.LVL81:
 808 0012 2146     		mov	r1, r4
 809              	.LVL82:
 810 0014 FFF7FEFF 		bl	u8g_Draw4TPixelLL
 811              	.LVL83:
 426:u8glib/u8g_ll_api.c **** }
 812              		.loc 1 426 0
ARM GAS  C:\Users\master\AppData\Local\Temp\ccDGE2QS.s 			page 22


 813 0018 03B0     		add	sp, sp, #12
 814              	.LCFI30:
 815              		.cfi_def_cfa_offset 12
 816              		@ sp needed
 817 001a 30BD     		pop	{r4, r5, pc}
 818              		.cfi_endproc
 819              	.LFE23:
 821              		.section	.text.u8g_Draw8ColorPixel,"ax",%progbits
 822              		.align	2
 823              		.global	u8g_Draw8ColorPixel
 824              		.thumb
 825              		.thumb_func
 827              	u8g_Draw8ColorPixel:
 828              	.LFB24:
 427:u8glib/u8g_ll_api.c **** 
 428:u8glib/u8g_ll_api.c **** void u8g_Draw8ColorPixel(u8g_t *u8g, u8g_uint_t x, u8g_uint_t y, uint8_t colpixel)
 429:u8glib/u8g_ll_api.c **** {
 829              		.loc 1 429 0
 830              		.cfi_startproc
 831              		@ args = 0, pretend = 0, frame = 0
 832              		@ frame_needed = 0, uses_anonymous_args = 0
 833              	.LVL84:
 834 0000 10B5     		push	{r4, lr}
 835              	.LCFI31:
 836              		.cfi_def_cfa_offset 8
 837              		.cfi_offset 4, -8
 838              		.cfi_offset 14, -4
 839              	.LVL85:
 430:u8glib/u8g_ll_api.c ****   u8g_dev_arg_pixel_t *arg = &(u8g->arg_pixel);
 431:u8glib/u8g_ll_api.c ****   arg->x = x;
 840              		.loc 1 431 0
 841 0002 80F82D10 		strb	r1, [r0, #45]
 432:u8glib/u8g_ll_api.c ****   arg->y = y;
 842              		.loc 1 432 0
 843 0006 80F82E20 		strb	r2, [r0, #46]
 433:u8glib/u8g_ll_api.c ****   arg->dir = 0;
 844              		.loc 1 433 0
 845 000a 0022     		movs	r2, #0
 846              	.LVL86:
 847 000c 80F83020 		strb	r2, [r0, #48]
 434:u8glib/u8g_ll_api.c ****   arg->pixel = 0x80;
 848              		.loc 1 434 0
 849 0010 8022     		movs	r2, #128
 850 0012 80F82F20 		strb	r2, [r0, #47]
 435:u8glib/u8g_ll_api.c ****   arg->color = colpixel;
 851              		.loc 1 435 0
 852 0016 80F83130 		strb	r3, [r0, #49]
 436:u8glib/u8g_ll_api.c ****   u8g_call_dev_fn(u8g, u8g->dev, U8G_DEV_MSG_SET_8PIXEL, arg);
 853              		.loc 1 436 0
 854 001a 00F12D03 		add	r3, r0, #45
 855              	.LVL87:
 856 001e 3B22     		movs	r2, #59
 857 0020 4168     		ldr	r1, [r0, #4]
 858              	.LVL88:
 859 0022 FFF7FEFF 		bl	u8g_call_dev_fn
 860              	.LVL89:
 861 0026 10BD     		pop	{r4, pc}
ARM GAS  C:\Users\master\AppData\Local\Temp\ccDGE2QS.s 			page 23


 862              		.cfi_endproc
 863              	.LFE24:
 865              		.section	.text.u8g_SetColorEntry,"ax",%progbits
 866              		.align	2
 867              		.global	u8g_SetColorEntry
 868              		.thumb
 869              		.thumb_func
 871              	u8g_SetColorEntry:
 872              	.LFB25:
 437:u8glib/u8g_ll_api.c **** }
 438:u8glib/u8g_ll_api.c **** 
 439:u8glib/u8g_ll_api.c **** /* u8g_IsBBXIntersection() has been moved to u8g_clip.c */
 440:u8glib/u8g_ll_api.c **** #ifdef OBSOLETE_CODE
 441:u8glib/u8g_ll_api.c **** uint8_t u8g_IsBBXIntersection(u8g_t *u8g, u8g_uint_t x, u8g_uint_t y, u8g_uint_t w, u8g_uint_t h)
 442:u8glib/u8g_ll_api.c **** {
 443:u8glib/u8g_ll_api.c ****   /* new code */
 444:u8glib/u8g_ll_api.c ****   u8g_dev_arg_bbx_t arg;
 445:u8glib/u8g_ll_api.c ****   arg.x = x;
 446:u8glib/u8g_ll_api.c ****   arg.y = y;
 447:u8glib/u8g_ll_api.c ****   arg.w = w;
 448:u8glib/u8g_ll_api.c ****   arg.h = h;
 449:u8glib/u8g_ll_api.c ****   return u8g_is_box_bbx_intersection(&(u8g->current_page), &arg);
 450:u8glib/u8g_ll_api.c **** 
 451:u8glib/u8g_ll_api.c ****   /* old code */
 452:u8glib/u8g_ll_api.c ****   //return u8g_IsBBXIntersectionLL(u8g, u8g->dev, x, y, w, h);
 453:u8glib/u8g_ll_api.c **** }
 454:u8glib/u8g_ll_api.c **** #endif
 455:u8glib/u8g_ll_api.c **** 
 456:u8glib/u8g_ll_api.c **** /*
 457:u8glib/u8g_ll_api.c ****   idx: index for the palette entry (0..255)
 458:u8glib/u8g_ll_api.c ****   r: value for red (0..255)
 459:u8glib/u8g_ll_api.c ****   g: value for green (0..255)
 460:u8glib/u8g_ll_api.c ****   b: value for blue (0..255)
 461:u8glib/u8g_ll_api.c **** */
 462:u8glib/u8g_ll_api.c **** void u8g_SetColorEntry(u8g_t *u8g, uint8_t idx, uint8_t r, uint8_t g, uint8_t b)
 463:u8glib/u8g_ll_api.c **** {
 873              		.loc 1 463 0
 874              		.cfi_startproc
 875              		@ args = 4, pretend = 0, frame = 8
 876              		@ frame_needed = 0, uses_anonymous_args = 0
 877              	.LVL90:
 878 0000 00B5     		push	{lr}
 879              	.LCFI32:
 880              		.cfi_def_cfa_offset 4
 881              		.cfi_offset 14, -4
 882 0002 83B0     		sub	sp, sp, #12
 883              	.LCFI33:
 884              		.cfi_def_cfa_offset 16
 464:u8glib/u8g_ll_api.c ****   u8g_dev_arg_irgb_t irgb;
 465:u8glib/u8g_ll_api.c ****   irgb.idx = idx;
 885              		.loc 1 465 0
 886 0004 8DF80410 		strb	r1, [sp, #4]
 466:u8glib/u8g_ll_api.c ****   irgb.r = r;
 887              		.loc 1 466 0
 888 0008 8DF80520 		strb	r2, [sp, #5]
 467:u8glib/u8g_ll_api.c ****   irgb.g = g;
 889              		.loc 1 467 0
ARM GAS  C:\Users\master\AppData\Local\Temp\ccDGE2QS.s 			page 24


 890 000c 8DF80630 		strb	r3, [sp, #6]
 468:u8glib/u8g_ll_api.c ****   irgb.b = b;  
 891              		.loc 1 468 0
 892 0010 9DF81030 		ldrb	r3, [sp, #16]	@ zero_extendqisi2
 893              	.LVL91:
 894 0014 8DF80730 		strb	r3, [sp, #7]
 469:u8glib/u8g_ll_api.c ****   u8g_call_dev_fn(u8g, u8g->dev, U8G_DEV_MSG_SET_COLOR_ENTRY, &irgb);
 895              		.loc 1 469 0
 896 0018 01AB     		add	r3, sp, #4
 897 001a 3C22     		movs	r2, #60
 898              	.LVL92:
 899 001c 4168     		ldr	r1, [r0, #4]
 900              	.LVL93:
 901 001e FFF7FEFF 		bl	u8g_call_dev_fn
 902              	.LVL94:
 470:u8glib/u8g_ll_api.c **** }
 903              		.loc 1 470 0
 904 0022 03B0     		add	sp, sp, #12
 905              	.LCFI34:
 906              		.cfi_def_cfa_offset 4
 907              		@ sp needed
 908 0024 5DF804FB 		ldr	pc, [sp], #4
 909              		.cfi_endproc
 910              	.LFE25:
 912              		.section	.text.u8g_SetColorIndex,"ax",%progbits
 913              		.align	2
 914              		.global	u8g_SetColorIndex
 915              		.thumb
 916              		.thumb_func
 918              	u8g_SetColorIndex:
 919              	.LFB26:
 471:u8glib/u8g_ll_api.c **** 
 472:u8glib/u8g_ll_api.c **** void u8g_SetColorIndex(u8g_t *u8g, uint8_t idx)
 473:u8glib/u8g_ll_api.c **** {
 920              		.loc 1 473 0
 921              		.cfi_startproc
 922              		@ args = 0, pretend = 0, frame = 0
 923              		@ frame_needed = 0, uses_anonymous_args = 0
 924              		@ link register save eliminated.
 925              	.LVL95:
 474:u8glib/u8g_ll_api.c ****   u8g->arg_pixel.color = idx;
 926              		.loc 1 474 0
 927 0000 80F83110 		strb	r1, [r0, #49]
 928 0004 7047     		bx	lr
 929              		.cfi_endproc
 930              	.LFE26:
 932 0006 00BF     		.section	.text.u8g_init_data,"ax",%progbits
 933              		.align	2
 934              		.thumb
 935              		.thumb_func
 937              	u8g_init_data:
 938              	.LFB12:
 158:u8glib/u8g_ll_api.c ****   u8g->font = NULL;
 939              		.loc 1 158 0
 940              		.cfi_startproc
 941              		@ args = 0, pretend = 0, frame = 0
 942              		@ frame_needed = 0, uses_anonymous_args = 0
ARM GAS  C:\Users\master\AppData\Local\Temp\ccDGE2QS.s 			page 25


 943              	.LVL96:
 944 0000 70B5     		push	{r4, r5, r6, lr}
 945              	.LCFI35:
 946              		.cfi_def_cfa_offset 16
 947              		.cfi_offset 4, -16
 948              		.cfi_offset 5, -12
 949              		.cfi_offset 6, -8
 950              		.cfi_offset 14, -4
 951 0002 0446     		mov	r4, r0
 159:u8glib/u8g_ll_api.c ****   u8g->cursor_font = NULL;
 952              		.loc 1 159 0
 953 0004 0025     		movs	r5, #0
 954 0006 8560     		str	r5, [r0, #8]
 160:u8glib/u8g_ll_api.c ****   u8g->cursor_bg_color = 0;
 955              		.loc 1 160 0
 956 0008 C560     		str	r5, [r0, #12]
 161:u8glib/u8g_ll_api.c ****   u8g->cursor_fg_color = 1;
 957              		.loc 1 161 0
 958 000a 4574     		strb	r5, [r0, #17]
 162:u8glib/u8g_ll_api.c ****   u8g->cursor_encoding = 34;
 959              		.loc 1 162 0
 960 000c 0126     		movs	r6, #1
 961 000e 0674     		strb	r6, [r0, #16]
 163:u8glib/u8g_ll_api.c ****   u8g->cursor_fn = (u8g_draw_cursor_fn)0;
 962              		.loc 1 163 0
 963 0010 2223     		movs	r3, #34
 964 0012 8374     		strb	r3, [r0, #18]
 164:u8glib/u8g_ll_api.c **** 
 965              		.loc 1 164 0
 966 0014 8561     		str	r5, [r0, #24]
 174:u8glib/u8g_ll_api.c **** 
 967              		.loc 1 174 0
 968 0016 3146     		mov	r1, r6
 969 0018 FFF7FEFF 		bl	u8g_SetColorIndex
 970              	.LVL97:
 176:u8glib/u8g_ll_api.c ****   
 971              		.loc 1 176 0
 972 001c 2046     		mov	r0, r4
 973 001e FFF7FEFF 		bl	u8g_SetFontPosBaseline
 974              	.LVL98:
 178:u8glib/u8g_ll_api.c ****   u8g->font_ref_ascent = 0;
 975              		.loc 1 178 0
 976 0022 84F82860 		strb	r6, [r4, #40]
 179:u8glib/u8g_ll_api.c ****   u8g->font_ref_descent = 0;
 977              		.loc 1 179 0
 978 0026 84F82950 		strb	r5, [r4, #41]
 180:u8glib/u8g_ll_api.c ****   u8g->font_line_spacing_factor = 64;           /* 64 = 1.0, 77 = 1.2 line spacing factor */
 979              		.loc 1 180 0
 980 002a 84F82A50 		strb	r5, [r4, #42]
 181:u8glib/u8g_ll_api.c ****   u8g->line_spacing = 0;
 981              		.loc 1 181 0
 982 002e 4023     		movs	r3, #64
 983 0030 84F82B30 		strb	r3, [r4, #43]
 182:u8glib/u8g_ll_api.c ****   
 984              		.loc 1 182 0
 985 0034 84F82C50 		strb	r5, [r4, #44]
 184:u8glib/u8g_ll_api.c **** 
ARM GAS  C:\Users\master\AppData\Local\Temp\ccDGE2QS.s 			page 26


 986              		.loc 1 184 0
 987 0038 014B     		ldr	r3, .L53
 988 003a 6363     		str	r3, [r4, #52]
 989 003c 70BD     		pop	{r4, r5, r6, pc}
 990              	.LVL99:
 991              	.L54:
 992 003e 00BF     		.align	2
 993              	.L53:
 994 0040 00000000 		.word	u8g_state_dummy_cb
 995              		.cfi_endproc
 996              	.LFE12:
 998              		.section	.text.u8g_Init,"ax",%progbits
 999              		.align	2
 1000              		.global	u8g_Init
 1001              		.thumb
 1002              		.thumb_func
 1004              	u8g_Init:
 1005              	.LFB14:
 199:u8glib/u8g_ll_api.c ****   u8g_init_data(u8g);
 1006              		.loc 1 199 0
 1007              		.cfi_startproc
 1008              		@ args = 0, pretend = 0, frame = 0
 1009              		@ frame_needed = 0, uses_anonymous_args = 0
 1010              	.LVL100:
 1011 0000 38B5     		push	{r3, r4, r5, lr}
 1012              	.LCFI36:
 1013              		.cfi_def_cfa_offset 16
 1014              		.cfi_offset 3, -16
 1015              		.cfi_offset 4, -12
 1016              		.cfi_offset 5, -8
 1017              		.cfi_offset 14, -4
 1018 0002 0446     		mov	r4, r0
 1019 0004 0D46     		mov	r5, r1
 200:u8glib/u8g_ll_api.c ****   u8g->dev = dev;
 1020              		.loc 1 200 0
 1021 0006 FFF7FEFF 		bl	u8g_init_data
 1022              	.LVL101:
 201:u8glib/u8g_ll_api.c ****   
 1023              		.loc 1 201 0
 1024 000a 6560     		str	r5, [r4, #4]
 207:u8glib/u8g_ll_api.c **** }
 1025              		.loc 1 207 0
 1026 000c 2046     		mov	r0, r4
 1027 000e FFF7FEFF 		bl	u8g_Begin
 1028              	.LVL102:
 208:u8glib/u8g_ll_api.c **** 
 1029              		.loc 1 208 0
 1030 0012 38BD     		pop	{r3, r4, r5, pc}
 1031              		.cfi_endproc
 1032              	.LFE14:
 1034              		.section	.text.u8g_InitComFn,"ax",%progbits
 1035              		.align	2
 1036              		.global	u8g_InitComFn
 1037              		.thumb
 1038              		.thumb_func
 1040              	u8g_InitComFn:
 1041              	.LFB15:
ARM GAS  C:\Users\master\AppData\Local\Temp\ccDGE2QS.s 			page 27


 212:u8glib/u8g_ll_api.c ****   u8g_init_data(u8g);
 1042              		.loc 1 212 0
 1043              		.cfi_startproc
 1044              		@ args = 0, pretend = 0, frame = 0
 1045              		@ frame_needed = 0, uses_anonymous_args = 0
 1046              	.LVL103:
 1047 0000 70B5     		push	{r4, r5, r6, lr}
 1048              	.LCFI37:
 1049              		.cfi_def_cfa_offset 16
 1050              		.cfi_offset 4, -16
 1051              		.cfi_offset 5, -12
 1052              		.cfi_offset 6, -8
 1053              		.cfi_offset 14, -4
 1054 0002 0446     		mov	r4, r0
 1055 0004 0D46     		mov	r5, r1
 1056 0006 1646     		mov	r6, r2
 213:u8glib/u8g_ll_api.c ****   
 1057              		.loc 1 213 0
 1058 0008 FFF7FEFF 		bl	u8g_init_data
 1059              	.LVL104:
 223:u8glib/u8g_ll_api.c ****   
 1060              		.loc 1 223 0
 1061 000c 6560     		str	r5, [r4, #4]
 226:u8glib/u8g_ll_api.c ****   
 1062              		.loc 1 226 0
 1063 000e AE60     		str	r6, [r5, #8]
 232:u8glib/u8g_ll_api.c **** }
 1064              		.loc 1 232 0
 1065 0010 2046     		mov	r0, r4
 1066 0012 FFF7FEFF 		bl	u8g_Begin
 1067              	.LVL105:
 233:u8glib/u8g_ll_api.c **** 
 1068              		.loc 1 233 0
 1069 0016 70BD     		pop	{r4, r5, r6, pc}
 1070              		.cfi_endproc
 1071              	.LFE15:
 1073              		.section	.text.u8g_SetHiColor,"ax",%progbits
 1074              		.align	2
 1075              		.global	u8g_SetHiColor
 1076              		.thumb
 1077              		.thumb_func
 1079              	u8g_SetHiColor:
 1080              	.LFB27:
 475:u8glib/u8g_ll_api.c ****   /*u8g->color_index = idx; */ /* must be removed */
 476:u8glib/u8g_ll_api.c **** }
 477:u8glib/u8g_ll_api.c **** 
 478:u8glib/u8g_ll_api.c **** void u8g_SetHiColor(u8g_t *u8g, uint16_t rgb)
 479:u8glib/u8g_ll_api.c **** {
 1081              		.loc 1 479 0
 1082              		.cfi_startproc
 1083              		@ args = 0, pretend = 0, frame = 0
 1084              		@ frame_needed = 0, uses_anonymous_args = 0
 1085              		@ link register save eliminated.
 1086              	.LVL106:
 480:u8glib/u8g_ll_api.c ****   u8g->arg_pixel.color = rgb&255;
 1087              		.loc 1 480 0
 1088 0000 80F83110 		strb	r1, [r0, #49]
ARM GAS  C:\Users\master\AppData\Local\Temp\ccDGE2QS.s 			page 28


 481:u8glib/u8g_ll_api.c ****   u8g->arg_pixel.hi_color = rgb>>8;
 1089              		.loc 1 481 0
 1090 0004 090A     		lsrs	r1, r1, #8
 1091              	.LVL107:
 1092 0006 80F83210 		strb	r1, [r0, #50]
 1093 000a 7047     		bx	lr
 1094              		.cfi_endproc
 1095              	.LFE27:
 1097              		.section	.text.u8g_SetHiColorByRGB,"ax",%progbits
 1098              		.align	2
 1099              		.global	u8g_SetHiColorByRGB
 1100              		.thumb
 1101              		.thumb_func
 1103              	u8g_SetHiColorByRGB:
 1104              	.LFB28:
 482:u8glib/u8g_ll_api.c ****   /*u8g->color_index = idx; */ /* must be removed */
 483:u8glib/u8g_ll_api.c **** }
 484:u8glib/u8g_ll_api.c **** 
 485:u8glib/u8g_ll_api.c **** void u8g_SetHiColorByRGB(u8g_t *u8g, uint8_t r, uint8_t g, uint8_t b)
 486:u8glib/u8g_ll_api.c **** {
 1105              		.loc 1 486 0
 1106              		.cfi_startproc
 1107              		@ args = 0, pretend = 0, frame = 0
 1108              		@ frame_needed = 0, uses_anonymous_args = 0
 1109              		@ link register save eliminated.
 1110              	.LVL108:
 1111 0000 10B4     		push	{r4}
 1112              	.LCFI38:
 1113              		.cfi_def_cfa_offset 4
 1114              		.cfi_offset 4, -4
 487:u8glib/u8g_ll_api.c ****   
 488:u8glib/u8g_ll_api.c ****   r &= ~7;
 1115              		.loc 1 488 0
 1116 0002 01F0F801 		and	r1, r1, #248
 1117              	.LVL109:
 489:u8glib/u8g_ll_api.c ****   g >>= 2;
 1118              		.loc 1 489 0
 1119 0006 9208     		lsrs	r2, r2, #2
 1120              	.LVL110:
 490:u8glib/u8g_ll_api.c ****   b >>= 3;
 491:u8glib/u8g_ll_api.c ****   u8g->arg_pixel.color = b;
 492:u8glib/u8g_ll_api.c ****   u8g->arg_pixel.color |= (g & 7) << 5;
 1121              		.loc 1 492 0
 1122 0008 5401     		lsls	r4, r2, #5
 1123 000a 44EAD303 		orr	r3, r4, r3, lsr #3
 1124              	.LVL111:
 1125 000e 80F83130 		strb	r3, [r0, #49]
 493:u8glib/u8g_ll_api.c ****   u8g->arg_pixel.hi_color = r;
 494:u8glib/u8g_ll_api.c ****   u8g->arg_pixel.hi_color |= (g>>3) & 7;
 1126              		.loc 1 494 0
 1127 0012 41EAD201 		orr	r1, r1, r2, lsr #3
 1128              	.LVL112:
 1129 0016 80F83210 		strb	r1, [r0, #50]
 495:u8glib/u8g_ll_api.c ****   
 496:u8glib/u8g_ll_api.c ****   //u8g_SetHiColor(u8g, U8G_GET_HICOLOR_BY_RGB(r,g,b));
 497:u8glib/u8g_ll_api.c **** }
 1130              		.loc 1 497 0
ARM GAS  C:\Users\master\AppData\Local\Temp\ccDGE2QS.s 			page 29


 1131 001a 5DF8044B 		ldr	r4, [sp], #4
 1132              	.LCFI39:
 1133              		.cfi_restore 4
 1134              		.cfi_def_cfa_offset 0
 1135 001e 7047     		bx	lr
 1136              		.cfi_endproc
 1137              	.LFE28:
 1139              		.section	.text.u8g_SetRGB,"ax",%progbits
 1140              		.align	2
 1141              		.global	u8g_SetRGB
 1142              		.thumb
 1143              		.thumb_func
 1145              	u8g_SetRGB:
 1146              	.LFB29:
 498:u8glib/u8g_ll_api.c **** 
 499:u8glib/u8g_ll_api.c **** void u8g_SetRGB(u8g_t *u8g, uint8_t r, uint8_t g, uint8_t b)
 500:u8glib/u8g_ll_api.c **** {
 1147              		.loc 1 500 0
 1148              		.cfi_startproc
 1149              		@ args = 0, pretend = 0, frame = 0
 1150              		@ frame_needed = 0, uses_anonymous_args = 0
 1151              	.LVL113:
 1152 0000 10B5     		push	{r4, lr}
 1153              	.LCFI40:
 1154              		.cfi_def_cfa_offset 8
 1155              		.cfi_offset 4, -8
 1156              		.cfi_offset 14, -4
 501:u8glib/u8g_ll_api.c ****   if ( u8g->mode == U8G_MODE_R3G3B2 ) 
 1157              		.loc 1 501 0
 1158 0002 C47C     		ldrb	r4, [r0, #19]	@ zero_extendqisi2
 1159 0004 282C     		cmp	r4, #40
 1160 0006 0AD1     		bne	.L63
 502:u8glib/u8g_ll_api.c ****   {
 503:u8glib/u8g_ll_api.c ****     r &= 0x0e0;
 1161              		.loc 1 503 0
 1162 0008 01F0E001 		and	r1, r1, #224
 1163              	.LVL114:
 1164 000c D208     		lsrs	r2, r2, #3
 1165              	.LVL115:
 504:u8glib/u8g_ll_api.c ****     g &= 0x0e0;
 505:u8glib/u8g_ll_api.c ****     g >>= 3;
 1166              		.loc 1 505 0
 1167 000e 02F01C02 		and	r2, r2, #28
 1168              	.LVL116:
 506:u8glib/u8g_ll_api.c ****     b >>= 6;
 507:u8glib/u8g_ll_api.c ****     u8g->arg_pixel.color = r | g | b;
 1169              		.loc 1 507 0
 1170 0012 0A43     		orrs	r2, r2, r1
 1171              	.LVL117:
 1172 0014 42EA9313 		orr	r3, r2, r3, lsr #6
 1173              	.LVL118:
 1174 0018 80F83130 		strb	r3, [r0, #49]
 1175 001c 10BD     		pop	{r4, pc}
 1176              	.LVL119:
 1177              	.L63:
 508:u8glib/u8g_ll_api.c ****   }
 509:u8glib/u8g_ll_api.c ****   else if ( u8g->mode == U8G_MODE_HICOLOR )
ARM GAS  C:\Users\master\AppData\Local\Temp\ccDGE2QS.s 			page 30


 1178              		.loc 1 509 0
 1179 001e 302C     		cmp	r4, #48
 1180 0020 02D1     		bne	.L65
 510:u8glib/u8g_ll_api.c ****   {
 511:u8glib/u8g_ll_api.c ****     u8g_SetHiColorByRGB(u8g, r,g,b);
 1181              		.loc 1 511 0
 1182 0022 FFF7FEFF 		bl	u8g_SetHiColorByRGB
 1183              	.LVL120:
 1184 0026 10BD     		pop	{r4, pc}
 1185              	.LVL121:
 1186              	.L65:
 512:u8glib/u8g_ll_api.c ****   }
 513:u8glib/u8g_ll_api.c ****   else
 514:u8glib/u8g_ll_api.c ****   {
 515:u8glib/u8g_ll_api.c ****     u8g->arg_pixel.color = r;
 1187              		.loc 1 515 0
 1188 0028 80F83110 		strb	r1, [r0, #49]
 516:u8glib/u8g_ll_api.c ****     u8g->arg_pixel.hi_color = g;
 1189              		.loc 1 516 0
 1190 002c 80F83220 		strb	r2, [r0, #50]
 517:u8glib/u8g_ll_api.c ****     u8g->arg_pixel.blue = b;
 1191              		.loc 1 517 0
 1192 0030 80F83330 		strb	r3, [r0, #51]
 1193 0034 10BD     		pop	{r4, pc}
 1194              		.cfi_endproc
 1195              	.LFE29:
 1197 0036 00BF     		.section	.text.u8g_GetColorIndex,"ax",%progbits
 1198              		.align	2
 1199              		.global	u8g_GetColorIndex
 1200              		.thumb
 1201              		.thumb_func
 1203              	u8g_GetColorIndex:
 1204              	.LFB30:
 518:u8glib/u8g_ll_api.c ****   }
 519:u8glib/u8g_ll_api.c **** }
 520:u8glib/u8g_ll_api.c **** 
 521:u8glib/u8g_ll_api.c **** 
 522:u8glib/u8g_ll_api.c **** uint8_t u8g_GetColorIndex(u8g_t *u8g)
 523:u8glib/u8g_ll_api.c **** {
 1205              		.loc 1 523 0
 1206              		.cfi_startproc
 1207              		@ args = 0, pretend = 0, frame = 0
 1208              		@ frame_needed = 0, uses_anonymous_args = 0
 1209              		@ link register save eliminated.
 1210              	.LVL122:
 524:u8glib/u8g_ll_api.c ****   return u8g->arg_pixel.color;
 525:u8glib/u8g_ll_api.c **** }
 1211              		.loc 1 525 0
 1212 0000 90F83100 		ldrb	r0, [r0, #49]	@ zero_extendqisi2
 1213              	.LVL123:
 1214 0004 7047     		bx	lr
 1215              		.cfi_endproc
 1216              	.LFE30:
 1218 0006 00BF     		.section	.text.u8g_GetDefaultForegroundColor,"ax",%progbits
 1219              		.align	2
 1220              		.global	u8g_GetDefaultForegroundColor
 1221              		.thumb
ARM GAS  C:\Users\master\AppData\Local\Temp\ccDGE2QS.s 			page 31


 1222              		.thumb_func
 1224              	u8g_GetDefaultForegroundColor:
 1225              	.LFB31:
 526:u8glib/u8g_ll_api.c **** 
 527:u8glib/u8g_ll_api.c **** uint8_t u8g_GetDefaultForegroundColor(u8g_t *u8g)
 528:u8glib/u8g_ll_api.c **** {
 1226              		.loc 1 528 0
 1227              		.cfi_startproc
 1228              		@ args = 0, pretend = 0, frame = 0
 1229              		@ frame_needed = 0, uses_anonymous_args = 0
 1230              		@ link register save eliminated.
 1231              	.LVL124:
 529:u8glib/u8g_ll_api.c ****   uint8_t mode;
 530:u8glib/u8g_ll_api.c ****   mode = u8g_GetMode(u8g);
 1232              		.loc 1 530 0
 1233 0000 C37C     		ldrb	r3, [r0, #19]	@ zero_extendqisi2
 1234              	.LVL125:
 531:u8glib/u8g_ll_api.c ****   if ( mode == U8G_MODE_R3G3B2 ) 
 1235              		.loc 1 531 0
 1236 0002 282B     		cmp	r3, #40
 1237 0004 03D0     		beq	.L70
 532:u8glib/u8g_ll_api.c ****     return 255;     /* white */
 533:u8glib/u8g_ll_api.c ****   else if ( u8g_GetMode(u8g) == U8G_MODE_GRAY2BIT )
 1238              		.loc 1 533 0
 1239 0006 022B     		cmp	r3, #2
 1240 0008 03D1     		bne	.L71
 534:u8glib/u8g_ll_api.c ****     return 3;         /* max intensity */
 1241              		.loc 1 534 0
 1242 000a 0320     		movs	r0, #3
 1243              	.LVL126:
 1244 000c 7047     		bx	lr
 1245              	.LVL127:
 1246              	.L70:
 532:u8glib/u8g_ll_api.c ****     return 255;     /* white */
 1247              		.loc 1 532 0
 1248 000e FF20     		movs	r0, #255
 1249              	.LVL128:
 1250 0010 7047     		bx	lr
 1251              	.LVL129:
 1252              	.L71:
 535:u8glib/u8g_ll_api.c ****   /* if ( u8g.getMode() == U8G_MODE_BW ) */
 536:u8glib/u8g_ll_api.c ****   return 1;         /* pixel on */
 1253              		.loc 1 536 0
 1254 0012 0120     		movs	r0, #1
 1255              	.LVL130:
 537:u8glib/u8g_ll_api.c **** }
 1256              		.loc 1 537 0
 1257 0014 7047     		bx	lr
 1258              		.cfi_endproc
 1259              	.LFE31:
 1261 0016 00BF     		.section	.text.u8g_SetDefaultForegroundColor,"ax",%progbits
 1262              		.align	2
 1263              		.global	u8g_SetDefaultForegroundColor
 1264              		.thumb
 1265              		.thumb_func
 1267              	u8g_SetDefaultForegroundColor:
 1268              	.LFB32:
ARM GAS  C:\Users\master\AppData\Local\Temp\ccDGE2QS.s 			page 32


 538:u8glib/u8g_ll_api.c **** 
 539:u8glib/u8g_ll_api.c **** void u8g_SetDefaultForegroundColor(u8g_t *u8g)
 540:u8glib/u8g_ll_api.c **** {
 1269              		.loc 1 540 0
 1270              		.cfi_startproc
 1271              		@ args = 0, pretend = 0, frame = 0
 1272              		@ frame_needed = 0, uses_anonymous_args = 0
 1273              	.LVL131:
 541:u8glib/u8g_ll_api.c ****   if ( u8g->mode == U8G_MODE_HICOLOR )
 1274              		.loc 1 541 0
 1275 0000 C37C     		ldrb	r3, [r0, #19]	@ zero_extendqisi2
 1276 0002 302B     		cmp	r3, #48
 1277 0004 05D1     		bne	.L73
 542:u8glib/u8g_ll_api.c ****   {
 543:u8glib/u8g_ll_api.c ****     u8g->arg_pixel.color = 0x0ff;
 1278              		.loc 1 543 0
 1279 0006 FF23     		movs	r3, #255
 1280 0008 80F83130 		strb	r3, [r0, #49]
 544:u8glib/u8g_ll_api.c ****     u8g->arg_pixel.hi_color = 0x0ff;
 1281              		.loc 1 544 0
 1282 000c 80F83230 		strb	r3, [r0, #50]
 1283 0010 7047     		bx	lr
 1284              	.L73:
 540:u8glib/u8g_ll_api.c ****   if ( u8g->mode == U8G_MODE_HICOLOR )
 1285              		.loc 1 540 0
 1286 0012 10B5     		push	{r4, lr}
 1287              	.LCFI41:
 1288              		.cfi_def_cfa_offset 8
 1289              		.cfi_offset 4, -8
 1290              		.cfi_offset 14, -4
 1291 0014 0446     		mov	r4, r0
 545:u8glib/u8g_ll_api.c ****   }
 546:u8glib/u8g_ll_api.c ****   else
 547:u8glib/u8g_ll_api.c ****   {
 548:u8glib/u8g_ll_api.c ****     u8g_SetColorIndex(u8g, u8g_GetDefaultForegroundColor(u8g));
 1292              		.loc 1 548 0
 1293 0016 FFF7FEFF 		bl	u8g_GetDefaultForegroundColor
 1294              	.LVL132:
 1295 001a 0146     		mov	r1, r0
 1296 001c 2046     		mov	r0, r4
 1297 001e FFF7FEFF 		bl	u8g_SetColorIndex
 1298              	.LVL133:
 1299 0022 10BD     		pop	{r4, pc}
 1300              		.cfi_endproc
 1301              	.LFE32:
 1303              		.section	.text.u8g_GetDefaultBackgroundColor,"ax",%progbits
 1304              		.align	2
 1305              		.global	u8g_GetDefaultBackgroundColor
 1306              		.thumb
 1307              		.thumb_func
 1309              	u8g_GetDefaultBackgroundColor:
 1310              	.LFB33:
 549:u8glib/u8g_ll_api.c ****   }
 550:u8glib/u8g_ll_api.c **** }
 551:u8glib/u8g_ll_api.c **** 
 552:u8glib/u8g_ll_api.c **** uint8_t u8g_GetDefaultBackgroundColor(u8g_t *u8g)
 553:u8glib/u8g_ll_api.c **** {
ARM GAS  C:\Users\master\AppData\Local\Temp\ccDGE2QS.s 			page 33


 1311              		.loc 1 553 0
 1312              		.cfi_startproc
 1313              		@ args = 0, pretend = 0, frame = 0
 1314              		@ frame_needed = 0, uses_anonymous_args = 0
 1315              		@ link register save eliminated.
 1316              	.LVL134:
 554:u8glib/u8g_ll_api.c ****   return 0;
 555:u8glib/u8g_ll_api.c **** }
 1317              		.loc 1 555 0
 1318 0000 0020     		movs	r0, #0
 1319              	.LVL135:
 1320 0002 7047     		bx	lr
 1321              		.cfi_endproc
 1322              	.LFE33:
 1324              		.section	.text.u8g_SetDefaultBackgroundColor,"ax",%progbits
 1325              		.align	2
 1326              		.global	u8g_SetDefaultBackgroundColor
 1327              		.thumb
 1328              		.thumb_func
 1330              	u8g_SetDefaultBackgroundColor:
 1331              	.LFB34:
 556:u8glib/u8g_ll_api.c **** 
 557:u8glib/u8g_ll_api.c **** void u8g_SetDefaultBackgroundColor(u8g_t *u8g)
 558:u8glib/u8g_ll_api.c **** {
 1332              		.loc 1 558 0
 1333              		.cfi_startproc
 1334              		@ args = 0, pretend = 0, frame = 0
 1335              		@ frame_needed = 0, uses_anonymous_args = 0
 1336              	.LVL136:
 1337 0000 10B5     		push	{r4, lr}
 1338              	.LCFI42:
 1339              		.cfi_def_cfa_offset 8
 1340              		.cfi_offset 4, -8
 1341              		.cfi_offset 14, -4
 1342 0002 0446     		mov	r4, r0
 559:u8glib/u8g_ll_api.c ****   u8g_SetColorIndex(u8g, u8g_GetDefaultBackgroundColor(u8g));         /* pixel on / black */
 1343              		.loc 1 559 0
 1344 0004 FFF7FEFF 		bl	u8g_GetDefaultBackgroundColor
 1345              	.LVL137:
 1346 0008 0146     		mov	r1, r0
 1347 000a 2046     		mov	r0, r4
 1348 000c FFF7FEFF 		bl	u8g_SetColorIndex
 1349              	.LVL138:
 1350 0010 10BD     		pop	{r4, pc}
 1351              		.cfi_endproc
 1352              	.LFE34:
 1354 0012 00BF     		.section	.text.u8g_GetDefaultMidColor,"ax",%progbits
 1355              		.align	2
 1356              		.global	u8g_GetDefaultMidColor
 1357              		.thumb
 1358              		.thumb_func
 1360              	u8g_GetDefaultMidColor:
 1361              	.LFB35:
 560:u8glib/u8g_ll_api.c **** }
 561:u8glib/u8g_ll_api.c **** 
 562:u8glib/u8g_ll_api.c **** uint8_t u8g_GetDefaultMidColor(u8g_t *u8g)
 563:u8glib/u8g_ll_api.c **** {
ARM GAS  C:\Users\master\AppData\Local\Temp\ccDGE2QS.s 			page 34


 1362              		.loc 1 563 0
 1363              		.cfi_startproc
 1364              		@ args = 0, pretend = 0, frame = 0
 1365              		@ frame_needed = 0, uses_anonymous_args = 0
 1366              		@ link register save eliminated.
 1367              	.LVL139:
 564:u8glib/u8g_ll_api.c ****   uint8_t mode;
 565:u8glib/u8g_ll_api.c ****   mode = u8g_GetMode(u8g);
 1368              		.loc 1 565 0
 1369 0000 C37C     		ldrb	r3, [r0, #19]	@ zero_extendqisi2
 1370              	.LVL140:
 566:u8glib/u8g_ll_api.c ****   if ( mode == U8G_MODE_R3G3B2 ) 
 1371              		.loc 1 566 0
 1372 0002 282B     		cmp	r3, #40
 1373 0004 01D1     		bne	.L81
 567:u8glib/u8g_ll_api.c ****     return 0x06d;     /* gray: 01101101 */
 1374              		.loc 1 567 0
 1375 0006 6D20     		movs	r0, #109
 1376              	.LVL141:
 1377 0008 7047     		bx	lr
 1378              	.LVL142:
 1379              	.L81:
 568:u8glib/u8g_ll_api.c ****   else if ( mode == U8G_MODE_GRAY2BIT )
 569:u8glib/u8g_ll_api.c ****     return 1;         /* low mid intensity */
 1380              		.loc 1 569 0
 1381 000a 0120     		movs	r0, #1
 1382              	.LVL143:
 570:u8glib/u8g_ll_api.c ****   /* if ( u8g.getMode() == U8G_MODE_BW ) */
 571:u8glib/u8g_ll_api.c ****   return 1;         /* pixel on */
 572:u8glib/u8g_ll_api.c **** }
 1383              		.loc 1 572 0
 1384 000c 7047     		bx	lr
 1385              		.cfi_endproc
 1386              	.LFE35:
 1388 000e 00BF     		.section	.text.u8g_SetDefaultMidColor,"ax",%progbits
 1389              		.align	2
 1390              		.global	u8g_SetDefaultMidColor
 1391              		.thumb
 1392              		.thumb_func
 1394              	u8g_SetDefaultMidColor:
 1395              	.LFB36:
 573:u8glib/u8g_ll_api.c **** 
 574:u8glib/u8g_ll_api.c **** void u8g_SetDefaultMidColor(u8g_t *u8g)
 575:u8glib/u8g_ll_api.c **** {
 1396              		.loc 1 575 0
 1397              		.cfi_startproc
 1398              		@ args = 0, pretend = 0, frame = 0
 1399              		@ frame_needed = 0, uses_anonymous_args = 0
 1400              	.LVL144:
 1401 0000 10B5     		push	{r4, lr}
 1402              	.LCFI43:
 1403              		.cfi_def_cfa_offset 8
 1404              		.cfi_offset 4, -8
 1405              		.cfi_offset 14, -4
 1406 0002 0446     		mov	r4, r0
 576:u8glib/u8g_ll_api.c ****   u8g_SetColorIndex(u8g, u8g_GetDefaultMidColor(u8g));
 1407              		.loc 1 576 0
ARM GAS  C:\Users\master\AppData\Local\Temp\ccDGE2QS.s 			page 35


 1408 0004 FFF7FEFF 		bl	u8g_GetDefaultMidColor
 1409              	.LVL145:
 1410 0008 0146     		mov	r1, r0
 1411 000a 2046     		mov	r0, r4
 1412 000c FFF7FEFF 		bl	u8g_SetColorIndex
 1413              	.LVL146:
 1414 0010 10BD     		pop	{r4, pc}
 1415              		.cfi_endproc
 1416              	.LFE36:
 1418 0012 00BF     		.text
 1419              	.Letext0:
 1420              		.file 2 "c:\\program files (x86)\\gnu tools arm embedded\\5.4 2016q3\\arm-none-eabi\\include\\mach
 1421              		.file 3 "c:\\program files (x86)\\gnu tools arm embedded\\5.4 2016q3\\arm-none-eabi\\include\\sys\
 1422              		.file 4 "u8glib/u8g.h"
ARM GAS  C:\Users\master\AppData\Local\Temp\ccDGE2QS.s 			page 36

