ARM GAS  C:\Users\master\AppData\Local\Temp\cc0D1lSx.s 			page 1


   1              		.syntax unified
   2              		.cpu cortex-m4
   3              		.eabi_attribute 27, 1
   4              		.eabi_attribute 28, 1
   5              		.fpu fpv4-sp-d16
   6              		.eabi_attribute 20, 1
   7              		.eabi_attribute 21, 1
   8              		.eabi_attribute 23, 3
   9              		.eabi_attribute 24, 1
  10              		.eabi_attribute 25, 1
  11              		.eabi_attribute 26, 1
  12              		.eabi_attribute 30, 1
  13              		.eabi_attribute 34, 1
  14              		.eabi_attribute 18, 4
  15              		.thumb
  16              		.syntax unified
  17              		.file	"u8g_dev_ssd1306_128x64.c"
  18              		.text
  19              	.Ltext0:
  20              		.cfi_sections	.debug_frame
  21              		.section	.text.u8g_dev_ssd1306_128x64_fn,"ax",%progbits
  22              		.align	2
  23              		.global	u8g_dev_ssd1306_128x64_fn
  24              		.thumb
  25              		.thumb_func
  27              	u8g_dev_ssd1306_128x64_fn:
  28              	.LFB0:
  29              		.file 1 "u8glib/u8g_dev_ssd1306_128x64.c"
   1:u8glib/u8g_dev_ssd1306_128x64.c **** /*
   2:u8glib/u8g_dev_ssd1306_128x64.c **** 
   3:u8glib/u8g_dev_ssd1306_128x64.c ****   u8g_dev_ssd1306_128x64.c
   4:u8glib/u8g_dev_ssd1306_128x64.c **** 
   5:u8glib/u8g_dev_ssd1306_128x64.c ****   Universal 8bit Graphics Library
   6:u8glib/u8g_dev_ssd1306_128x64.c ****   
   7:u8glib/u8g_dev_ssd1306_128x64.c ****   Copyright (c) 2011, olikraus@gmail.com
   8:u8glib/u8g_dev_ssd1306_128x64.c ****   All rights reserved.
   9:u8glib/u8g_dev_ssd1306_128x64.c **** 
  10:u8glib/u8g_dev_ssd1306_128x64.c ****   Redistribution and use in source and binary forms, with or without modification, 
  11:u8glib/u8g_dev_ssd1306_128x64.c ****   are permitted provided that the following conditions are met:
  12:u8glib/u8g_dev_ssd1306_128x64.c **** 
  13:u8glib/u8g_dev_ssd1306_128x64.c ****   * Redistributions of source code must retain the above copyright notice, this list 
  14:u8glib/u8g_dev_ssd1306_128x64.c ****     of conditions and the following disclaimer.
  15:u8glib/u8g_dev_ssd1306_128x64.c ****     
  16:u8glib/u8g_dev_ssd1306_128x64.c ****   * Redistributions in binary form must reproduce the above copyright notice, this 
  17:u8glib/u8g_dev_ssd1306_128x64.c ****     list of conditions and the following disclaimer in the documentation and/or other 
  18:u8glib/u8g_dev_ssd1306_128x64.c ****     materials provided with the distribution.
  19:u8glib/u8g_dev_ssd1306_128x64.c **** 
  20:u8glib/u8g_dev_ssd1306_128x64.c ****   THIS SOFTWARE IS PROVIDED BY THE COPYRIGHT HOLDERS AND 
  21:u8glib/u8g_dev_ssd1306_128x64.c ****   CONTRIBUTORS "AS IS" AND ANY EXPRESS OR IMPLIED WARRANTIES, 
  22:u8glib/u8g_dev_ssd1306_128x64.c ****   INCLUDING, BUT NOT LIMITED TO, THE IMPLIED WARRANTIES OF 
  23:u8glib/u8g_dev_ssd1306_128x64.c ****   MERCHANTABILITY AND FITNESS FOR A PARTICULAR PURPOSE ARE 
  24:u8glib/u8g_dev_ssd1306_128x64.c ****   DISCLAIMED. IN NO EVENT SHALL THE COPYRIGHT HOLDER OR 
  25:u8glib/u8g_dev_ssd1306_128x64.c ****   CONTRIBUTORS BE LIABLE FOR ANY DIRECT, INDIRECT, INCIDENTAL, 
  26:u8glib/u8g_dev_ssd1306_128x64.c ****   SPECIAL, EXEMPLARY, OR CONSEQUENTIAL DAMAGES (INCLUDING, BUT 
  27:u8glib/u8g_dev_ssd1306_128x64.c ****   NOT LIMITED TO, PROCUREMENT OF SUBSTITUTE GOODS OR SERVICES; 
  28:u8glib/u8g_dev_ssd1306_128x64.c ****   LOSS OF USE, DATA, OR PROFITS; OR BUSINESS INTERRUPTION) HOWEVER 
  29:u8glib/u8g_dev_ssd1306_128x64.c ****   CAUSED AND ON ANY THEORY OF LIABILITY, WHETHER IN CONTRACT, 
ARM GAS  C:\Users\master\AppData\Local\Temp\cc0D1lSx.s 			page 2


  30:u8glib/u8g_dev_ssd1306_128x64.c ****   STRICT LIABILITY, OR TORT (INCLUDING NEGLIGENCE OR OTHERWISE) 
  31:u8glib/u8g_dev_ssd1306_128x64.c ****   ARISING IN ANY WAY OUT OF THE USE OF THIS SOFTWARE, EVEN IF 
  32:u8glib/u8g_dev_ssd1306_128x64.c ****   ADVISED OF THE POSSIBILITY OF SUCH DAMAGE.  
  33:u8glib/u8g_dev_ssd1306_128x64.c ****   
  34:u8glib/u8g_dev_ssd1306_128x64.c ****   
  35:u8glib/u8g_dev_ssd1306_128x64.c **** */
  36:u8glib/u8g_dev_ssd1306_128x64.c **** 
  37:u8glib/u8g_dev_ssd1306_128x64.c **** #include "u8g.h"
  38:u8glib/u8g_dev_ssd1306_128x64.c **** 
  39:u8glib/u8g_dev_ssd1306_128x64.c **** #define WIDTH 128
  40:u8glib/u8g_dev_ssd1306_128x64.c **** #define HEIGHT 64
  41:u8glib/u8g_dev_ssd1306_128x64.c **** #define PAGE_HEIGHT 8
  42:u8glib/u8g_dev_ssd1306_128x64.c **** 
  43:u8glib/u8g_dev_ssd1306_128x64.c **** /* init sequence adafruit 128x64 OLED (NOT TESTED) */
  44:u8glib/u8g_dev_ssd1306_128x64.c **** static const uint8_t u8g_dev_ssd1306_128x64_adafruit1_init_seq[] PROGMEM = {
  45:u8glib/u8g_dev_ssd1306_128x64.c ****   U8G_ESC_CS(0),             /* disable chip */
  46:u8glib/u8g_dev_ssd1306_128x64.c ****   U8G_ESC_ADR(0),           /* instruction mode */
  47:u8glib/u8g_dev_ssd1306_128x64.c ****   U8G_ESC_RST(1),           /* do reset low pulse with (1*16)+2 milliseconds */
  48:u8glib/u8g_dev_ssd1306_128x64.c ****   U8G_ESC_CS(1),             /* enable chip */
  49:u8glib/u8g_dev_ssd1306_128x64.c **** 
  50:u8glib/u8g_dev_ssd1306_128x64.c ****   0x0ae,				/* display off, sleep mode */
  51:u8glib/u8g_dev_ssd1306_128x64.c ****   0x0d5, 0x080,		/* clock divide ratio (0x00=1) and oscillator frequency (0x8) */
  52:u8glib/u8g_dev_ssd1306_128x64.c ****   0x0a8, 0x03f,		/* */
  53:u8glib/u8g_dev_ssd1306_128x64.c **** 
  54:u8glib/u8g_dev_ssd1306_128x64.c ****   0x0d3, 0x000,		/*  */
  55:u8glib/u8g_dev_ssd1306_128x64.c **** 
  56:u8glib/u8g_dev_ssd1306_128x64.c ****   0x040,				/* start line */
  57:u8glib/u8g_dev_ssd1306_128x64.c ****   
  58:u8glib/u8g_dev_ssd1306_128x64.c ****   0x08d, 0x010,		/* [1] charge pump setting (p62): 0x014 enable, 0x010 disable */
  59:u8glib/u8g_dev_ssd1306_128x64.c **** 
  60:u8glib/u8g_dev_ssd1306_128x64.c ****   0x020, 0x000,		/* */
  61:u8glib/u8g_dev_ssd1306_128x64.c ****   0x0a1,				/* segment remap a0/a1*/
  62:u8glib/u8g_dev_ssd1306_128x64.c ****   0x0c8,				/* c0: scan dir normal, c8: reverse */
  63:u8glib/u8g_dev_ssd1306_128x64.c ****   0x0da, 0x012,		/* com pin HW config, sequential com pin config (bit 4), disable left/right remap 
  64:u8glib/u8g_dev_ssd1306_128x64.c ****   0x081, 0x09f,		/* [1] set contrast control */
  65:u8glib/u8g_dev_ssd1306_128x64.c ****   0x0d9, 0x022,		/* [1] pre-charge period 0x022/f1*/
  66:u8glib/u8g_dev_ssd1306_128x64.c ****   0x0db, 0x040,		/* vcomh deselect level */
  67:u8glib/u8g_dev_ssd1306_128x64.c ****   
  68:u8glib/u8g_dev_ssd1306_128x64.c ****   0x02e,				/* 2012-05-27: Deactivate scroll */ 
  69:u8glib/u8g_dev_ssd1306_128x64.c ****   0x0a4,				/* output ram to display */
  70:u8glib/u8g_dev_ssd1306_128x64.c ****   0x0a6,				/* none inverted normal display mode */
  71:u8glib/u8g_dev_ssd1306_128x64.c ****   0x0af,				/* display on */
  72:u8glib/u8g_dev_ssd1306_128x64.c **** 
  73:u8glib/u8g_dev_ssd1306_128x64.c ****   U8G_ESC_CS(0),             /* disable chip */
  74:u8glib/u8g_dev_ssd1306_128x64.c ****   U8G_ESC_END                /* end of sequence */
  75:u8glib/u8g_dev_ssd1306_128x64.c **** };
  76:u8glib/u8g_dev_ssd1306_128x64.c **** 
  77:u8glib/u8g_dev_ssd1306_128x64.c **** /* init sequence adafruit 128x64 OLED (NOT TESTED) */
  78:u8glib/u8g_dev_ssd1306_128x64.c **** static const uint8_t u8g_dev_ssd1306_128x64_adafruit2_init_seq[] PROGMEM = {
  79:u8glib/u8g_dev_ssd1306_128x64.c ****   U8G_ESC_CS(0),             /* disable chip */
  80:u8glib/u8g_dev_ssd1306_128x64.c ****   U8G_ESC_ADR(0),           /* instruction mode */
  81:u8glib/u8g_dev_ssd1306_128x64.c ****   U8G_ESC_RST(1),           /* do reset low pulse with (1*16)+2 milliseconds */
  82:u8glib/u8g_dev_ssd1306_128x64.c ****   U8G_ESC_CS(1),             /* enable chip */
  83:u8glib/u8g_dev_ssd1306_128x64.c **** 
  84:u8glib/u8g_dev_ssd1306_128x64.c ****   0x0ae,				/* display off, sleep mode */
  85:u8glib/u8g_dev_ssd1306_128x64.c ****   0x0d5, 0x080,		/* clock divide ratio (0x00=1) and oscillator frequency (0x8) */
  86:u8glib/u8g_dev_ssd1306_128x64.c ****   0x0a8, 0x03f,		/* */
ARM GAS  C:\Users\master\AppData\Local\Temp\cc0D1lSx.s 			page 3


  87:u8glib/u8g_dev_ssd1306_128x64.c **** 
  88:u8glib/u8g_dev_ssd1306_128x64.c ****   0x0d3, 0x000,		/*  */
  89:u8glib/u8g_dev_ssd1306_128x64.c **** 
  90:u8glib/u8g_dev_ssd1306_128x64.c ****   0x040,				/* start line */
  91:u8glib/u8g_dev_ssd1306_128x64.c ****   
  92:u8glib/u8g_dev_ssd1306_128x64.c ****   0x08d, 0x014,		/* [2] charge pump setting (p62): 0x014 enable, 0x010 disable */
  93:u8glib/u8g_dev_ssd1306_128x64.c **** 
  94:u8glib/u8g_dev_ssd1306_128x64.c ****   0x020, 0x000,		/* */
  95:u8glib/u8g_dev_ssd1306_128x64.c ****   0x0a1,				/* segment remap a0/a1*/
  96:u8glib/u8g_dev_ssd1306_128x64.c ****   0x0c8,				/* c0: scan dir normal, c8: reverse */
  97:u8glib/u8g_dev_ssd1306_128x64.c ****   0x0da, 0x012,		/* com pin HW config, sequential com pin config (bit 4), disable left/right remap 
  98:u8glib/u8g_dev_ssd1306_128x64.c ****   0x081, 0x0cf,		/* [2] set contrast control */
  99:u8glib/u8g_dev_ssd1306_128x64.c ****   0x0d9, 0x0f1,		/* [2] pre-charge period 0x022/f1*/
 100:u8glib/u8g_dev_ssd1306_128x64.c ****   0x0db, 0x040,		/* vcomh deselect level */
 101:u8glib/u8g_dev_ssd1306_128x64.c ****   
 102:u8glib/u8g_dev_ssd1306_128x64.c ****   0x02e,				/* 2012-05-27: Deactivate scroll */ 
 103:u8glib/u8g_dev_ssd1306_128x64.c ****   0x0a4,				/* output ram to display */
 104:u8glib/u8g_dev_ssd1306_128x64.c ****   0x0a6,				/* none inverted normal display mode */
 105:u8glib/u8g_dev_ssd1306_128x64.c ****   0x0af,				/* display on */
 106:u8glib/u8g_dev_ssd1306_128x64.c **** 
 107:u8glib/u8g_dev_ssd1306_128x64.c ****   U8G_ESC_CS(0),             /* disable chip */
 108:u8glib/u8g_dev_ssd1306_128x64.c ****   U8G_ESC_END                /* end of sequence */
 109:u8glib/u8g_dev_ssd1306_128x64.c **** };
 110:u8glib/u8g_dev_ssd1306_128x64.c **** 
 111:u8glib/u8g_dev_ssd1306_128x64.c **** /* init sequence adafruit 128x64 OLED (NOT TESTED), like adafruit3, but with page addressing mode *
 112:u8glib/u8g_dev_ssd1306_128x64.c **** static const uint8_t u8g_dev_ssd1306_128x64_adafruit3_init_seq[] PROGMEM = {
 113:u8glib/u8g_dev_ssd1306_128x64.c ****   U8G_ESC_CS(0),             /* disable chip */
 114:u8glib/u8g_dev_ssd1306_128x64.c ****   U8G_ESC_ADR(0),           /* instruction mode */
 115:u8glib/u8g_dev_ssd1306_128x64.c ****   U8G_ESC_RST(1),           /* do reset low pulse with (1*16)+2 milliseconds */
 116:u8glib/u8g_dev_ssd1306_128x64.c ****   U8G_ESC_CS(1),             /* enable chip */
 117:u8glib/u8g_dev_ssd1306_128x64.c **** 
 118:u8glib/u8g_dev_ssd1306_128x64.c ****   0x0ae,				/* display off, sleep mode */
 119:u8glib/u8g_dev_ssd1306_128x64.c ****   0x0d5, 0x080,		/* clock divide ratio (0x00=1) and oscillator frequency (0x8) */
 120:u8glib/u8g_dev_ssd1306_128x64.c ****   0x0a8, 0x03f,		/* */
 121:u8glib/u8g_dev_ssd1306_128x64.c **** 
 122:u8glib/u8g_dev_ssd1306_128x64.c ****   0x0d3, 0x000,		/*  */
 123:u8glib/u8g_dev_ssd1306_128x64.c **** 
 124:u8glib/u8g_dev_ssd1306_128x64.c ****   0x040,				/* start line */
 125:u8glib/u8g_dev_ssd1306_128x64.c ****   
 126:u8glib/u8g_dev_ssd1306_128x64.c ****   0x08d, 0x014,		/* [2] charge pump setting (p62): 0x014 enable, 0x010 disable */
 127:u8glib/u8g_dev_ssd1306_128x64.c **** 
 128:u8glib/u8g_dev_ssd1306_128x64.c ****   0x020, 0x002,		/* 2012-05-27: page addressing mode */
 129:u8glib/u8g_dev_ssd1306_128x64.c ****   0x0a1,				/* segment remap a0/a1*/
 130:u8glib/u8g_dev_ssd1306_128x64.c ****   0x0c8,				/* c0: scan dir normal, c8: reverse */
 131:u8glib/u8g_dev_ssd1306_128x64.c ****   0x0da, 0x012,		/* com pin HW config, sequential com pin config (bit 4), disable left/right remap 
 132:u8glib/u8g_dev_ssd1306_128x64.c ****   0x081, 0x0cf,		/* [2] set contrast control */
 133:u8glib/u8g_dev_ssd1306_128x64.c ****   0x0d9, 0x0f1,		/* [2] pre-charge period 0x022/f1*/
 134:u8glib/u8g_dev_ssd1306_128x64.c ****   0x0db, 0x040,		/* vcomh deselect level */
 135:u8glib/u8g_dev_ssd1306_128x64.c ****   
 136:u8glib/u8g_dev_ssd1306_128x64.c ****   0x02e,				/* 2012-05-27: Deactivate scroll */ 
 137:u8glib/u8g_dev_ssd1306_128x64.c ****   0x0a4,				/* output ram to display */
 138:u8glib/u8g_dev_ssd1306_128x64.c ****   0x0a6,				/* none inverted normal display mode */
 139:u8glib/u8g_dev_ssd1306_128x64.c ****   0x0af,				/* display on */
 140:u8glib/u8g_dev_ssd1306_128x64.c **** 
 141:u8glib/u8g_dev_ssd1306_128x64.c ****   U8G_ESC_CS(0),             /* disable chip */
 142:u8glib/u8g_dev_ssd1306_128x64.c ****   U8G_ESC_END                /* end of sequence */
 143:u8glib/u8g_dev_ssd1306_128x64.c **** };
ARM GAS  C:\Users\master\AppData\Local\Temp\cc0D1lSx.s 			page 4


 144:u8glib/u8g_dev_ssd1306_128x64.c **** 
 145:u8glib/u8g_dev_ssd1306_128x64.c **** /* init sequence Univision datasheet (NOT TESTED) */
 146:u8glib/u8g_dev_ssd1306_128x64.c **** static const uint8_t u8g_dev_ssd1306_128x64_univision_init_seq[] PROGMEM = {
 147:u8glib/u8g_dev_ssd1306_128x64.c ****   U8G_ESC_CS(0),             /* disable chip */
 148:u8glib/u8g_dev_ssd1306_128x64.c ****   U8G_ESC_ADR(0),           /* instruction mode */
 149:u8glib/u8g_dev_ssd1306_128x64.c ****   U8G_ESC_RST(1),           /* do reset low pulse with (1*16)+2 milliseconds */
 150:u8glib/u8g_dev_ssd1306_128x64.c ****   U8G_ESC_CS(1),             /* enable chip */
 151:u8glib/u8g_dev_ssd1306_128x64.c **** 
 152:u8glib/u8g_dev_ssd1306_128x64.c ****   0x0ae,				/* display off, sleep mode */
 153:u8glib/u8g_dev_ssd1306_128x64.c ****   0x0d5, 0x080,		/* clock divide ratio (0x00=1) and oscillator frequency (0x8) */
 154:u8glib/u8g_dev_ssd1306_128x64.c ****   0x0a8, 0x03f,		/* multiplex ratio */
 155:u8glib/u8g_dev_ssd1306_128x64.c ****   0x0d3, 0x000,		/* display offset */
 156:u8glib/u8g_dev_ssd1306_128x64.c ****   0x040,				/* start line */
 157:u8glib/u8g_dev_ssd1306_128x64.c ****   0x08d, 0x010,		/* charge pump setting (p62): 0x014 enable, 0x010 disable */
 158:u8glib/u8g_dev_ssd1306_128x64.c ****   0x0a1,				/* segment remap a0/a1*/
 159:u8glib/u8g_dev_ssd1306_128x64.c ****   0x0c8,				/* c0: scan dir normal, c8: reverse */
 160:u8glib/u8g_dev_ssd1306_128x64.c ****   0x0da, 0x012,		/* com pin HW config, sequential com pin config (bit 4), disable left/right remap 
 161:u8glib/u8g_dev_ssd1306_128x64.c ****   0x081, 0x09f,		/* set contrast control */
 162:u8glib/u8g_dev_ssd1306_128x64.c ****   0x0d9, 0x022,		/* pre-charge period */
 163:u8glib/u8g_dev_ssd1306_128x64.c ****   0x0db, 0x040,		/* vcomh deselect level */
 164:u8glib/u8g_dev_ssd1306_128x64.c ****   0x022, 0x000,		/* page addressing mode WRONG: 3 byte cmd! */
 165:u8glib/u8g_dev_ssd1306_128x64.c ****   0x0a4,				/* output ram to display */
 166:u8glib/u8g_dev_ssd1306_128x64.c ****   0x0a6,				/* none inverted normal display mode */
 167:u8glib/u8g_dev_ssd1306_128x64.c ****   0x0af,				/* display on */
 168:u8glib/u8g_dev_ssd1306_128x64.c ****   U8G_ESC_CS(0),             /* disable chip */
 169:u8glib/u8g_dev_ssd1306_128x64.c ****   U8G_ESC_END                /* end of sequence */
 170:u8glib/u8g_dev_ssd1306_128x64.c **** };
 171:u8glib/u8g_dev_ssd1306_128x64.c **** 
 172:u8glib/u8g_dev_ssd1306_128x64.c **** /* select one init sequence here */
 173:u8glib/u8g_dev_ssd1306_128x64.c **** //#define u8g_dev_ssd1306_128x64_init_seq u8g_dev_ssd1306_128x64_univision_init_seq
 174:u8glib/u8g_dev_ssd1306_128x64.c **** //#define u8g_dev_ssd1306_128x64_init_seq u8g_dev_ssd1306_128x64_adafruit1_init_seq
 175:u8glib/u8g_dev_ssd1306_128x64.c **** // 26. Apr 2014: in this thead: http://forum.arduino.cc/index.php?topic=234930.msg1696754;topicseen
 176:u8glib/u8g_dev_ssd1306_128x64.c **** // it is mentiond, that adafruit2_init_seq works better --> this will be used by the ssd1306_adafru
 177:u8glib/u8g_dev_ssd1306_128x64.c **** //#define u8g_dev_ssd1306_128x64_init_seq u8g_dev_ssd1306_128x64_adafruit2_init_seq
 178:u8glib/u8g_dev_ssd1306_128x64.c **** 
 179:u8glib/u8g_dev_ssd1306_128x64.c **** #define u8g_dev_ssd1306_128x64_init_seq u8g_dev_ssd1306_128x64_adafruit3_init_seq
 180:u8glib/u8g_dev_ssd1306_128x64.c **** 
 181:u8glib/u8g_dev_ssd1306_128x64.c **** 
 182:u8glib/u8g_dev_ssd1306_128x64.c **** static const uint8_t u8g_dev_ssd1306_128x64_data_start[] PROGMEM = {
 183:u8glib/u8g_dev_ssd1306_128x64.c ****   U8G_ESC_ADR(0),           /* instruction mode */
 184:u8glib/u8g_dev_ssd1306_128x64.c ****   U8G_ESC_CS(1),             /* enable chip */
 185:u8glib/u8g_dev_ssd1306_128x64.c ****   0x010,		/* set upper 4 bit of the col adr to 0 */
 186:u8glib/u8g_dev_ssd1306_128x64.c ****   0x000,		/* set lower 4 bit of the col adr to 0  */
 187:u8glib/u8g_dev_ssd1306_128x64.c ****   U8G_ESC_END                /* end of sequence */
 188:u8glib/u8g_dev_ssd1306_128x64.c **** };
 189:u8glib/u8g_dev_ssd1306_128x64.c **** 
 190:u8glib/u8g_dev_ssd1306_128x64.c **** /* the sh1106 is compatible to the ssd1306, but is 132x64. display seems to be centered */
 191:u8glib/u8g_dev_ssd1306_128x64.c **** static const uint8_t u8g_dev_sh1106_128x64_data_start[] PROGMEM = {
 192:u8glib/u8g_dev_ssd1306_128x64.c ****   U8G_ESC_ADR(0),           /* instruction mode */
 193:u8glib/u8g_dev_ssd1306_128x64.c ****   U8G_ESC_CS(1),             /* enable chip */
 194:u8glib/u8g_dev_ssd1306_128x64.c ****   0x010,		/* set upper 4 bit of the col adr to 0 */
 195:u8glib/u8g_dev_ssd1306_128x64.c ****   0x002,		/* set lower 4 bit of the col adr to 2 (centered display with sh1106)  */
 196:u8glib/u8g_dev_ssd1306_128x64.c ****   U8G_ESC_END                /* end of sequence */
 197:u8glib/u8g_dev_ssd1306_128x64.c **** };
 198:u8glib/u8g_dev_ssd1306_128x64.c **** 
 199:u8glib/u8g_dev_ssd1306_128x64.c **** static const uint8_t u8g_dev_ssd13xx_sleep_on[] PROGMEM = {
 200:u8glib/u8g_dev_ssd1306_128x64.c ****   U8G_ESC_ADR(0),           /* instruction mode */
ARM GAS  C:\Users\master\AppData\Local\Temp\cc0D1lSx.s 			page 5


 201:u8glib/u8g_dev_ssd1306_128x64.c ****   U8G_ESC_CS(1),             /* enable chip */
 202:u8glib/u8g_dev_ssd1306_128x64.c ****   0x0ae,		/* display off */      
 203:u8glib/u8g_dev_ssd1306_128x64.c ****   U8G_ESC_CS(0),             /* disable chip, bugfix 12 nov 2014 */
 204:u8glib/u8g_dev_ssd1306_128x64.c ****   U8G_ESC_END                /* end of sequence */
 205:u8glib/u8g_dev_ssd1306_128x64.c **** };
 206:u8glib/u8g_dev_ssd1306_128x64.c **** 
 207:u8glib/u8g_dev_ssd1306_128x64.c **** static const uint8_t u8g_dev_ssd13xx_sleep_off[] PROGMEM = {
 208:u8glib/u8g_dev_ssd1306_128x64.c ****   U8G_ESC_ADR(0),           /* instruction mode */
 209:u8glib/u8g_dev_ssd1306_128x64.c ****   U8G_ESC_CS(1),             /* enable chip */
 210:u8glib/u8g_dev_ssd1306_128x64.c ****   0x0af,		/* display on */      
 211:u8glib/u8g_dev_ssd1306_128x64.c ****   U8G_ESC_DLY(50),       /* delay 50 ms */
 212:u8glib/u8g_dev_ssd1306_128x64.c ****   U8G_ESC_CS(0),             /* disable chip, bugfix 12 nov 2014 */
 213:u8glib/u8g_dev_ssd1306_128x64.c ****   U8G_ESC_END                /* end of sequence */
 214:u8glib/u8g_dev_ssd1306_128x64.c **** };
 215:u8glib/u8g_dev_ssd1306_128x64.c **** 
 216:u8glib/u8g_dev_ssd1306_128x64.c **** uint8_t u8g_dev_ssd1306_128x64_fn(u8g_t *u8g, u8g_dev_t *dev, uint8_t msg, void *arg)
 217:u8glib/u8g_dev_ssd1306_128x64.c **** {
  30              		.loc 1 217 0
  31              		.cfi_startproc
  32              		@ args = 0, pretend = 0, frame = 0
  33              		@ frame_needed = 0, uses_anonymous_args = 0
  34              	.LVL0:
  35 0000 2DE9F041 		push	{r4, r5, r6, r7, r8, lr}
  36              	.LCFI0:
  37              		.cfi_def_cfa_offset 24
  38              		.cfi_offset 4, -24
  39              		.cfi_offset 5, -20
  40              		.cfi_offset 6, -16
  41              		.cfi_offset 7, -12
  42              		.cfi_offset 8, -8
  43              		.cfi_offset 14, -4
  44 0004 0546     		mov	r5, r0
  45 0006 0C46     		mov	r4, r1
  46 0008 1646     		mov	r6, r2
  47 000a 1F46     		mov	r7, r3
 218:u8glib/u8g_dev_ssd1306_128x64.c ****   switch(msg)
  48              		.loc 1 218 0
  49 000c A2F10A03 		sub	r3, r2, #10
  50              	.LVL1:
  51 0010 0B2B     		cmp	r3, #11
  52 0012 52D8     		bhi	.L2
  53 0014 DFE803F0 		tbb	[pc, r3]
  54              	.LVL2:
  55              	.L4:
  56 0018 06       		.byte	(.L3-.L4)/2
  57 0019 51       		.byte	(.L2-.L4)/2
  58 001a 51       		.byte	(.L2-.L4)/2
  59 001b 51       		.byte	(.L2-.L4)/2
  60 001c 51       		.byte	(.L2-.L4)/2
  61 001d 38       		.byte	(.L5-.L4)/2
  62 001e 2E       		.byte	(.L6-.L4)/2
  63 001f 33       		.byte	(.L7-.L4)/2
  64 0020 51       		.byte	(.L2-.L4)/2
  65 0021 51       		.byte	(.L2-.L4)/2
  66 0022 51       		.byte	(.L2-.L4)/2
  67 0023 0F       		.byte	(.L8-.L4)/2
  68              		.p2align 1
ARM GAS  C:\Users\master\AppData\Local\Temp\cc0D1lSx.s 			page 6


  69              	.L3:
 219:u8glib/u8g_dev_ssd1306_128x64.c ****   {
 220:u8glib/u8g_dev_ssd1306_128x64.c ****     case U8G_DEV_MSG_INIT:
 221:u8glib/u8g_dev_ssd1306_128x64.c ****       u8g_InitCom(u8g, dev, U8G_SPI_CLK_CYCLE_300NS);
  70              		.loc 1 221 0
  71 0024 0222     		movs	r2, #2
  72 0026 FFF7FEFF 		bl	u8g_InitCom
  73              	.LVL3:
 222:u8glib/u8g_dev_ssd1306_128x64.c ****       u8g_WriteEscSeqP(u8g, dev, u8g_dev_ssd1306_128x64_adafruit2_init_seq);
  74              		.loc 1 222 0
  75 002a 294A     		ldr	r2, .L11
  76 002c 2146     		mov	r1, r4
  77 002e 2846     		mov	r0, r5
  78 0030 FFF7FEFF 		bl	u8g_WriteEscSeqP
  79              	.LVL4:
 223:u8glib/u8g_dev_ssd1306_128x64.c ****       break;
  80              		.loc 1 223 0
  81 0034 41E0     		b	.L2
  82              	.LVL5:
  83              	.L8:
  84              	.LBB2:
 224:u8glib/u8g_dev_ssd1306_128x64.c ****     case U8G_DEV_MSG_STOP:
 225:u8glib/u8g_dev_ssd1306_128x64.c ****       break;
 226:u8glib/u8g_dev_ssd1306_128x64.c ****     case U8G_DEV_MSG_PAGE_NEXT:
 227:u8glib/u8g_dev_ssd1306_128x64.c ****       {
 228:u8glib/u8g_dev_ssd1306_128x64.c ****         u8g_pb_t *pb = (u8g_pb_t *)(dev->dev_mem);
  85              		.loc 1 228 0
  86 0036 D1F80480 		ldr	r8, [r1, #4]
  87              	.LVL6:
 229:u8glib/u8g_dev_ssd1306_128x64.c ****         u8g_WriteEscSeqP(u8g, dev, u8g_dev_ssd1306_128x64_data_start);    
  88              		.loc 1 229 0
  89 003a 264A     		ldr	r2, .L11+4
  90 003c FFF7FEFF 		bl	u8g_WriteEscSeqP
  91              	.LVL7:
 230:u8glib/u8g_dev_ssd1306_128x64.c ****         u8g_WriteByte(u8g, dev, 0x0b0 | pb->p.page); /* select current page (SSD1306) */
  92              		.loc 1 230 0
  93 0040 98F80420 		ldrb	r2, [r8, #4]	@ zero_extendqisi2
  94 0044 42F0B002 		orr	r2, r2, #176
  95 0048 2146     		mov	r1, r4
  96 004a 2846     		mov	r0, r5
  97 004c FFF7FEFF 		bl	u8g_WriteByte
  98              	.LVL8:
 231:u8glib/u8g_dev_ssd1306_128x64.c ****         u8g_SetAddress(u8g, dev, 1);           /* data mode */
  99              		.loc 1 231 0
 100 0050 0122     		movs	r2, #1
 101 0052 2146     		mov	r1, r4
 102 0054 2846     		mov	r0, r5
 103 0056 FFF7FEFF 		bl	u8g_SetAddress
 104              	.LVL9:
 232:u8glib/u8g_dev_ssd1306_128x64.c ****         if ( u8g_pb_WriteBuffer(pb, u8g, dev) == 0 )
 105              		.loc 1 232 0
 106 005a 2246     		mov	r2, r4
 107 005c 2946     		mov	r1, r5
 108 005e 4046     		mov	r0, r8
 109 0060 FFF7FEFF 		bl	u8g_pb_WriteBuffer
 110              	.LVL10:
 111 0064 0346     		mov	r3, r0
ARM GAS  C:\Users\master\AppData\Local\Temp\cc0D1lSx.s 			page 7


 112 0066 78B3     		cbz	r0, .L9
 233:u8glib/u8g_dev_ssd1306_128x64.c ****           return 0;
 234:u8glib/u8g_dev_ssd1306_128x64.c ****         u8g_SetChipSelect(u8g, dev, 0);
 113              		.loc 1 234 0
 114 0068 0022     		movs	r2, #0
 115 006a 2146     		mov	r1, r4
 116 006c 2846     		mov	r0, r5
 117 006e FFF7FEFF 		bl	u8g_SetChipSelect
 118              	.LVL11:
 119              	.LBE2:
 235:u8glib/u8g_dev_ssd1306_128x64.c ****       }
 236:u8glib/u8g_dev_ssd1306_128x64.c ****       break;
 120              		.loc 1 236 0
 121 0072 22E0     		b	.L2
 122              	.LVL12:
 123              	.L6:
 237:u8glib/u8g_dev_ssd1306_128x64.c ****     case U8G_DEV_MSG_SLEEP_ON:
 238:u8glib/u8g_dev_ssd1306_128x64.c ****       u8g_WriteEscSeqP(u8g, dev, u8g_dev_ssd13xx_sleep_on);    
 124              		.loc 1 238 0
 125 0074 184A     		ldr	r2, .L11+8
 126 0076 FFF7FEFF 		bl	u8g_WriteEscSeqP
 127              	.LVL13:
 239:u8glib/u8g_dev_ssd1306_128x64.c ****       return 1;
 128              		.loc 1 239 0
 129 007a 0123     		movs	r3, #1
 130 007c 24E0     		b	.L9
 131              	.LVL14:
 132              	.L7:
 240:u8glib/u8g_dev_ssd1306_128x64.c ****     case U8G_DEV_MSG_SLEEP_OFF:
 241:u8glib/u8g_dev_ssd1306_128x64.c ****       u8g_WriteEscSeqP(u8g, dev, u8g_dev_ssd13xx_sleep_off);    
 133              		.loc 1 241 0
 134 007e 174A     		ldr	r2, .L11+12
 135 0080 FFF7FEFF 		bl	u8g_WriteEscSeqP
 136              	.LVL15:
 242:u8glib/u8g_dev_ssd1306_128x64.c ****       return 1;
 137              		.loc 1 242 0
 138 0084 0123     		movs	r3, #1
 139 0086 1FE0     		b	.L9
 140              	.LVL16:
 141              	.L5:
 243:u8glib/u8g_dev_ssd1306_128x64.c ****     case U8G_DEV_MSG_CONTRAST:
 244:u8glib/u8g_dev_ssd1306_128x64.c ****     {
 245:u8glib/u8g_dev_ssd1306_128x64.c **** 	u8g_SetChipSelect(u8g, dev, 1);
 142              		.loc 1 245 0
 143 0088 0122     		movs	r2, #1
 144 008a FFF7FEFF 		bl	u8g_SetChipSelect
 145              	.LVL17:
 246:u8glib/u8g_dev_ssd1306_128x64.c **** 	u8g_SetAddress(u8g, dev, 0); /* instruction mode */
 146              		.loc 1 246 0
 147 008e 0022     		movs	r2, #0
 148 0090 2146     		mov	r1, r4
 149 0092 2846     		mov	r0, r5
 150 0094 FFF7FEFF 		bl	u8g_SetAddress
 151              	.LVL18:
 247:u8glib/u8g_dev_ssd1306_128x64.c **** 	u8g_WriteByte(u8g, dev, 0x81);
 152              		.loc 1 247 0
 153 0098 8122     		movs	r2, #129
ARM GAS  C:\Users\master\AppData\Local\Temp\cc0D1lSx.s 			page 8


 154 009a 2146     		mov	r1, r4
 155 009c 2846     		mov	r0, r5
 156 009e FFF7FEFF 		bl	u8g_WriteByte
 157              	.LVL19:
 248:u8glib/u8g_dev_ssd1306_128x64.c **** 	u8g_WriteByte(u8g, dev, *(uint8_t *) arg);
 158              		.loc 1 248 0
 159 00a2 3A78     		ldrb	r2, [r7]	@ zero_extendqisi2
 160 00a4 2146     		mov	r1, r4
 161 00a6 2846     		mov	r0, r5
 162 00a8 FFF7FEFF 		bl	u8g_WriteByte
 163              	.LVL20:
 249:u8glib/u8g_dev_ssd1306_128x64.c **** 	u8g_SetChipSelect(u8g, dev, 0);
 164              		.loc 1 249 0
 165 00ac 0022     		movs	r2, #0
 166 00ae 2146     		mov	r1, r4
 167 00b0 2846     		mov	r0, r5
 168 00b2 FFF7FEFF 		bl	u8g_SetChipSelect
 169              	.LVL21:
 250:u8glib/u8g_dev_ssd1306_128x64.c **** 	return 1;
 170              		.loc 1 250 0
 171 00b6 0123     		movs	r3, #1
 172 00b8 06E0     		b	.L9
 173              	.L2:
 251:u8glib/u8g_dev_ssd1306_128x64.c ****     }
 252:u8glib/u8g_dev_ssd1306_128x64.c ****   }
 253:u8glib/u8g_dev_ssd1306_128x64.c ****   return u8g_dev_pb8v1_base_fn(u8g, dev, msg, arg);
 174              		.loc 1 253 0
 175 00ba 3B46     		mov	r3, r7
 176 00bc 3246     		mov	r2, r6
 177 00be 2146     		mov	r1, r4
 178 00c0 2846     		mov	r0, r5
 179 00c2 FFF7FEFF 		bl	u8g_dev_pb8v1_base_fn
 180              	.LVL22:
 181 00c6 0346     		mov	r3, r0
 182              	.L9:
 254:u8glib/u8g_dev_ssd1306_128x64.c **** }
 183              		.loc 1 254 0
 184 00c8 1846     		mov	r0, r3
 185 00ca BDE8F081 		pop	{r4, r5, r6, r7, r8, pc}
 186              	.LVL23:
 187              	.L12:
 188 00ce 00BF     		.align	2
 189              	.L11:
 190 00d0 00000000 		.word	.LANCHOR0
 191 00d4 00000000 		.word	.LANCHOR1
 192 00d8 00000000 		.word	.LANCHOR2
 193 00dc 00000000 		.word	.LANCHOR3
 194              		.cfi_endproc
 195              	.LFE0:
 197              		.section	.text.u8g_dev_ssd1306_adafruit_128x64_fn,"ax",%progbits
 198              		.align	2
 199              		.global	u8g_dev_ssd1306_adafruit_128x64_fn
 200              		.thumb
 201              		.thumb_func
 203              	u8g_dev_ssd1306_adafruit_128x64_fn:
 204              	.LFB1:
 255:u8glib/u8g_dev_ssd1306_128x64.c **** 
ARM GAS  C:\Users\master\AppData\Local\Temp\cc0D1lSx.s 			page 9


 256:u8glib/u8g_dev_ssd1306_128x64.c **** uint8_t u8g_dev_ssd1306_adafruit_128x64_fn(u8g_t *u8g, u8g_dev_t *dev, uint8_t msg, void *arg)
 257:u8glib/u8g_dev_ssd1306_128x64.c **** {
 205              		.loc 1 257 0
 206              		.cfi_startproc
 207              		@ args = 0, pretend = 0, frame = 0
 208              		@ frame_needed = 0, uses_anonymous_args = 0
 209              	.LVL24:
 210 0000 2DE9F041 		push	{r4, r5, r6, r7, r8, lr}
 211              	.LCFI1:
 212              		.cfi_def_cfa_offset 24
 213              		.cfi_offset 4, -24
 214              		.cfi_offset 5, -20
 215              		.cfi_offset 6, -16
 216              		.cfi_offset 7, -12
 217              		.cfi_offset 8, -8
 218              		.cfi_offset 14, -4
 219 0004 0546     		mov	r5, r0
 220 0006 0C46     		mov	r4, r1
 221 0008 1646     		mov	r6, r2
 222 000a 1F46     		mov	r7, r3
 258:u8glib/u8g_dev_ssd1306_128x64.c ****   switch(msg)
 223              		.loc 1 258 0
 224 000c A2F10A03 		sub	r3, r2, #10
 225              	.LVL25:
 226 0010 0B2B     		cmp	r3, #11
 227 0012 52D8     		bhi	.L14
 228 0014 DFE803F0 		tbb	[pc, r3]
 229              	.LVL26:
 230              	.L16:
 231 0018 06       		.byte	(.L15-.L16)/2
 232 0019 51       		.byte	(.L14-.L16)/2
 233 001a 51       		.byte	(.L14-.L16)/2
 234 001b 51       		.byte	(.L14-.L16)/2
 235 001c 51       		.byte	(.L14-.L16)/2
 236 001d 38       		.byte	(.L17-.L16)/2
 237 001e 2E       		.byte	(.L18-.L16)/2
 238 001f 33       		.byte	(.L19-.L16)/2
 239 0020 51       		.byte	(.L14-.L16)/2
 240 0021 51       		.byte	(.L14-.L16)/2
 241 0022 51       		.byte	(.L14-.L16)/2
 242 0023 0F       		.byte	(.L20-.L16)/2
 243              		.p2align 1
 244              	.L15:
 259:u8glib/u8g_dev_ssd1306_128x64.c ****   {
 260:u8glib/u8g_dev_ssd1306_128x64.c ****     case U8G_DEV_MSG_INIT:
 261:u8glib/u8g_dev_ssd1306_128x64.c ****       u8g_InitCom(u8g, dev, U8G_SPI_CLK_CYCLE_300NS);
 245              		.loc 1 261 0
 246 0024 0222     		movs	r2, #2
 247 0026 FFF7FEFF 		bl	u8g_InitCom
 248              	.LVL27:
 262:u8glib/u8g_dev_ssd1306_128x64.c ****       u8g_WriteEscSeqP(u8g, dev, u8g_dev_ssd1306_128x64_init_seq);
 249              		.loc 1 262 0
 250 002a 294A     		ldr	r2, .L23
 251 002c 2146     		mov	r1, r4
 252 002e 2846     		mov	r0, r5
 253 0030 FFF7FEFF 		bl	u8g_WriteEscSeqP
 254              	.LVL28:
ARM GAS  C:\Users\master\AppData\Local\Temp\cc0D1lSx.s 			page 10


 263:u8glib/u8g_dev_ssd1306_128x64.c ****       break;
 255              		.loc 1 263 0
 256 0034 41E0     		b	.L14
 257              	.LVL29:
 258              	.L20:
 259              	.LBB3:
 264:u8glib/u8g_dev_ssd1306_128x64.c ****     case U8G_DEV_MSG_STOP:
 265:u8glib/u8g_dev_ssd1306_128x64.c ****       break;
 266:u8glib/u8g_dev_ssd1306_128x64.c ****     case U8G_DEV_MSG_PAGE_NEXT:
 267:u8glib/u8g_dev_ssd1306_128x64.c ****       {
 268:u8glib/u8g_dev_ssd1306_128x64.c ****         u8g_pb_t *pb = (u8g_pb_t *)(dev->dev_mem);
 260              		.loc 1 268 0
 261 0036 D1F80480 		ldr	r8, [r1, #4]
 262              	.LVL30:
 269:u8glib/u8g_dev_ssd1306_128x64.c ****         u8g_WriteEscSeqP(u8g, dev, u8g_dev_ssd1306_128x64_data_start);    
 263              		.loc 1 269 0
 264 003a 264A     		ldr	r2, .L23+4
 265 003c FFF7FEFF 		bl	u8g_WriteEscSeqP
 266              	.LVL31:
 270:u8glib/u8g_dev_ssd1306_128x64.c ****         u8g_WriteByte(u8g, dev, 0x0b0 | pb->p.page); /* select current page (SSD1306) */
 267              		.loc 1 270 0
 268 0040 98F80420 		ldrb	r2, [r8, #4]	@ zero_extendqisi2
 269 0044 42F0B002 		orr	r2, r2, #176
 270 0048 2146     		mov	r1, r4
 271 004a 2846     		mov	r0, r5
 272 004c FFF7FEFF 		bl	u8g_WriteByte
 273              	.LVL32:
 271:u8glib/u8g_dev_ssd1306_128x64.c ****         u8g_SetAddress(u8g, dev, 1);           /* data mode */
 274              		.loc 1 271 0
 275 0050 0122     		movs	r2, #1
 276 0052 2146     		mov	r1, r4
 277 0054 2846     		mov	r0, r5
 278 0056 FFF7FEFF 		bl	u8g_SetAddress
 279              	.LVL33:
 272:u8glib/u8g_dev_ssd1306_128x64.c ****         if ( u8g_pb_WriteBuffer(pb, u8g, dev) == 0 )
 280              		.loc 1 272 0
 281 005a 2246     		mov	r2, r4
 282 005c 2946     		mov	r1, r5
 283 005e 4046     		mov	r0, r8
 284 0060 FFF7FEFF 		bl	u8g_pb_WriteBuffer
 285              	.LVL34:
 286 0064 0346     		mov	r3, r0
 287 0066 78B3     		cbz	r0, .L21
 273:u8glib/u8g_dev_ssd1306_128x64.c ****           return 0;
 274:u8glib/u8g_dev_ssd1306_128x64.c ****         u8g_SetChipSelect(u8g, dev, 0);
 288              		.loc 1 274 0
 289 0068 0022     		movs	r2, #0
 290 006a 2146     		mov	r1, r4
 291 006c 2846     		mov	r0, r5
 292 006e FFF7FEFF 		bl	u8g_SetChipSelect
 293              	.LVL35:
 294              	.LBE3:
 275:u8glib/u8g_dev_ssd1306_128x64.c ****       }
 276:u8glib/u8g_dev_ssd1306_128x64.c ****       break;
 295              		.loc 1 276 0
 296 0072 22E0     		b	.L14
 297              	.LVL36:
ARM GAS  C:\Users\master\AppData\Local\Temp\cc0D1lSx.s 			page 11


 298              	.L18:
 277:u8glib/u8g_dev_ssd1306_128x64.c ****     case U8G_DEV_MSG_SLEEP_ON:
 278:u8glib/u8g_dev_ssd1306_128x64.c ****       u8g_WriteEscSeqP(u8g, dev, u8g_dev_ssd13xx_sleep_on);    
 299              		.loc 1 278 0
 300 0074 184A     		ldr	r2, .L23+8
 301 0076 FFF7FEFF 		bl	u8g_WriteEscSeqP
 302              	.LVL37:
 279:u8glib/u8g_dev_ssd1306_128x64.c ****       return 1;
 303              		.loc 1 279 0
 304 007a 0123     		movs	r3, #1
 305 007c 24E0     		b	.L21
 306              	.LVL38:
 307              	.L19:
 280:u8glib/u8g_dev_ssd1306_128x64.c ****     case U8G_DEV_MSG_SLEEP_OFF:
 281:u8glib/u8g_dev_ssd1306_128x64.c ****       u8g_WriteEscSeqP(u8g, dev, u8g_dev_ssd13xx_sleep_off);    
 308              		.loc 1 281 0
 309 007e 174A     		ldr	r2, .L23+12
 310 0080 FFF7FEFF 		bl	u8g_WriteEscSeqP
 311              	.LVL39:
 282:u8glib/u8g_dev_ssd1306_128x64.c ****       return 1;
 312              		.loc 1 282 0
 313 0084 0123     		movs	r3, #1
 314 0086 1FE0     		b	.L21
 315              	.LVL40:
 316              	.L17:
 283:u8glib/u8g_dev_ssd1306_128x64.c ****     case U8G_DEV_MSG_CONTRAST:
 284:u8glib/u8g_dev_ssd1306_128x64.c ****     {
 285:u8glib/u8g_dev_ssd1306_128x64.c **** 	u8g_SetChipSelect(u8g, dev, 1);
 317              		.loc 1 285 0
 318 0088 0122     		movs	r2, #1
 319 008a FFF7FEFF 		bl	u8g_SetChipSelect
 320              	.LVL41:
 286:u8glib/u8g_dev_ssd1306_128x64.c **** 	u8g_SetAddress(u8g, dev, 0); /* instruction mode */
 321              		.loc 1 286 0
 322 008e 0022     		movs	r2, #0
 323 0090 2146     		mov	r1, r4
 324 0092 2846     		mov	r0, r5
 325 0094 FFF7FEFF 		bl	u8g_SetAddress
 326              	.LVL42:
 287:u8glib/u8g_dev_ssd1306_128x64.c **** 	u8g_WriteByte(u8g, dev, 0x81);
 327              		.loc 1 287 0
 328 0098 8122     		movs	r2, #129
 329 009a 2146     		mov	r1, r4
 330 009c 2846     		mov	r0, r5
 331 009e FFF7FEFF 		bl	u8g_WriteByte
 332              	.LVL43:
 288:u8glib/u8g_dev_ssd1306_128x64.c **** 	u8g_WriteByte(u8g, dev, *(uint8_t *) arg);
 333              		.loc 1 288 0
 334 00a2 3A78     		ldrb	r2, [r7]	@ zero_extendqisi2
 335 00a4 2146     		mov	r1, r4
 336 00a6 2846     		mov	r0, r5
 337 00a8 FFF7FEFF 		bl	u8g_WriteByte
 338              	.LVL44:
 289:u8glib/u8g_dev_ssd1306_128x64.c **** 	u8g_SetChipSelect(u8g, dev, 0);
 339              		.loc 1 289 0
 340 00ac 0022     		movs	r2, #0
 341 00ae 2146     		mov	r1, r4
ARM GAS  C:\Users\master\AppData\Local\Temp\cc0D1lSx.s 			page 12


 342 00b0 2846     		mov	r0, r5
 343 00b2 FFF7FEFF 		bl	u8g_SetChipSelect
 344              	.LVL45:
 290:u8glib/u8g_dev_ssd1306_128x64.c **** 	return 1;
 345              		.loc 1 290 0
 346 00b6 0123     		movs	r3, #1
 347 00b8 06E0     		b	.L21
 348              	.L14:
 291:u8glib/u8g_dev_ssd1306_128x64.c ****     }
 292:u8glib/u8g_dev_ssd1306_128x64.c ****   }
 293:u8glib/u8g_dev_ssd1306_128x64.c ****   return u8g_dev_pb8v1_base_fn(u8g, dev, msg, arg);
 349              		.loc 1 293 0
 350 00ba 3B46     		mov	r3, r7
 351 00bc 3246     		mov	r2, r6
 352 00be 2146     		mov	r1, r4
 353 00c0 2846     		mov	r0, r5
 354 00c2 FFF7FEFF 		bl	u8g_dev_pb8v1_base_fn
 355              	.LVL46:
 356 00c6 0346     		mov	r3, r0
 357              	.L21:
 294:u8glib/u8g_dev_ssd1306_128x64.c **** }
 358              		.loc 1 294 0
 359 00c8 1846     		mov	r0, r3
 360 00ca BDE8F081 		pop	{r4, r5, r6, r7, r8, pc}
 361              	.LVL47:
 362              	.L24:
 363 00ce 00BF     		.align	2
 364              	.L23:
 365 00d0 00000000 		.word	.LANCHOR4
 366 00d4 00000000 		.word	.LANCHOR1
 367 00d8 00000000 		.word	.LANCHOR2
 368 00dc 00000000 		.word	.LANCHOR3
 369              		.cfi_endproc
 370              	.LFE1:
 372              		.section	.text.u8g_dev_sh1106_128x64_fn,"ax",%progbits
 373              		.align	2
 374              		.global	u8g_dev_sh1106_128x64_fn
 375              		.thumb
 376              		.thumb_func
 378              	u8g_dev_sh1106_128x64_fn:
 379              	.LFB2:
 295:u8glib/u8g_dev_ssd1306_128x64.c **** 
 296:u8glib/u8g_dev_ssd1306_128x64.c **** uint8_t u8g_dev_sh1106_128x64_fn(u8g_t *u8g, u8g_dev_t *dev, uint8_t msg, void *arg)
 297:u8glib/u8g_dev_ssd1306_128x64.c **** {
 380              		.loc 1 297 0
 381              		.cfi_startproc
 382              		@ args = 0, pretend = 0, frame = 0
 383              		@ frame_needed = 0, uses_anonymous_args = 0
 384              	.LVL48:
 385 0000 2DE9F041 		push	{r4, r5, r6, r7, r8, lr}
 386              	.LCFI2:
 387              		.cfi_def_cfa_offset 24
 388              		.cfi_offset 4, -24
 389              		.cfi_offset 5, -20
 390              		.cfi_offset 6, -16
 391              		.cfi_offset 7, -12
 392              		.cfi_offset 8, -8
ARM GAS  C:\Users\master\AppData\Local\Temp\cc0D1lSx.s 			page 13


 393              		.cfi_offset 14, -4
 394 0004 0546     		mov	r5, r0
 395 0006 0C46     		mov	r4, r1
 396 0008 1646     		mov	r6, r2
 397 000a 1F46     		mov	r7, r3
 298:u8glib/u8g_dev_ssd1306_128x64.c ****   switch(msg)
 398              		.loc 1 298 0
 399 000c A2F10A03 		sub	r3, r2, #10
 400              	.LVL49:
 401 0010 0B2B     		cmp	r3, #11
 402 0012 52D8     		bhi	.L26
 403 0014 DFE803F0 		tbb	[pc, r3]
 404              	.LVL50:
 405              	.L28:
 406 0018 06       		.byte	(.L27-.L28)/2
 407 0019 51       		.byte	(.L26-.L28)/2
 408 001a 51       		.byte	(.L26-.L28)/2
 409 001b 51       		.byte	(.L26-.L28)/2
 410 001c 51       		.byte	(.L26-.L28)/2
 411 001d 38       		.byte	(.L29-.L28)/2
 412 001e 2E       		.byte	(.L30-.L28)/2
 413 001f 33       		.byte	(.L31-.L28)/2
 414 0020 51       		.byte	(.L26-.L28)/2
 415 0021 51       		.byte	(.L26-.L28)/2
 416 0022 51       		.byte	(.L26-.L28)/2
 417 0023 0F       		.byte	(.L32-.L28)/2
 418              		.p2align 1
 419              	.L27:
 299:u8glib/u8g_dev_ssd1306_128x64.c ****   {
 300:u8glib/u8g_dev_ssd1306_128x64.c ****     case U8G_DEV_MSG_INIT:
 301:u8glib/u8g_dev_ssd1306_128x64.c ****       u8g_InitCom(u8g, dev, U8G_SPI_CLK_CYCLE_300NS);
 420              		.loc 1 301 0
 421 0024 0222     		movs	r2, #2
 422 0026 FFF7FEFF 		bl	u8g_InitCom
 423              	.LVL51:
 302:u8glib/u8g_dev_ssd1306_128x64.c ****       u8g_WriteEscSeqP(u8g, dev, u8g_dev_ssd1306_128x64_init_seq);
 424              		.loc 1 302 0
 425 002a 294A     		ldr	r2, .L35
 426 002c 2146     		mov	r1, r4
 427 002e 2846     		mov	r0, r5
 428 0030 FFF7FEFF 		bl	u8g_WriteEscSeqP
 429              	.LVL52:
 303:u8glib/u8g_dev_ssd1306_128x64.c ****       break;
 430              		.loc 1 303 0
 431 0034 41E0     		b	.L26
 432              	.LVL53:
 433              	.L32:
 434              	.LBB4:
 304:u8glib/u8g_dev_ssd1306_128x64.c ****     case U8G_DEV_MSG_STOP:
 305:u8glib/u8g_dev_ssd1306_128x64.c ****       break;
 306:u8glib/u8g_dev_ssd1306_128x64.c ****     case U8G_DEV_MSG_PAGE_NEXT:
 307:u8glib/u8g_dev_ssd1306_128x64.c ****       {
 308:u8glib/u8g_dev_ssd1306_128x64.c ****         u8g_pb_t *pb = (u8g_pb_t *)(dev->dev_mem);
 435              		.loc 1 308 0
 436 0036 D1F80480 		ldr	r8, [r1, #4]
 437              	.LVL54:
 309:u8glib/u8g_dev_ssd1306_128x64.c ****         u8g_WriteEscSeqP(u8g, dev, u8g_dev_sh1106_128x64_data_start);    
ARM GAS  C:\Users\master\AppData\Local\Temp\cc0D1lSx.s 			page 14


 438              		.loc 1 309 0
 439 003a 264A     		ldr	r2, .L35+4
 440 003c FFF7FEFF 		bl	u8g_WriteEscSeqP
 441              	.LVL55:
 310:u8glib/u8g_dev_ssd1306_128x64.c ****         u8g_WriteByte(u8g, dev, 0x0b0 | pb->p.page); /* select current page (SSD1306) */
 442              		.loc 1 310 0
 443 0040 98F80420 		ldrb	r2, [r8, #4]	@ zero_extendqisi2
 444 0044 42F0B002 		orr	r2, r2, #176
 445 0048 2146     		mov	r1, r4
 446 004a 2846     		mov	r0, r5
 447 004c FFF7FEFF 		bl	u8g_WriteByte
 448              	.LVL56:
 311:u8glib/u8g_dev_ssd1306_128x64.c ****         u8g_SetAddress(u8g, dev, 1);           /* data mode */
 449              		.loc 1 311 0
 450 0050 0122     		movs	r2, #1
 451 0052 2146     		mov	r1, r4
 452 0054 2846     		mov	r0, r5
 453 0056 FFF7FEFF 		bl	u8g_SetAddress
 454              	.LVL57:
 312:u8glib/u8g_dev_ssd1306_128x64.c ****         if ( u8g_pb_WriteBuffer(pb, u8g, dev) == 0 )
 455              		.loc 1 312 0
 456 005a 2246     		mov	r2, r4
 457 005c 2946     		mov	r1, r5
 458 005e 4046     		mov	r0, r8
 459 0060 FFF7FEFF 		bl	u8g_pb_WriteBuffer
 460              	.LVL58:
 461 0064 0346     		mov	r3, r0
 462 0066 78B3     		cbz	r0, .L33
 313:u8glib/u8g_dev_ssd1306_128x64.c ****           return 0;
 314:u8glib/u8g_dev_ssd1306_128x64.c ****         u8g_SetChipSelect(u8g, dev, 0);
 463              		.loc 1 314 0
 464 0068 0022     		movs	r2, #0
 465 006a 2146     		mov	r1, r4
 466 006c 2846     		mov	r0, r5
 467 006e FFF7FEFF 		bl	u8g_SetChipSelect
 468              	.LVL59:
 469              	.LBE4:
 315:u8glib/u8g_dev_ssd1306_128x64.c ****       }
 316:u8glib/u8g_dev_ssd1306_128x64.c ****       break;
 470              		.loc 1 316 0
 471 0072 22E0     		b	.L26
 472              	.LVL60:
 473              	.L30:
 317:u8glib/u8g_dev_ssd1306_128x64.c ****     case U8G_DEV_MSG_SLEEP_ON:
 318:u8glib/u8g_dev_ssd1306_128x64.c ****       u8g_WriteEscSeqP(u8g, dev, u8g_dev_ssd13xx_sleep_on);    
 474              		.loc 1 318 0
 475 0074 184A     		ldr	r2, .L35+8
 476 0076 FFF7FEFF 		bl	u8g_WriteEscSeqP
 477              	.LVL61:
 319:u8glib/u8g_dev_ssd1306_128x64.c ****       return 1;
 478              		.loc 1 319 0
 479 007a 0123     		movs	r3, #1
 480 007c 24E0     		b	.L33
 481              	.LVL62:
 482              	.L31:
 320:u8glib/u8g_dev_ssd1306_128x64.c ****     case U8G_DEV_MSG_SLEEP_OFF:
 321:u8glib/u8g_dev_ssd1306_128x64.c ****       u8g_WriteEscSeqP(u8g, dev, u8g_dev_ssd13xx_sleep_off);    
ARM GAS  C:\Users\master\AppData\Local\Temp\cc0D1lSx.s 			page 15


 483              		.loc 1 321 0
 484 007e 174A     		ldr	r2, .L35+12
 485 0080 FFF7FEFF 		bl	u8g_WriteEscSeqP
 486              	.LVL63:
 322:u8glib/u8g_dev_ssd1306_128x64.c ****       return 1;
 487              		.loc 1 322 0
 488 0084 0123     		movs	r3, #1
 489 0086 1FE0     		b	.L33
 490              	.LVL64:
 491              	.L29:
 323:u8glib/u8g_dev_ssd1306_128x64.c ****     case U8G_DEV_MSG_CONTRAST:
 324:u8glib/u8g_dev_ssd1306_128x64.c ****     {
 325:u8glib/u8g_dev_ssd1306_128x64.c **** 	u8g_SetChipSelect(u8g, dev, 1);
 492              		.loc 1 325 0
 493 0088 0122     		movs	r2, #1
 494 008a FFF7FEFF 		bl	u8g_SetChipSelect
 495              	.LVL65:
 326:u8glib/u8g_dev_ssd1306_128x64.c **** 	u8g_SetAddress(u8g, dev, 0); /* instruction mode */
 496              		.loc 1 326 0
 497 008e 0022     		movs	r2, #0
 498 0090 2146     		mov	r1, r4
 499 0092 2846     		mov	r0, r5
 500 0094 FFF7FEFF 		bl	u8g_SetAddress
 501              	.LVL66:
 327:u8glib/u8g_dev_ssd1306_128x64.c **** 	u8g_WriteByte(u8g, dev, 0x81);
 502              		.loc 1 327 0
 503 0098 8122     		movs	r2, #129
 504 009a 2146     		mov	r1, r4
 505 009c 2846     		mov	r0, r5
 506 009e FFF7FEFF 		bl	u8g_WriteByte
 507              	.LVL67:
 328:u8glib/u8g_dev_ssd1306_128x64.c **** 	u8g_WriteByte(u8g, dev, *(uint8_t *) arg);
 508              		.loc 1 328 0
 509 00a2 3A78     		ldrb	r2, [r7]	@ zero_extendqisi2
 510 00a4 2146     		mov	r1, r4
 511 00a6 2846     		mov	r0, r5
 512 00a8 FFF7FEFF 		bl	u8g_WriteByte
 513              	.LVL68:
 329:u8glib/u8g_dev_ssd1306_128x64.c **** 	u8g_SetChipSelect(u8g, dev, 0);
 514              		.loc 1 329 0
 515 00ac 0022     		movs	r2, #0
 516 00ae 2146     		mov	r1, r4
 517 00b0 2846     		mov	r0, r5
 518 00b2 FFF7FEFF 		bl	u8g_SetChipSelect
 519              	.LVL69:
 330:u8glib/u8g_dev_ssd1306_128x64.c **** 	return 1;
 520              		.loc 1 330 0
 521 00b6 0123     		movs	r3, #1
 522 00b8 06E0     		b	.L33
 523              	.L26:
 331:u8glib/u8g_dev_ssd1306_128x64.c ****     }
 332:u8glib/u8g_dev_ssd1306_128x64.c ****   }
 333:u8glib/u8g_dev_ssd1306_128x64.c ****   return u8g_dev_pb8v1_base_fn(u8g, dev, msg, arg);
 524              		.loc 1 333 0
 525 00ba 3B46     		mov	r3, r7
 526 00bc 3246     		mov	r2, r6
 527 00be 2146     		mov	r1, r4
ARM GAS  C:\Users\master\AppData\Local\Temp\cc0D1lSx.s 			page 16


 528 00c0 2846     		mov	r0, r5
 529 00c2 FFF7FEFF 		bl	u8g_dev_pb8v1_base_fn
 530              	.LVL70:
 531 00c6 0346     		mov	r3, r0
 532              	.L33:
 334:u8glib/u8g_dev_ssd1306_128x64.c **** }
 533              		.loc 1 334 0
 534 00c8 1846     		mov	r0, r3
 535 00ca BDE8F081 		pop	{r4, r5, r6, r7, r8, pc}
 536              	.LVL71:
 537              	.L36:
 538 00ce 00BF     		.align	2
 539              	.L35:
 540 00d0 00000000 		.word	.LANCHOR4
 541 00d4 00000000 		.word	.LANCHOR5
 542 00d8 00000000 		.word	.LANCHOR2
 543 00dc 00000000 		.word	.LANCHOR3
 544              		.cfi_endproc
 545              	.LFE2:
 547              		.section	.text.u8g_dev_ssd1306_128x64_2x_fn,"ax",%progbits
 548              		.align	2
 549              		.global	u8g_dev_ssd1306_128x64_2x_fn
 550              		.thumb
 551              		.thumb_func
 553              	u8g_dev_ssd1306_128x64_2x_fn:
 554              	.LFB3:
 335:u8glib/u8g_dev_ssd1306_128x64.c **** 
 336:u8glib/u8g_dev_ssd1306_128x64.c **** 
 337:u8glib/u8g_dev_ssd1306_128x64.c **** uint8_t u8g_dev_ssd1306_128x64_2x_fn(u8g_t *u8g, u8g_dev_t *dev, uint8_t msg, void *arg)
 338:u8glib/u8g_dev_ssd1306_128x64.c **** {
 555              		.loc 1 338 0
 556              		.cfi_startproc
 557              		@ args = 0, pretend = 0, frame = 0
 558              		@ frame_needed = 0, uses_anonymous_args = 0
 559              	.LVL72:
 560 0000 2DE9F843 		push	{r3, r4, r5, r6, r7, r8, r9, lr}
 561              	.LCFI3:
 562              		.cfi_def_cfa_offset 32
 563              		.cfi_offset 3, -32
 564              		.cfi_offset 4, -28
 565              		.cfi_offset 5, -24
 566              		.cfi_offset 6, -20
 567              		.cfi_offset 7, -16
 568              		.cfi_offset 8, -12
 569              		.cfi_offset 9, -8
 570              		.cfi_offset 14, -4
 571 0004 0546     		mov	r5, r0
 572 0006 0C46     		mov	r4, r1
 573 0008 1646     		mov	r6, r2
 574 000a 1F46     		mov	r7, r3
 339:u8glib/u8g_dev_ssd1306_128x64.c ****   switch(msg)
 575              		.loc 1 339 0
 576 000c A2F10A03 		sub	r3, r2, #10
 577              	.LVL73:
 578 0010 0B2B     		cmp	r3, #11
 579 0012 7ED8     		bhi	.L38
 580 0014 DFE803F0 		tbb	[pc, r3]
ARM GAS  C:\Users\master\AppData\Local\Temp\cc0D1lSx.s 			page 17


 581              	.LVL74:
 582              	.L40:
 583 0018 06       		.byte	(.L39-.L40)/2
 584 0019 7D       		.byte	(.L38-.L40)/2
 585 001a 7D       		.byte	(.L38-.L40)/2
 586 001b 7D       		.byte	(.L38-.L40)/2
 587 001c 7D       		.byte	(.L38-.L40)/2
 588 001d 63       		.byte	(.L41-.L40)/2
 589 001e 57       		.byte	(.L42-.L40)/2
 590 001f 5D       		.byte	(.L43-.L40)/2
 591 0020 7D       		.byte	(.L38-.L40)/2
 592 0021 7D       		.byte	(.L38-.L40)/2
 593 0022 7D       		.byte	(.L38-.L40)/2
 594 0023 0F       		.byte	(.L44-.L40)/2
 595              		.p2align 1
 596              	.L39:
 340:u8glib/u8g_dev_ssd1306_128x64.c ****   {
 341:u8glib/u8g_dev_ssd1306_128x64.c ****     case U8G_DEV_MSG_INIT:
 342:u8glib/u8g_dev_ssd1306_128x64.c ****       u8g_InitCom(u8g, dev, U8G_SPI_CLK_CYCLE_300NS);
 597              		.loc 1 342 0
 598 0024 0222     		movs	r2, #2
 599 0026 FFF7FEFF 		bl	u8g_InitCom
 600              	.LVL75:
 343:u8glib/u8g_dev_ssd1306_128x64.c ****       u8g_WriteEscSeqP(u8g, dev, u8g_dev_ssd1306_128x64_init_seq);
 601              		.loc 1 343 0
 602 002a 3E4A     		ldr	r2, .L47
 603 002c 2146     		mov	r1, r4
 604 002e 2846     		mov	r0, r5
 605 0030 FFF7FEFF 		bl	u8g_WriteEscSeqP
 606              	.LVL76:
 344:u8glib/u8g_dev_ssd1306_128x64.c ****       break;
 607              		.loc 1 344 0
 608 0034 6DE0     		b	.L38
 609              	.LVL77:
 610              	.L44:
 611              	.LBB5:
 345:u8glib/u8g_dev_ssd1306_128x64.c ****     case U8G_DEV_MSG_STOP:
 346:u8glib/u8g_dev_ssd1306_128x64.c ****       break;
 347:u8glib/u8g_dev_ssd1306_128x64.c ****     case U8G_DEV_MSG_PAGE_NEXT:
 348:u8glib/u8g_dev_ssd1306_128x64.c ****       {
 349:u8glib/u8g_dev_ssd1306_128x64.c ****         u8g_pb_t *pb = (u8g_pb_t *)(dev->dev_mem);
 612              		.loc 1 349 0
 613 0036 D1F80480 		ldr	r8, [r1, #4]
 614              	.LVL78:
 350:u8glib/u8g_dev_ssd1306_128x64.c **** 	
 351:u8glib/u8g_dev_ssd1306_128x64.c ****         u8g_WriteEscSeqP(u8g, dev, u8g_dev_ssd1306_128x64_data_start);    
 615              		.loc 1 351 0
 616 003a DFF8F490 		ldr	r9, .L47+12
 617 003e 4A46     		mov	r2, r9
 618 0040 FFF7FEFF 		bl	u8g_WriteEscSeqP
 619              	.LVL79:
 352:u8glib/u8g_dev_ssd1306_128x64.c ****         u8g_WriteByte(u8g, dev, 0x0b0 | (pb->p.page*2)); /* select current page (SSD1306) */
 620              		.loc 1 352 0
 621 0044 98F80420 		ldrb	r2, [r8, #4]	@ zero_extendqisi2
 622 0048 5200     		lsls	r2, r2, #1
 623 004a 62F04F02 		orn	r2, r2, #79
 624 004e 02F0FE02 		and	r2, r2, #254
ARM GAS  C:\Users\master\AppData\Local\Temp\cc0D1lSx.s 			page 18


 625 0052 2146     		mov	r1, r4
 626 0054 2846     		mov	r0, r5
 627 0056 FFF7FEFF 		bl	u8g_WriteByte
 628              	.LVL80:
 353:u8glib/u8g_dev_ssd1306_128x64.c ****         u8g_SetAddress(u8g, dev, 1);           /* data mode */
 629              		.loc 1 353 0
 630 005a 0122     		movs	r2, #1
 631 005c 2146     		mov	r1, r4
 632 005e 2846     		mov	r0, r5
 633 0060 FFF7FEFF 		bl	u8g_SetAddress
 634              	.LVL81:
 354:u8glib/u8g_dev_ssd1306_128x64.c **** 	u8g_WriteSequence(u8g, dev, pb->width, pb->buf); 
 635              		.loc 1 354 0
 636 0064 D8F80830 		ldr	r3, [r8, #8]
 637 0068 98F80520 		ldrb	r2, [r8, #5]	@ zero_extendqisi2
 638 006c 2146     		mov	r1, r4
 639 006e 2846     		mov	r0, r5
 640 0070 FFF7FEFF 		bl	u8g_WriteSequence
 641              	.LVL82:
 355:u8glib/u8g_dev_ssd1306_128x64.c ****         u8g_SetChipSelect(u8g, dev, 0);
 642              		.loc 1 355 0
 643 0074 0022     		movs	r2, #0
 644 0076 2146     		mov	r1, r4
 645 0078 2846     		mov	r0, r5
 646 007a FFF7FEFF 		bl	u8g_SetChipSelect
 647              	.LVL83:
 356:u8glib/u8g_dev_ssd1306_128x64.c **** 	
 357:u8glib/u8g_dev_ssd1306_128x64.c ****         u8g_WriteEscSeqP(u8g, dev, u8g_dev_ssd1306_128x64_data_start);    
 648              		.loc 1 357 0
 649 007e 4A46     		mov	r2, r9
 650 0080 2146     		mov	r1, r4
 651 0082 2846     		mov	r0, r5
 652 0084 FFF7FEFF 		bl	u8g_WriteEscSeqP
 653              	.LVL84:
 358:u8glib/u8g_dev_ssd1306_128x64.c ****         u8g_WriteByte(u8g, dev, 0x0b0 | (pb->p.page*2+1)); /* select current page (SSD1306) */
 654              		.loc 1 358 0
 655 0088 98F80420 		ldrb	r2, [r8, #4]	@ zero_extendqisi2
 656 008c 5200     		lsls	r2, r2, #1
 657 008e 0132     		adds	r2, r2, #1
 658 0090 62F04F02 		orn	r2, r2, #79
 659 0094 D2B2     		uxtb	r2, r2
 660 0096 2146     		mov	r1, r4
 661 0098 2846     		mov	r0, r5
 662 009a FFF7FEFF 		bl	u8g_WriteByte
 663              	.LVL85:
 359:u8glib/u8g_dev_ssd1306_128x64.c ****         u8g_SetAddress(u8g, dev, 1);           /* data mode */
 664              		.loc 1 359 0
 665 009e 0122     		movs	r2, #1
 666 00a0 2146     		mov	r1, r4
 667 00a2 2846     		mov	r0, r5
 668 00a4 FFF7FEFF 		bl	u8g_SetAddress
 669              	.LVL86:
 360:u8glib/u8g_dev_ssd1306_128x64.c **** 	u8g_WriteSequence(u8g, dev, pb->width, (uint8_t *)(pb->buf)+pb->width); 
 670              		.loc 1 360 0
 671 00a8 D8F80830 		ldr	r3, [r8, #8]
 672 00ac 98F80520 		ldrb	r2, [r8, #5]	@ zero_extendqisi2
 673 00b0 1344     		add	r3, r3, r2
ARM GAS  C:\Users\master\AppData\Local\Temp\cc0D1lSx.s 			page 19


 674 00b2 2146     		mov	r1, r4
 675 00b4 2846     		mov	r0, r5
 676 00b6 FFF7FEFF 		bl	u8g_WriteSequence
 677              	.LVL87:
 361:u8glib/u8g_dev_ssd1306_128x64.c ****         u8g_SetChipSelect(u8g, dev, 0);
 678              		.loc 1 361 0
 679 00ba 0022     		movs	r2, #0
 680 00bc 2146     		mov	r1, r4
 681 00be 2846     		mov	r0, r5
 682 00c0 FFF7FEFF 		bl	u8g_SetChipSelect
 683              	.LVL88:
 684              	.LBE5:
 362:u8glib/u8g_dev_ssd1306_128x64.c ****       }
 363:u8glib/u8g_dev_ssd1306_128x64.c ****       break;
 685              		.loc 1 363 0
 686 00c4 25E0     		b	.L38
 687              	.LVL89:
 688              	.L42:
 364:u8glib/u8g_dev_ssd1306_128x64.c ****     case U8G_DEV_MSG_SLEEP_ON:
 365:u8glib/u8g_dev_ssd1306_128x64.c ****       u8g_WriteEscSeqP(u8g, dev, u8g_dev_ssd13xx_sleep_on);    
 689              		.loc 1 365 0
 690 00c6 184A     		ldr	r2, .L47+4
 691 00c8 FFF7FEFF 		bl	u8g_WriteEscSeqP
 692              	.LVL90:
 366:u8glib/u8g_dev_ssd1306_128x64.c ****       return 1;
 693              		.loc 1 366 0
 694 00cc 0120     		movs	r0, #1
 695 00ce BDE8F883 		pop	{r3, r4, r5, r6, r7, r8, r9, pc}
 696              	.LVL91:
 697              	.L43:
 367:u8glib/u8g_dev_ssd1306_128x64.c ****     case U8G_DEV_MSG_SLEEP_OFF:
 368:u8glib/u8g_dev_ssd1306_128x64.c ****       u8g_WriteEscSeqP(u8g, dev, u8g_dev_ssd13xx_sleep_off);    
 698              		.loc 1 368 0
 699 00d2 164A     		ldr	r2, .L47+8
 700 00d4 FFF7FEFF 		bl	u8g_WriteEscSeqP
 701              	.LVL92:
 369:u8glib/u8g_dev_ssd1306_128x64.c ****       return 1;
 702              		.loc 1 369 0
 703 00d8 0120     		movs	r0, #1
 704 00da BDE8F883 		pop	{r3, r4, r5, r6, r7, r8, r9, pc}
 705              	.LVL93:
 706              	.L41:
 370:u8glib/u8g_dev_ssd1306_128x64.c ****     case U8G_DEV_MSG_CONTRAST:
 371:u8glib/u8g_dev_ssd1306_128x64.c ****     {
 372:u8glib/u8g_dev_ssd1306_128x64.c **** 	u8g_SetChipSelect(u8g, dev, 1);
 707              		.loc 1 372 0
 708 00de 0122     		movs	r2, #1
 709 00e0 FFF7FEFF 		bl	u8g_SetChipSelect
 710              	.LVL94:
 373:u8glib/u8g_dev_ssd1306_128x64.c **** 	u8g_SetAddress(u8g, dev, 0); /* instruction mode */
 711              		.loc 1 373 0
 712 00e4 0022     		movs	r2, #0
 713 00e6 2146     		mov	r1, r4
 714 00e8 2846     		mov	r0, r5
 715 00ea FFF7FEFF 		bl	u8g_SetAddress
 716              	.LVL95:
 374:u8glib/u8g_dev_ssd1306_128x64.c **** 	u8g_WriteByte(u8g, dev, 0x81);
ARM GAS  C:\Users\master\AppData\Local\Temp\cc0D1lSx.s 			page 20


 717              		.loc 1 374 0
 718 00ee 8122     		movs	r2, #129
 719 00f0 2146     		mov	r1, r4
 720 00f2 2846     		mov	r0, r5
 721 00f4 FFF7FEFF 		bl	u8g_WriteByte
 722              	.LVL96:
 375:u8glib/u8g_dev_ssd1306_128x64.c **** 	u8g_WriteByte(u8g, dev, *(uint8_t *) arg);
 723              		.loc 1 375 0
 724 00f8 3A78     		ldrb	r2, [r7]	@ zero_extendqisi2
 725 00fa 2146     		mov	r1, r4
 726 00fc 2846     		mov	r0, r5
 727 00fe FFF7FEFF 		bl	u8g_WriteByte
 728              	.LVL97:
 376:u8glib/u8g_dev_ssd1306_128x64.c **** 	u8g_SetChipSelect(u8g, dev, 0);
 729              		.loc 1 376 0
 730 0102 0022     		movs	r2, #0
 731 0104 2146     		mov	r1, r4
 732 0106 2846     		mov	r0, r5
 733 0108 FFF7FEFF 		bl	u8g_SetChipSelect
 734              	.LVL98:
 377:u8glib/u8g_dev_ssd1306_128x64.c **** 	return 1;
 735              		.loc 1 377 0
 736 010c 0120     		movs	r0, #1
 737 010e BDE8F883 		pop	{r3, r4, r5, r6, r7, r8, r9, pc}
 738              	.LVL99:
 739              	.L38:
 378:u8glib/u8g_dev_ssd1306_128x64.c ****     }
 379:u8glib/u8g_dev_ssd1306_128x64.c ****   }
 380:u8glib/u8g_dev_ssd1306_128x64.c ****   return u8g_dev_pb16v1_base_fn(u8g, dev, msg, arg);
 740              		.loc 1 380 0
 741 0112 3B46     		mov	r3, r7
 742 0114 3246     		mov	r2, r6
 743 0116 2146     		mov	r1, r4
 744 0118 2846     		mov	r0, r5
 745 011a FFF7FEFF 		bl	u8g_dev_pb16v1_base_fn
 746              	.LVL100:
 381:u8glib/u8g_dev_ssd1306_128x64.c **** }
 747              		.loc 1 381 0
 748 011e BDE8F883 		pop	{r3, r4, r5, r6, r7, r8, r9, pc}
 749              	.LVL101:
 750              	.L48:
 751 0122 00BF     		.align	2
 752              	.L47:
 753 0124 00000000 		.word	.LANCHOR4
 754 0128 00000000 		.word	.LANCHOR2
 755 012c 00000000 		.word	.LANCHOR3
 756 0130 00000000 		.word	.LANCHOR1
 757              		.cfi_endproc
 758              	.LFE3:
 760              		.section	.text.u8g_dev_sh1106_128x64_2x_fn,"ax",%progbits
 761              		.align	2
 762              		.global	u8g_dev_sh1106_128x64_2x_fn
 763              		.thumb
 764              		.thumb_func
 766              	u8g_dev_sh1106_128x64_2x_fn:
 767              	.LFB4:
 382:u8glib/u8g_dev_ssd1306_128x64.c **** 
ARM GAS  C:\Users\master\AppData\Local\Temp\cc0D1lSx.s 			page 21


 383:u8glib/u8g_dev_ssd1306_128x64.c **** uint8_t u8g_dev_sh1106_128x64_2x_fn(u8g_t *u8g, u8g_dev_t *dev, uint8_t msg, void *arg)
 384:u8glib/u8g_dev_ssd1306_128x64.c **** {
 768              		.loc 1 384 0
 769              		.cfi_startproc
 770              		@ args = 0, pretend = 0, frame = 0
 771              		@ frame_needed = 0, uses_anonymous_args = 0
 772              	.LVL102:
 773 0000 2DE9F843 		push	{r3, r4, r5, r6, r7, r8, r9, lr}
 774              	.LCFI4:
 775              		.cfi_def_cfa_offset 32
 776              		.cfi_offset 3, -32
 777              		.cfi_offset 4, -28
 778              		.cfi_offset 5, -24
 779              		.cfi_offset 6, -20
 780              		.cfi_offset 7, -16
 781              		.cfi_offset 8, -12
 782              		.cfi_offset 9, -8
 783              		.cfi_offset 14, -4
 784 0004 0546     		mov	r5, r0
 785 0006 0C46     		mov	r4, r1
 786 0008 1646     		mov	r6, r2
 787 000a 1F46     		mov	r7, r3
 385:u8glib/u8g_dev_ssd1306_128x64.c ****   switch(msg)
 788              		.loc 1 385 0
 789 000c A2F10A03 		sub	r3, r2, #10
 790              	.LVL103:
 791 0010 0B2B     		cmp	r3, #11
 792 0012 7ED8     		bhi	.L50
 793 0014 DFE803F0 		tbb	[pc, r3]
 794              	.LVL104:
 795              	.L52:
 796 0018 06       		.byte	(.L51-.L52)/2
 797 0019 7D       		.byte	(.L50-.L52)/2
 798 001a 7D       		.byte	(.L50-.L52)/2
 799 001b 7D       		.byte	(.L50-.L52)/2
 800 001c 7D       		.byte	(.L50-.L52)/2
 801 001d 63       		.byte	(.L53-.L52)/2
 802 001e 57       		.byte	(.L54-.L52)/2
 803 001f 5D       		.byte	(.L55-.L52)/2
 804 0020 7D       		.byte	(.L50-.L52)/2
 805 0021 7D       		.byte	(.L50-.L52)/2
 806 0022 7D       		.byte	(.L50-.L52)/2
 807 0023 0F       		.byte	(.L56-.L52)/2
 808              		.p2align 1
 809              	.L51:
 386:u8glib/u8g_dev_ssd1306_128x64.c ****   {
 387:u8glib/u8g_dev_ssd1306_128x64.c ****     case U8G_DEV_MSG_INIT:
 388:u8glib/u8g_dev_ssd1306_128x64.c ****       u8g_InitCom(u8g, dev, U8G_SPI_CLK_CYCLE_300NS);
 810              		.loc 1 388 0
 811 0024 0222     		movs	r2, #2
 812 0026 FFF7FEFF 		bl	u8g_InitCom
 813              	.LVL105:
 389:u8glib/u8g_dev_ssd1306_128x64.c ****       u8g_WriteEscSeqP(u8g, dev, u8g_dev_ssd1306_128x64_init_seq);
 814              		.loc 1 389 0
 815 002a 3E4A     		ldr	r2, .L59
 816 002c 2146     		mov	r1, r4
 817 002e 2846     		mov	r0, r5
ARM GAS  C:\Users\master\AppData\Local\Temp\cc0D1lSx.s 			page 22


 818 0030 FFF7FEFF 		bl	u8g_WriteEscSeqP
 819              	.LVL106:
 390:u8glib/u8g_dev_ssd1306_128x64.c ****       break;
 820              		.loc 1 390 0
 821 0034 6DE0     		b	.L50
 822              	.LVL107:
 823              	.L56:
 824              	.LBB6:
 391:u8glib/u8g_dev_ssd1306_128x64.c ****     case U8G_DEV_MSG_STOP:
 392:u8glib/u8g_dev_ssd1306_128x64.c ****       break;
 393:u8glib/u8g_dev_ssd1306_128x64.c ****     case U8G_DEV_MSG_PAGE_NEXT:
 394:u8glib/u8g_dev_ssd1306_128x64.c ****       {
 395:u8glib/u8g_dev_ssd1306_128x64.c ****         u8g_pb_t *pb = (u8g_pb_t *)(dev->dev_mem);
 825              		.loc 1 395 0
 826 0036 D1F80480 		ldr	r8, [r1, #4]
 827              	.LVL108:
 396:u8glib/u8g_dev_ssd1306_128x64.c **** 	
 397:u8glib/u8g_dev_ssd1306_128x64.c ****         u8g_WriteEscSeqP(u8g, dev, u8g_dev_sh1106_128x64_data_start);    
 828              		.loc 1 397 0
 829 003a DFF8F490 		ldr	r9, .L59+12
 830 003e 4A46     		mov	r2, r9
 831 0040 FFF7FEFF 		bl	u8g_WriteEscSeqP
 832              	.LVL109:
 398:u8glib/u8g_dev_ssd1306_128x64.c ****         u8g_WriteByte(u8g, dev, 0x0b0 | (pb->p.page*2)); /* select current page (SSD1306) */
 833              		.loc 1 398 0
 834 0044 98F80420 		ldrb	r2, [r8, #4]	@ zero_extendqisi2
 835 0048 5200     		lsls	r2, r2, #1
 836 004a 62F04F02 		orn	r2, r2, #79
 837 004e 02F0FE02 		and	r2, r2, #254
 838 0052 2146     		mov	r1, r4
 839 0054 2846     		mov	r0, r5
 840 0056 FFF7FEFF 		bl	u8g_WriteByte
 841              	.LVL110:
 399:u8glib/u8g_dev_ssd1306_128x64.c ****         u8g_SetAddress(u8g, dev, 1);           /* data mode */
 842              		.loc 1 399 0
 843 005a 0122     		movs	r2, #1
 844 005c 2146     		mov	r1, r4
 845 005e 2846     		mov	r0, r5
 846 0060 FFF7FEFF 		bl	u8g_SetAddress
 847              	.LVL111:
 400:u8glib/u8g_dev_ssd1306_128x64.c **** 	u8g_WriteSequence(u8g, dev, pb->width, pb->buf); 
 848              		.loc 1 400 0
 849 0064 D8F80830 		ldr	r3, [r8, #8]
 850 0068 98F80520 		ldrb	r2, [r8, #5]	@ zero_extendqisi2
 851 006c 2146     		mov	r1, r4
 852 006e 2846     		mov	r0, r5
 853 0070 FFF7FEFF 		bl	u8g_WriteSequence
 854              	.LVL112:
 401:u8glib/u8g_dev_ssd1306_128x64.c ****         u8g_SetChipSelect(u8g, dev, 0);
 855              		.loc 1 401 0
 856 0074 0022     		movs	r2, #0
 857 0076 2146     		mov	r1, r4
 858 0078 2846     		mov	r0, r5
 859 007a FFF7FEFF 		bl	u8g_SetChipSelect
 860              	.LVL113:
 402:u8glib/u8g_dev_ssd1306_128x64.c **** 	
 403:u8glib/u8g_dev_ssd1306_128x64.c ****         u8g_WriteEscSeqP(u8g, dev, u8g_dev_sh1106_128x64_data_start);    
ARM GAS  C:\Users\master\AppData\Local\Temp\cc0D1lSx.s 			page 23


 861              		.loc 1 403 0
 862 007e 4A46     		mov	r2, r9
 863 0080 2146     		mov	r1, r4
 864 0082 2846     		mov	r0, r5
 865 0084 FFF7FEFF 		bl	u8g_WriteEscSeqP
 866              	.LVL114:
 404:u8glib/u8g_dev_ssd1306_128x64.c ****         u8g_WriteByte(u8g, dev, 0x0b0 | (pb->p.page*2+1)); /* select current page (SSD1306) */
 867              		.loc 1 404 0
 868 0088 98F80420 		ldrb	r2, [r8, #4]	@ zero_extendqisi2
 869 008c 5200     		lsls	r2, r2, #1
 870 008e 0132     		adds	r2, r2, #1
 871 0090 62F04F02 		orn	r2, r2, #79
 872 0094 D2B2     		uxtb	r2, r2
 873 0096 2146     		mov	r1, r4
 874 0098 2846     		mov	r0, r5
 875 009a FFF7FEFF 		bl	u8g_WriteByte
 876              	.LVL115:
 405:u8glib/u8g_dev_ssd1306_128x64.c ****         u8g_SetAddress(u8g, dev, 1);           /* data mode */
 877              		.loc 1 405 0
 878 009e 0122     		movs	r2, #1
 879 00a0 2146     		mov	r1, r4
 880 00a2 2846     		mov	r0, r5
 881 00a4 FFF7FEFF 		bl	u8g_SetAddress
 882              	.LVL116:
 406:u8glib/u8g_dev_ssd1306_128x64.c **** 	u8g_WriteSequence(u8g, dev, pb->width, (uint8_t *)(pb->buf)+pb->width); 
 883              		.loc 1 406 0
 884 00a8 D8F80830 		ldr	r3, [r8, #8]
 885 00ac 98F80520 		ldrb	r2, [r8, #5]	@ zero_extendqisi2
 886 00b0 1344     		add	r3, r3, r2
 887 00b2 2146     		mov	r1, r4
 888 00b4 2846     		mov	r0, r5
 889 00b6 FFF7FEFF 		bl	u8g_WriteSequence
 890              	.LVL117:
 407:u8glib/u8g_dev_ssd1306_128x64.c ****         u8g_SetChipSelect(u8g, dev, 0);
 891              		.loc 1 407 0
 892 00ba 0022     		movs	r2, #0
 893 00bc 2146     		mov	r1, r4
 894 00be 2846     		mov	r0, r5
 895 00c0 FFF7FEFF 		bl	u8g_SetChipSelect
 896              	.LVL118:
 897              	.LBE6:
 408:u8glib/u8g_dev_ssd1306_128x64.c ****       }
 409:u8glib/u8g_dev_ssd1306_128x64.c ****       break;
 898              		.loc 1 409 0
 899 00c4 25E0     		b	.L50
 900              	.LVL119:
 901              	.L54:
 410:u8glib/u8g_dev_ssd1306_128x64.c ****     case U8G_DEV_MSG_SLEEP_ON:
 411:u8glib/u8g_dev_ssd1306_128x64.c ****       u8g_WriteEscSeqP(u8g, dev, u8g_dev_ssd13xx_sleep_on);    
 902              		.loc 1 411 0
 903 00c6 184A     		ldr	r2, .L59+4
 904 00c8 FFF7FEFF 		bl	u8g_WriteEscSeqP
 905              	.LVL120:
 412:u8glib/u8g_dev_ssd1306_128x64.c ****       return 1;
 906              		.loc 1 412 0
 907 00cc 0120     		movs	r0, #1
 908 00ce BDE8F883 		pop	{r3, r4, r5, r6, r7, r8, r9, pc}
ARM GAS  C:\Users\master\AppData\Local\Temp\cc0D1lSx.s 			page 24


 909              	.LVL121:
 910              	.L55:
 413:u8glib/u8g_dev_ssd1306_128x64.c ****     case U8G_DEV_MSG_SLEEP_OFF:
 414:u8glib/u8g_dev_ssd1306_128x64.c ****       u8g_WriteEscSeqP(u8g, dev, u8g_dev_ssd13xx_sleep_off);    
 911              		.loc 1 414 0
 912 00d2 164A     		ldr	r2, .L59+8
 913 00d4 FFF7FEFF 		bl	u8g_WriteEscSeqP
 914              	.LVL122:
 415:u8glib/u8g_dev_ssd1306_128x64.c ****       return 1;
 915              		.loc 1 415 0
 916 00d8 0120     		movs	r0, #1
 917 00da BDE8F883 		pop	{r3, r4, r5, r6, r7, r8, r9, pc}
 918              	.LVL123:
 919              	.L53:
 416:u8glib/u8g_dev_ssd1306_128x64.c ****     case U8G_DEV_MSG_CONTRAST:
 417:u8glib/u8g_dev_ssd1306_128x64.c ****     {
 418:u8glib/u8g_dev_ssd1306_128x64.c **** 	u8g_SetChipSelect(u8g, dev, 1);
 920              		.loc 1 418 0
 921 00de 0122     		movs	r2, #1
 922 00e0 FFF7FEFF 		bl	u8g_SetChipSelect
 923              	.LVL124:
 419:u8glib/u8g_dev_ssd1306_128x64.c **** 	u8g_SetAddress(u8g, dev, 0); /* instruction mode */
 924              		.loc 1 419 0
 925 00e4 0022     		movs	r2, #0
 926 00e6 2146     		mov	r1, r4
 927 00e8 2846     		mov	r0, r5
 928 00ea FFF7FEFF 		bl	u8g_SetAddress
 929              	.LVL125:
 420:u8glib/u8g_dev_ssd1306_128x64.c **** 	u8g_WriteByte(u8g, dev, 0x81);
 930              		.loc 1 420 0
 931 00ee 8122     		movs	r2, #129
 932 00f0 2146     		mov	r1, r4
 933 00f2 2846     		mov	r0, r5
 934 00f4 FFF7FEFF 		bl	u8g_WriteByte
 935              	.LVL126:
 421:u8glib/u8g_dev_ssd1306_128x64.c **** 	u8g_WriteByte(u8g, dev, *(uint8_t *) arg);
 936              		.loc 1 421 0
 937 00f8 3A78     		ldrb	r2, [r7]	@ zero_extendqisi2
 938 00fa 2146     		mov	r1, r4
 939 00fc 2846     		mov	r0, r5
 940 00fe FFF7FEFF 		bl	u8g_WriteByte
 941              	.LVL127:
 422:u8glib/u8g_dev_ssd1306_128x64.c **** 	u8g_SetChipSelect(u8g, dev, 0);
 942              		.loc 1 422 0
 943 0102 0022     		movs	r2, #0
 944 0104 2146     		mov	r1, r4
 945 0106 2846     		mov	r0, r5
 946 0108 FFF7FEFF 		bl	u8g_SetChipSelect
 947              	.LVL128:
 423:u8glib/u8g_dev_ssd1306_128x64.c **** 	return 1;
 948              		.loc 1 423 0
 949 010c 0120     		movs	r0, #1
 950 010e BDE8F883 		pop	{r3, r4, r5, r6, r7, r8, r9, pc}
 951              	.LVL129:
 952              	.L50:
 424:u8glib/u8g_dev_ssd1306_128x64.c ****     }
 425:u8glib/u8g_dev_ssd1306_128x64.c ****   }
ARM GAS  C:\Users\master\AppData\Local\Temp\cc0D1lSx.s 			page 25


 426:u8glib/u8g_dev_ssd1306_128x64.c ****   return u8g_dev_pb16v1_base_fn(u8g, dev, msg, arg);
 953              		.loc 1 426 0
 954 0112 3B46     		mov	r3, r7
 955 0114 3246     		mov	r2, r6
 956 0116 2146     		mov	r1, r4
 957 0118 2846     		mov	r0, r5
 958 011a FFF7FEFF 		bl	u8g_dev_pb16v1_base_fn
 959              	.LVL130:
 427:u8glib/u8g_dev_ssd1306_128x64.c **** }
 960              		.loc 1 427 0
 961 011e BDE8F883 		pop	{r3, r4, r5, r6, r7, r8, r9, pc}
 962              	.LVL131:
 963              	.L60:
 964 0122 00BF     		.align	2
 965              	.L59:
 966 0124 00000000 		.word	.LANCHOR4
 967 0128 00000000 		.word	.LANCHOR2
 968 012c 00000000 		.word	.LANCHOR3
 969 0130 00000000 		.word	.LANCHOR5
 970              		.cfi_endproc
 971              	.LFE4:
 973              		.global	u8g_dev_sh1106_128x64_2x_i2c
 974              		.global	u8g_dev_sh1106_128x64_2x_hw_spi
 975              		.global	u8g_dev_sh1106_128x64_2x_sw_spi
 976              		.global	u8g_dev_sh1106_128x64_2x_pb
 977              		.global	u8g_dev_sh1106_128x64_2x_buf
 978              		.global	u8g_dev_sh1106_128x64_i2c
 979              		.global	u8g_dev_sh1106_128x64_i2c_pb
 980              		.global	u8g_dev_sh1106_128x64_i2c_buf
 981              		.global	u8g_dev_sh1106_128x64_hw_spi
 982              		.global	u8g_dev_sh1106_128x64_hw_spi_pb
 983              		.global	u8g_dev_sh1106_128x64_hw_spi_buf
 984              		.global	u8g_dev_sh1106_128x64_sw_spi
 985              		.global	u8g_dev_sh1106_128x64_sw_spi_pb
 986              		.global	u8g_dev_sh1106_128x64_sw_spi_buf
 987              		.global	u8g_dev_ssd1306_128x64_2x_i2c
 988              		.global	u8g_dev_ssd1306_128x64_2x_hw_spi
 989              		.global	u8g_dev_ssd1306_128x64_2x_sw_spi
 990              		.global	u8g_dev_ssd1306_128x64_2x_pb
 991              		.global	u8g_dev_ssd1306_128x64_2x_buf
 992              		.global	u8g_dev_ssd1306_adafruit_128x64_i2c
 993              		.global	u8g_dev_ssd1306_adafruit_128x64_i2c_pb
 994              		.global	u8g_dev_ssd1306_adafruit_128x64_i2c_buf
 995              		.global	u8g_dev_ssd1306_adafruit_128x64_hw_spi
 996              		.global	u8g_dev_ssd1306_adafruit_128x64_hw_spi_pb
 997              		.global	u8g_dev_ssd1306_adafruit_128x64_hw_spi_buf
 998              		.global	u8g_dev_ssd1306_adafruit_128x64_sw_spi
 999              		.global	u8g_dev_ssd1306_adafruit_128x64_sw_spi_pb
 1000              		.global	u8g_dev_ssd1306_adafruit_128x64_sw_spi_buf
 1001              		.global	u8g_dev_ssd1306_128x64_i2c
 1002              		.global	u8g_dev_ssd1306_128x64_i2c_pb
 1003              		.global	u8g_dev_ssd1306_128x64_i2c_buf
 1004              		.global	u8g_dev_ssd1306_128x64_hw_spi
 1005              		.global	u8g_dev_ssd1306_128x64_hw_spi_pb
 1006              		.global	u8g_dev_ssd1306_128x64_hw_spi_buf
 1007              		.global	u8g_dev_ssd1306_128x64_sw_spi
 1008              		.global	u8g_dev_ssd1306_128x64_sw_spi_pb
ARM GAS  C:\Users\master\AppData\Local\Temp\cc0D1lSx.s 			page 26


 1009              		.global	u8g_dev_ssd1306_128x64_sw_spi_buf
 1010              		.section	.data.u8g_dev_ssd1306_128x64_sw_spi,"aw",%progbits
 1011              		.align	2
 1014              	u8g_dev_ssd1306_128x64_sw_spi:
 1015 0000 00000000 		.word	u8g_dev_ssd1306_128x64_fn
 1016 0004 00000000 		.word	u8g_dev_ssd1306_128x64_sw_spi_pb
 1017 0008 00000000 		.word	u8g_com_null_fn
 1018              		.section	.data.u8g_dev_ssd1306_adafruit_128x64_hw_spi_pb,"aw",%progbits
 1019              		.align	2
 1022              	u8g_dev_ssd1306_adafruit_128x64_hw_spi_pb:
 1023 0000 08       		.byte	8
 1024 0001 40       		.byte	64
 1025 0002 00       		.byte	0
 1026 0003 00       		.byte	0
 1027 0004 00       		.byte	0
 1028 0005 80       		.byte	-128
 1029 0006 0000     		.space	2
 1030 0008 00000000 		.word	u8g_dev_ssd1306_adafruit_128x64_hw_spi_buf
 1031              		.section	.rodata.u8g_dev_ssd13xx_sleep_off,"a",%progbits
 1032              		.align	2
 1033              		.set	.LANCHOR3,. + 0
 1036              	u8g_dev_ssd13xx_sleep_off:
 1037 0000 FF       		.byte	-1
 1038 0001 E0       		.byte	-32
 1039 0002 FF       		.byte	-1
 1040 0003 D1       		.byte	-47
 1041 0004 AF       		.byte	-81
 1042 0005 FF       		.byte	-1
 1043 0006 32       		.byte	50
 1044 0007 FF       		.byte	-1
 1045 0008 D0       		.byte	-48
 1046 0009 FF       		.byte	-1
 1047 000a FE       		.byte	-2
 1048              		.section	.data.u8g_dev_ssd1306_adafruit_128x64_sw_spi,"aw",%progbits
 1049              		.align	2
 1052              	u8g_dev_ssd1306_adafruit_128x64_sw_spi:
 1053 0000 00000000 		.word	u8g_dev_ssd1306_adafruit_128x64_fn
 1054 0004 00000000 		.word	u8g_dev_ssd1306_adafruit_128x64_sw_spi_pb
 1055 0008 00000000 		.word	u8g_com_null_fn
 1056              		.section	.data.u8g_dev_ssd1306_adafruit_128x64_i2c,"aw",%progbits
 1057              		.align	2
 1060              	u8g_dev_ssd1306_adafruit_128x64_i2c:
 1061 0000 00000000 		.word	u8g_dev_ssd1306_adafruit_128x64_fn
 1062 0004 00000000 		.word	u8g_dev_ssd1306_adafruit_128x64_i2c_pb
 1063 0008 00000000 		.word	u8g_com_null_fn
 1064              		.section	.bss.u8g_dev_sh1106_128x64_hw_spi_buf,"aw",%nobits
 1065              		.align	2
 1068              	u8g_dev_sh1106_128x64_hw_spi_buf:
 1069 0000 00000000 		.space	128
 1069      00000000 
 1069      00000000 
 1069      00000000 
 1069      00000000 
 1070              		.section	.data.u8g_dev_ssd1306_128x64_sw_spi_pb,"aw",%progbits
 1071              		.align	2
 1074              	u8g_dev_ssd1306_128x64_sw_spi_pb:
 1075 0000 08       		.byte	8
ARM GAS  C:\Users\master\AppData\Local\Temp\cc0D1lSx.s 			page 27


 1076 0001 40       		.byte	64
 1077 0002 00       		.byte	0
 1078 0003 00       		.byte	0
 1079 0004 00       		.byte	0
 1080 0005 80       		.byte	-128
 1081 0006 0000     		.space	2
 1082 0008 00000000 		.word	u8g_dev_ssd1306_128x64_sw_spi_buf
 1083              		.section	.bss.u8g_dev_ssd1306_128x64_sw_spi_buf,"aw",%nobits
 1084              		.align	2
 1087              	u8g_dev_ssd1306_128x64_sw_spi_buf:
 1088 0000 00000000 		.space	128
 1088      00000000 
 1088      00000000 
 1088      00000000 
 1088      00000000 
 1089              		.section	.data.u8g_dev_sh1106_128x64_hw_spi,"aw",%progbits
 1090              		.align	2
 1093              	u8g_dev_sh1106_128x64_hw_spi:
 1094 0000 00000000 		.word	u8g_dev_sh1106_128x64_fn
 1095 0004 00000000 		.word	u8g_dev_sh1106_128x64_hw_spi_pb
 1096 0008 00000000 		.word	u8g_com_null_fn
 1097              		.section	.data.u8g_dev_sh1106_128x64_sw_spi_pb,"aw",%progbits
 1098              		.align	2
 1101              	u8g_dev_sh1106_128x64_sw_spi_pb:
 1102 0000 08       		.byte	8
 1103 0001 40       		.byte	64
 1104 0002 00       		.byte	0
 1105 0003 00       		.byte	0
 1106 0004 00       		.byte	0
 1107 0005 80       		.byte	-128
 1108 0006 0000     		.space	2
 1109 0008 00000000 		.word	u8g_dev_sh1106_128x64_sw_spi_buf
 1110              		.section	.data.u8g_dev_sh1106_128x64_hw_spi_pb,"aw",%progbits
 1111              		.align	2
 1114              	u8g_dev_sh1106_128x64_hw_spi_pb:
 1115 0000 08       		.byte	8
 1116 0001 40       		.byte	64
 1117 0002 00       		.byte	0
 1118 0003 00       		.byte	0
 1119 0004 00       		.byte	0
 1120 0005 80       		.byte	-128
 1121 0006 0000     		.space	2
 1122 0008 00000000 		.word	u8g_dev_sh1106_128x64_hw_spi_buf
 1123              		.section	.rodata.u8g_dev_ssd13xx_sleep_on,"a",%progbits
 1124              		.align	2
 1125              		.set	.LANCHOR2,. + 0
 1128              	u8g_dev_ssd13xx_sleep_on:
 1129 0000 FF       		.byte	-1
 1130 0001 E0       		.byte	-32
 1131 0002 FF       		.byte	-1
 1132 0003 D1       		.byte	-47
 1133 0004 AE       		.byte	-82
 1134 0005 FF       		.byte	-1
 1135 0006 D0       		.byte	-48
 1136 0007 FF       		.byte	-1
 1137 0008 FE       		.byte	-2
 1138              		.section	.bss.u8g_dev_ssd1306_128x64_hw_spi_buf,"aw",%nobits
ARM GAS  C:\Users\master\AppData\Local\Temp\cc0D1lSx.s 			page 28


 1139              		.align	2
 1142              	u8g_dev_ssd1306_128x64_hw_spi_buf:
 1143 0000 00000000 		.space	128
 1143      00000000 
 1143      00000000 
 1143      00000000 
 1143      00000000 
 1144              		.section	.data.u8g_dev_ssd1306_128x64_2x_i2c,"aw",%progbits
 1145              		.align	2
 1148              	u8g_dev_ssd1306_128x64_2x_i2c:
 1149 0000 00000000 		.word	u8g_dev_ssd1306_128x64_2x_fn
 1150 0004 00000000 		.word	u8g_dev_ssd1306_128x64_2x_pb
 1151 0008 00000000 		.word	u8g_com_null_fn
 1152              		.section	.bss.u8g_dev_ssd1306_128x64_2x_buf,"aw",%nobits
 1153              		.align	2
 1156              	u8g_dev_ssd1306_128x64_2x_buf:
 1157 0000 00000000 		.space	256
 1157      00000000 
 1157      00000000 
 1157      00000000 
 1157      00000000 
 1158              		.section	.rodata.u8g_dev_ssd1306_128x64_adafruit2_init_seq,"a",%progbits
 1159              		.align	2
 1160              		.set	.LANCHOR0,. + 0
 1163              	u8g_dev_ssd1306_128x64_adafruit2_init_seq:
 1164 0000 FF       		.byte	-1
 1165 0001 D0       		.byte	-48
 1166 0002 FF       		.byte	-1
 1167 0003 E0       		.byte	-32
 1168 0004 FF       		.byte	-1
 1169 0005 C1       		.byte	-63
 1170 0006 FF       		.byte	-1
 1171 0007 D1       		.byte	-47
 1172 0008 AE       		.byte	-82
 1173 0009 D5       		.byte	-43
 1174 000a 80       		.byte	-128
 1175 000b A8       		.byte	-88
 1176 000c 3F       		.byte	63
 1177 000d D3       		.byte	-45
 1178 000e 00       		.byte	0
 1179 000f 40       		.byte	64
 1180 0010 8D       		.byte	-115
 1181 0011 14       		.byte	20
 1182 0012 20       		.byte	32
 1183 0013 00       		.byte	0
 1184 0014 A1       		.byte	-95
 1185 0015 C8       		.byte	-56
 1186 0016 DA       		.byte	-38
 1187 0017 12       		.byte	18
 1188 0018 81       		.byte	-127
 1189 0019 CF       		.byte	-49
 1190 001a D9       		.byte	-39
 1191 001b F1       		.byte	-15
 1192 001c DB       		.byte	-37
 1193 001d 40       		.byte	64
 1194 001e 2E       		.byte	46
 1195 001f A4       		.byte	-92
ARM GAS  C:\Users\master\AppData\Local\Temp\cc0D1lSx.s 			page 29


 1196 0020 A6       		.byte	-90
 1197 0021 AF       		.byte	-81
 1198 0022 FF       		.byte	-1
 1199 0023 D0       		.byte	-48
 1200 0024 FF       		.byte	-1
 1201 0025 FE       		.byte	-2
 1202              		.section	.bss.u8g_dev_ssd1306_adafruit_128x64_i2c_buf,"aw",%nobits
 1203              		.align	2
 1206              	u8g_dev_ssd1306_adafruit_128x64_i2c_buf:
 1207 0000 00000000 		.space	128
 1207      00000000 
 1207      00000000 
 1207      00000000 
 1207      00000000 
 1208              		.section	.bss.u8g_dev_ssd1306_128x64_i2c_buf,"aw",%nobits
 1209              		.align	2
 1212              	u8g_dev_ssd1306_128x64_i2c_buf:
 1213 0000 00000000 		.space	128
 1213      00000000 
 1213      00000000 
 1213      00000000 
 1213      00000000 
 1214              		.section	.data.u8g_dev_sh1106_128x64_2x_hw_spi,"aw",%progbits
 1215              		.align	2
 1218              	u8g_dev_sh1106_128x64_2x_hw_spi:
 1219 0000 00000000 		.word	u8g_dev_sh1106_128x64_2x_fn
 1220 0004 00000000 		.word	u8g_dev_sh1106_128x64_2x_pb
 1221 0008 00000000 		.word	u8g_com_null_fn
 1222              		.section	.data.u8g_dev_sh1106_128x64_i2c,"aw",%progbits
 1223              		.align	2
 1226              	u8g_dev_sh1106_128x64_i2c:
 1227 0000 00000000 		.word	u8g_dev_sh1106_128x64_fn
 1228 0004 00000000 		.word	u8g_dev_sh1106_128x64_i2c_pb
 1229 0008 00000000 		.word	u8g_com_null_fn
 1230              		.section	.data.u8g_dev_sh1106_128x64_2x_pb,"aw",%progbits
 1231              		.align	2
 1234              	u8g_dev_sh1106_128x64_2x_pb:
 1235 0000 10       		.byte	16
 1236 0001 40       		.byte	64
 1237 0002 00       		.byte	0
 1238 0003 00       		.byte	0
 1239 0004 00       		.byte	0
 1240 0005 80       		.byte	-128
 1241 0006 0000     		.space	2
 1242 0008 00000000 		.word	u8g_dev_sh1106_128x64_2x_buf
 1243              		.section	.data.u8g_dev_ssd1306_adafruit_128x64_i2c_pb,"aw",%progbits
 1244              		.align	2
 1247              	u8g_dev_ssd1306_adafruit_128x64_i2c_pb:
 1248 0000 08       		.byte	8
 1249 0001 40       		.byte	64
 1250 0002 00       		.byte	0
 1251 0003 00       		.byte	0
 1252 0004 00       		.byte	0
 1253 0005 80       		.byte	-128
 1254 0006 0000     		.space	2
 1255 0008 00000000 		.word	u8g_dev_ssd1306_adafruit_128x64_i2c_buf
 1256              		.section	.data.u8g_dev_ssd1306_128x64_2x_hw_spi,"aw",%progbits
ARM GAS  C:\Users\master\AppData\Local\Temp\cc0D1lSx.s 			page 30


 1257              		.align	2
 1260              	u8g_dev_ssd1306_128x64_2x_hw_spi:
 1261 0000 00000000 		.word	u8g_dev_ssd1306_128x64_2x_fn
 1262 0004 00000000 		.word	u8g_dev_ssd1306_128x64_2x_pb
 1263 0008 00000000 		.word	u8g_com_null_fn
 1264              		.section	.rodata.u8g_dev_sh1106_128x64_data_start,"a",%progbits
 1265              		.align	2
 1266              		.set	.LANCHOR5,. + 0
 1269              	u8g_dev_sh1106_128x64_data_start:
 1270 0000 FF       		.byte	-1
 1271 0001 E0       		.byte	-32
 1272 0002 FF       		.byte	-1
 1273 0003 D1       		.byte	-47
 1274 0004 10       		.byte	16
 1275 0005 02       		.byte	2
 1276 0006 FF       		.byte	-1
 1277 0007 FE       		.byte	-2
 1278              		.section	.rodata.u8g_dev_ssd1306_128x64_adafruit3_init_seq,"a",%progbits
 1279              		.align	2
 1280              		.set	.LANCHOR4,. + 0
 1283              	u8g_dev_ssd1306_128x64_adafruit3_init_seq:
 1284 0000 FF       		.byte	-1
 1285 0001 D0       		.byte	-48
 1286 0002 FF       		.byte	-1
 1287 0003 E0       		.byte	-32
 1288 0004 FF       		.byte	-1
 1289 0005 C1       		.byte	-63
 1290 0006 FF       		.byte	-1
 1291 0007 D1       		.byte	-47
 1292 0008 AE       		.byte	-82
 1293 0009 D5       		.byte	-43
 1294 000a 80       		.byte	-128
 1295 000b A8       		.byte	-88
 1296 000c 3F       		.byte	63
 1297 000d D3       		.byte	-45
 1298 000e 00       		.byte	0
 1299 000f 40       		.byte	64
 1300 0010 8D       		.byte	-115
 1301 0011 14       		.byte	20
 1302 0012 20       		.byte	32
 1303 0013 02       		.byte	2
 1304 0014 A1       		.byte	-95
 1305 0015 C8       		.byte	-56
 1306 0016 DA       		.byte	-38
 1307 0017 12       		.byte	18
 1308 0018 81       		.byte	-127
 1309 0019 CF       		.byte	-49
 1310 001a D9       		.byte	-39
 1311 001b F1       		.byte	-15
 1312 001c DB       		.byte	-37
 1313 001d 40       		.byte	64
 1314 001e 2E       		.byte	46
 1315 001f A4       		.byte	-92
 1316 0020 A6       		.byte	-90
 1317 0021 AF       		.byte	-81
 1318 0022 FF       		.byte	-1
 1319 0023 D0       		.byte	-48
ARM GAS  C:\Users\master\AppData\Local\Temp\cc0D1lSx.s 			page 31


 1320 0024 FF       		.byte	-1
 1321 0025 FE       		.byte	-2
 1322              		.section	.data.u8g_dev_sh1106_128x64_2x_i2c,"aw",%progbits
 1323              		.align	2
 1326              	u8g_dev_sh1106_128x64_2x_i2c:
 1327 0000 00000000 		.word	u8g_dev_sh1106_128x64_2x_fn
 1328 0004 00000000 		.word	u8g_dev_sh1106_128x64_2x_pb
 1329 0008 00000000 		.word	u8g_com_null_fn
 1330              		.section	.data.u8g_dev_ssd1306_128x64_hw_spi,"aw",%progbits
 1331              		.align	2
 1334              	u8g_dev_ssd1306_128x64_hw_spi:
 1335 0000 00000000 		.word	u8g_dev_ssd1306_128x64_fn
 1336 0004 00000000 		.word	u8g_dev_ssd1306_128x64_hw_spi_pb
 1337 0008 00000000 		.word	u8g_com_null_fn
 1338              		.section	.data.u8g_dev_ssd1306_128x64_hw_spi_pb,"aw",%progbits
 1339              		.align	2
 1342              	u8g_dev_ssd1306_128x64_hw_spi_pb:
 1343 0000 08       		.byte	8
 1344 0001 40       		.byte	64
 1345 0002 00       		.byte	0
 1346 0003 00       		.byte	0
 1347 0004 00       		.byte	0
 1348 0005 80       		.byte	-128
 1349 0006 0000     		.space	2
 1350 0008 00000000 		.word	u8g_dev_ssd1306_128x64_hw_spi_buf
 1351              		.section	.data.u8g_dev_sh1106_128x64_sw_spi,"aw",%progbits
 1352              		.align	2
 1355              	u8g_dev_sh1106_128x64_sw_spi:
 1356 0000 00000000 		.word	u8g_dev_sh1106_128x64_fn
 1357 0004 00000000 		.word	u8g_dev_sh1106_128x64_sw_spi_pb
 1358 0008 00000000 		.word	u8g_com_null_fn
 1359              		.section	.data.u8g_dev_sh1106_128x64_2x_sw_spi,"aw",%progbits
 1360              		.align	2
 1363              	u8g_dev_sh1106_128x64_2x_sw_spi:
 1364 0000 00000000 		.word	u8g_dev_sh1106_128x64_2x_fn
 1365 0004 00000000 		.word	u8g_dev_sh1106_128x64_2x_pb
 1366 0008 00000000 		.word	u8g_com_null_fn
 1367              		.section	.bss.u8g_dev_ssd1306_adafruit_128x64_sw_spi_buf,"aw",%nobits
 1368              		.align	2
 1371              	u8g_dev_ssd1306_adafruit_128x64_sw_spi_buf:
 1372 0000 00000000 		.space	128
 1372      00000000 
 1372      00000000 
 1372      00000000 
 1372      00000000 
 1373              		.section	.data.u8g_dev_ssd1306_adafruit_128x64_hw_spi,"aw",%progbits
 1374              		.align	2
 1377              	u8g_dev_ssd1306_adafruit_128x64_hw_spi:
 1378 0000 00000000 		.word	u8g_dev_ssd1306_adafruit_128x64_fn
 1379 0004 00000000 		.word	u8g_dev_ssd1306_adafruit_128x64_hw_spi_pb
 1380 0008 00000000 		.word	u8g_com_null_fn
 1381              		.section	.bss.u8g_dev_sh1106_128x64_2x_buf,"aw",%nobits
 1382              		.align	2
 1385              	u8g_dev_sh1106_128x64_2x_buf:
 1386 0000 00000000 		.space	256
 1386      00000000 
 1386      00000000 
ARM GAS  C:\Users\master\AppData\Local\Temp\cc0D1lSx.s 			page 32


 1386      00000000 
 1386      00000000 
 1387              		.section	.bss.u8g_dev_sh1106_128x64_i2c_buf,"aw",%nobits
 1388              		.align	2
 1391              	u8g_dev_sh1106_128x64_i2c_buf:
 1392 0000 00000000 		.space	128
 1392      00000000 
 1392      00000000 
 1392      00000000 
 1392      00000000 
 1393              		.section	.data.u8g_dev_ssd1306_128x64_i2c_pb,"aw",%progbits
 1394              		.align	2
 1397              	u8g_dev_ssd1306_128x64_i2c_pb:
 1398 0000 08       		.byte	8
 1399 0001 40       		.byte	64
 1400 0002 00       		.byte	0
 1401 0003 00       		.byte	0
 1402 0004 00       		.byte	0
 1403 0005 80       		.byte	-128
 1404 0006 0000     		.space	2
 1405 0008 00000000 		.word	u8g_dev_ssd1306_128x64_i2c_buf
 1406              		.section	.data.u8g_dev_ssd1306_adafruit_128x64_sw_spi_pb,"aw",%progbits
 1407              		.align	2
 1410              	u8g_dev_ssd1306_adafruit_128x64_sw_spi_pb:
 1411 0000 08       		.byte	8
 1412 0001 40       		.byte	64
 1413 0002 00       		.byte	0
 1414 0003 00       		.byte	0
 1415 0004 00       		.byte	0
 1416 0005 80       		.byte	-128
 1417 0006 0000     		.space	2
 1418 0008 00000000 		.word	u8g_dev_ssd1306_adafruit_128x64_sw_spi_buf
 1419              		.section	.rodata.u8g_dev_ssd1306_128x64_data_start,"a",%progbits
 1420              		.align	2
 1421              		.set	.LANCHOR1,. + 0
 1424              	u8g_dev_ssd1306_128x64_data_start:
 1425 0000 FF       		.byte	-1
 1426 0001 E0       		.byte	-32
 1427 0002 FF       		.byte	-1
 1428 0003 D1       		.byte	-47
 1429 0004 10       		.byte	16
 1430 0005 00       		.byte	0
 1431 0006 FF       		.byte	-1
 1432 0007 FE       		.byte	-2
 1433              		.section	.bss.u8g_dev_sh1106_128x64_sw_spi_buf,"aw",%nobits
 1434              		.align	2
 1437              	u8g_dev_sh1106_128x64_sw_spi_buf:
 1438 0000 00000000 		.space	128
 1438      00000000 
 1438      00000000 
 1438      00000000 
 1438      00000000 
 1439              		.section	.data.u8g_dev_ssd1306_128x64_i2c,"aw",%progbits
 1440              		.align	2
 1443              	u8g_dev_ssd1306_128x64_i2c:
 1444 0000 00000000 		.word	u8g_dev_ssd1306_128x64_fn
 1445 0004 00000000 		.word	u8g_dev_ssd1306_128x64_i2c_pb
ARM GAS  C:\Users\master\AppData\Local\Temp\cc0D1lSx.s 			page 33


 1446 0008 00000000 		.word	u8g_com_null_fn
 1447              		.section	.data.u8g_dev_ssd1306_128x64_2x_pb,"aw",%progbits
 1448              		.align	2
 1451              	u8g_dev_ssd1306_128x64_2x_pb:
 1452 0000 10       		.byte	16
 1453 0001 40       		.byte	64
 1454 0002 00       		.byte	0
 1455 0003 00       		.byte	0
 1456 0004 00       		.byte	0
 1457 0005 80       		.byte	-128
 1458 0006 0000     		.space	2
 1459 0008 00000000 		.word	u8g_dev_ssd1306_128x64_2x_buf
 1460              		.section	.data.u8g_dev_ssd1306_128x64_2x_sw_spi,"aw",%progbits
 1461              		.align	2
 1464              	u8g_dev_ssd1306_128x64_2x_sw_spi:
 1465 0000 00000000 		.word	u8g_dev_ssd1306_128x64_2x_fn
 1466 0004 00000000 		.word	u8g_dev_ssd1306_128x64_2x_pb
 1467 0008 00000000 		.word	u8g_com_null_fn
 1468              		.section	.data.u8g_dev_sh1106_128x64_i2c_pb,"aw",%progbits
 1469              		.align	2
 1472              	u8g_dev_sh1106_128x64_i2c_pb:
 1473 0000 08       		.byte	8
 1474 0001 40       		.byte	64
 1475 0002 00       		.byte	0
 1476 0003 00       		.byte	0
 1477 0004 00       		.byte	0
 1478 0005 80       		.byte	-128
 1479 0006 0000     		.space	2
 1480 0008 00000000 		.word	u8g_dev_sh1106_128x64_i2c_buf
 1481              		.section	.bss.u8g_dev_ssd1306_adafruit_128x64_hw_spi_buf,"aw",%nobits
 1482              		.align	2
 1485              	u8g_dev_ssd1306_adafruit_128x64_hw_spi_buf:
 1486 0000 00000000 		.space	128
 1486      00000000 
 1486      00000000 
 1486      00000000 
 1486      00000000 
 1487              		.text
 1488              	.Letext0:
 1489              		.file 2 "c:\\program files (x86)\\gnu tools arm embedded\\5.4 2016q3\\arm-none-eabi\\include\\mach
 1490              		.file 3 "c:\\program files (x86)\\gnu tools arm embedded\\5.4 2016q3\\arm-none-eabi\\include\\sys\
 1491              		.file 4 "u8glib/u8g.h"
ARM GAS  C:\Users\master\AppData\Local\Temp\cc0D1lSx.s 			page 34

