ARM GAS  C:\Users\master\AppData\Local\Temp\ccoIetdv.s 			page 1


   1              		.syntax unified
   2              		.cpu cortex-m4
   3              		.eabi_attribute 27, 1
   4              		.eabi_attribute 28, 1
   5              		.fpu fpv4-sp-d16
   6              		.eabi_attribute 20, 1
   7              		.eabi_attribute 21, 1
   8              		.eabi_attribute 23, 3
   9              		.eabi_attribute 24, 1
  10              		.eabi_attribute 25, 1
  11              		.eabi_attribute 26, 1
  12              		.eabi_attribute 30, 1
  13              		.eabi_attribute 34, 1
  14              		.eabi_attribute 18, 4
  15              		.thumb
  16              		.syntax unified
  17              		.file	"u8g_com_api.c"
  18              		.text
  19              	.Ltext0:
  20              		.cfi_sections	.debug_frame
  21              		.section	.text.u8g_InitCom,"ax",%progbits
  22              		.align	2
  23              		.global	u8g_InitCom
  24              		.thumb
  25              		.thumb_func
  27              	u8g_InitCom:
  28              	.LFB0:
  29              		.file 1 "u8glib/u8g_com_api.c"
   1:u8glib/u8g_com_api.c **** /*
   2:u8glib/u8g_com_api.c **** 
   3:u8glib/u8g_com_api.c ****   u8g_com_api.c
   4:u8glib/u8g_com_api.c **** 
   5:u8glib/u8g_com_api.c ****   Universal 8bit Graphics Library
   6:u8glib/u8g_com_api.c ****   
   7:u8glib/u8g_com_api.c ****   Copyright (c) 2011, olikraus@gmail.com
   8:u8glib/u8g_com_api.c ****   All rights reserved.
   9:u8glib/u8g_com_api.c **** 
  10:u8glib/u8g_com_api.c ****   Redistribution and use in source and binary forms, with or without modification, 
  11:u8glib/u8g_com_api.c ****   are permitted provided that the following conditions are met:
  12:u8glib/u8g_com_api.c **** 
  13:u8glib/u8g_com_api.c ****   * Redistributions of source code must retain the above copyright notice, this list 
  14:u8glib/u8g_com_api.c ****     of conditions and the following disclaimer.
  15:u8glib/u8g_com_api.c ****     
  16:u8glib/u8g_com_api.c ****   * Redistributions in binary form must reproduce the above copyright notice, this 
  17:u8glib/u8g_com_api.c ****     list of conditions and the following disclaimer in the documentation and/or other 
  18:u8glib/u8g_com_api.c ****     materials provided with the distribution.
  19:u8glib/u8g_com_api.c **** 
  20:u8glib/u8g_com_api.c ****   THIS SOFTWARE IS PROVIDED BY THE COPYRIGHT HOLDERS AND 
  21:u8glib/u8g_com_api.c ****   CONTRIBUTORS "AS IS" AND ANY EXPRESS OR IMPLIED WARRANTIES, 
  22:u8glib/u8g_com_api.c ****   INCLUDING, BUT NOT LIMITED TO, THE IMPLIED WARRANTIES OF 
  23:u8glib/u8g_com_api.c ****   MERCHANTABILITY AND FITNESS FOR A PARTICULAR PURPOSE ARE 
  24:u8glib/u8g_com_api.c ****   DISCLAIMED. IN NO EVENT SHALL THE COPYRIGHT HOLDER OR 
  25:u8glib/u8g_com_api.c ****   CONTRIBUTORS BE LIABLE FOR ANY DIRECT, INDIRECT, INCIDENTAL, 
  26:u8glib/u8g_com_api.c ****   SPECIAL, EXEMPLARY, OR CONSEQUENTIAL DAMAGES (INCLUDING, BUT 
  27:u8glib/u8g_com_api.c ****   NOT LIMITED TO, PROCUREMENT OF SUBSTITUTE GOODS OR SERVICES; 
  28:u8glib/u8g_com_api.c ****   LOSS OF USE, DATA, OR PROFITS; OR BUSINESS INTERRUPTION) HOWEVER 
  29:u8glib/u8g_com_api.c ****   CAUSED AND ON ANY THEORY OF LIABILITY, WHETHER IN CONTRACT, 
ARM GAS  C:\Users\master\AppData\Local\Temp\ccoIetdv.s 			page 2


  30:u8glib/u8g_com_api.c ****   STRICT LIABILITY, OR TORT (INCLUDING NEGLIGENCE OR OTHERWISE) 
  31:u8glib/u8g_com_api.c ****   ARISING IN ANY WAY OUT OF THE USE OF THIS SOFTWARE, EVEN IF 
  32:u8glib/u8g_com_api.c ****   ADVISED OF THE POSSIBILITY OF SUCH DAMAGE.  
  33:u8glib/u8g_com_api.c ****   
  34:u8glib/u8g_com_api.c ****   
  35:u8glib/u8g_com_api.c **** */
  36:u8glib/u8g_com_api.c **** 
  37:u8glib/u8g_com_api.c **** #include "u8g.h"
  38:u8glib/u8g_com_api.c **** 
  39:u8glib/u8g_com_api.c **** uint8_t u8g_InitCom(u8g_t *u8g, u8g_dev_t *dev, uint8_t clk_cycle_time)
  40:u8glib/u8g_com_api.c **** {
  30              		.loc 1 40 0
  31              		.cfi_startproc
  32              		@ args = 0, pretend = 0, frame = 0
  33              		@ frame_needed = 0, uses_anonymous_args = 0
  34              	.LVL0:
  35 0000 10B5     		push	{r4, lr}
  36              	.LCFI0:
  37              		.cfi_def_cfa_offset 8
  38              		.cfi_offset 4, -8
  39              		.cfi_offset 14, -4
  41:u8glib/u8g_com_api.c ****   return dev->com_fn(u8g, U8G_COM_MSG_INIT, clk_cycle_time, NULL);
  40              		.loc 1 41 0
  41 0002 8C68     		ldr	r4, [r1, #8]
  42 0004 0023     		movs	r3, #0
  43 0006 0121     		movs	r1, #1
  44              	.LVL1:
  45 0008 A047     		blx	r4
  46              	.LVL2:
  42:u8glib/u8g_com_api.c **** }
  47              		.loc 1 42 0
  48 000a 10BD     		pop	{r4, pc}
  49              		.cfi_endproc
  50              	.LFE0:
  52              		.section	.text.u8g_StopCom,"ax",%progbits
  53              		.align	2
  54              		.global	u8g_StopCom
  55              		.thumb
  56              		.thumb_func
  58              	u8g_StopCom:
  59              	.LFB1:
  43:u8glib/u8g_com_api.c **** 
  44:u8glib/u8g_com_api.c **** void u8g_StopCom(u8g_t *u8g, u8g_dev_t *dev)
  45:u8glib/u8g_com_api.c **** {
  60              		.loc 1 45 0
  61              		.cfi_startproc
  62              		@ args = 0, pretend = 0, frame = 0
  63              		@ frame_needed = 0, uses_anonymous_args = 0
  64              	.LVL3:
  65 0000 10B5     		push	{r4, lr}
  66              	.LCFI1:
  67              		.cfi_def_cfa_offset 8
  68              		.cfi_offset 4, -8
  69              		.cfi_offset 14, -4
  46:u8glib/u8g_com_api.c ****   dev->com_fn(u8g, U8G_COM_MSG_STOP, 0, NULL);
  70              		.loc 1 46 0
  71 0002 8C68     		ldr	r4, [r1, #8]
ARM GAS  C:\Users\master\AppData\Local\Temp\ccoIetdv.s 			page 3


  72 0004 0023     		movs	r3, #0
  73 0006 1A46     		mov	r2, r3
  74 0008 1946     		mov	r1, r3
  75              	.LVL4:
  76 000a A047     		blx	r4
  77              	.LVL5:
  78 000c 10BD     		pop	{r4, pc}
  79              		.cfi_endproc
  80              	.LFE1:
  82 000e 00BF     		.section	.text.u8g_SetChipSelect,"ax",%progbits
  83              		.align	2
  84              		.global	u8g_SetChipSelect
  85              		.thumb
  86              		.thumb_func
  88              	u8g_SetChipSelect:
  89              	.LFB2:
  47:u8glib/u8g_com_api.c **** }
  48:u8glib/u8g_com_api.c **** 
  49:u8glib/u8g_com_api.c **** /* cs contains the chip number, which should be enabled */
  50:u8glib/u8g_com_api.c **** void u8g_SetChipSelect(u8g_t *u8g, u8g_dev_t *dev, uint8_t cs)
  51:u8glib/u8g_com_api.c **** {
  90              		.loc 1 51 0
  91              		.cfi_startproc
  92              		@ args = 0, pretend = 0, frame = 0
  93              		@ frame_needed = 0, uses_anonymous_args = 0
  94              	.LVL6:
  95 0000 10B5     		push	{r4, lr}
  96              	.LCFI2:
  97              		.cfi_def_cfa_offset 8
  98              		.cfi_offset 4, -8
  99              		.cfi_offset 14, -4
  52:u8glib/u8g_com_api.c ****   dev->com_fn(u8g, U8G_COM_MSG_CHIP_SELECT, cs, NULL);
 100              		.loc 1 52 0
 101 0002 8C68     		ldr	r4, [r1, #8]
 102 0004 0023     		movs	r3, #0
 103 0006 0321     		movs	r1, #3
 104              	.LVL7:
 105 0008 A047     		blx	r4
 106              	.LVL8:
 107 000a 10BD     		pop	{r4, pc}
 108              		.cfi_endproc
 109              	.LFE2:
 111              		.section	.text.u8g_SetResetLow,"ax",%progbits
 112              		.align	2
 113              		.global	u8g_SetResetLow
 114              		.thumb
 115              		.thumb_func
 117              	u8g_SetResetLow:
 118              	.LFB3:
  53:u8glib/u8g_com_api.c **** }
  54:u8glib/u8g_com_api.c **** 
  55:u8glib/u8g_com_api.c **** void u8g_SetResetLow(u8g_t *u8g, u8g_dev_t *dev)
  56:u8glib/u8g_com_api.c **** {
 119              		.loc 1 56 0
 120              		.cfi_startproc
 121              		@ args = 0, pretend = 0, frame = 0
 122              		@ frame_needed = 0, uses_anonymous_args = 0
ARM GAS  C:\Users\master\AppData\Local\Temp\ccoIetdv.s 			page 4


 123              	.LVL9:
 124 0000 10B5     		push	{r4, lr}
 125              	.LCFI3:
 126              		.cfi_def_cfa_offset 8
 127              		.cfi_offset 4, -8
 128              		.cfi_offset 14, -4
  57:u8glib/u8g_com_api.c ****   dev->com_fn(u8g, U8G_COM_MSG_RESET, 0, NULL);
 129              		.loc 1 57 0
 130 0002 8C68     		ldr	r4, [r1, #8]
 131 0004 0023     		movs	r3, #0
 132 0006 1A46     		mov	r2, r3
 133 0008 0421     		movs	r1, #4
 134              	.LVL10:
 135 000a A047     		blx	r4
 136              	.LVL11:
 137 000c 10BD     		pop	{r4, pc}
 138              		.cfi_endproc
 139              	.LFE3:
 141 000e 00BF     		.section	.text.u8g_SetResetHigh,"ax",%progbits
 142              		.align	2
 143              		.global	u8g_SetResetHigh
 144              		.thumb
 145              		.thumb_func
 147              	u8g_SetResetHigh:
 148              	.LFB4:
  58:u8glib/u8g_com_api.c **** }
  59:u8glib/u8g_com_api.c **** 
  60:u8glib/u8g_com_api.c **** void u8g_SetResetHigh(u8g_t *u8g, u8g_dev_t *dev)
  61:u8glib/u8g_com_api.c **** {
 149              		.loc 1 61 0
 150              		.cfi_startproc
 151              		@ args = 0, pretend = 0, frame = 0
 152              		@ frame_needed = 0, uses_anonymous_args = 0
 153              	.LVL12:
 154 0000 10B5     		push	{r4, lr}
 155              	.LCFI4:
 156              		.cfi_def_cfa_offset 8
 157              		.cfi_offset 4, -8
 158              		.cfi_offset 14, -4
  62:u8glib/u8g_com_api.c ****   dev->com_fn(u8g, U8G_COM_MSG_RESET, 1, NULL);
 159              		.loc 1 62 0
 160 0002 8C68     		ldr	r4, [r1, #8]
 161 0004 0023     		movs	r3, #0
 162 0006 0122     		movs	r2, #1
 163 0008 0421     		movs	r1, #4
 164              	.LVL13:
 165 000a A047     		blx	r4
 166              	.LVL14:
 167 000c 10BD     		pop	{r4, pc}
 168              		.cfi_endproc
 169              	.LFE4:
 171 000e 00BF     		.section	.text.u8g_SetAddress,"ax",%progbits
 172              		.align	2
 173              		.global	u8g_SetAddress
 174              		.thumb
 175              		.thumb_func
 177              	u8g_SetAddress:
ARM GAS  C:\Users\master\AppData\Local\Temp\ccoIetdv.s 			page 5


 178              	.LFB5:
  63:u8glib/u8g_com_api.c **** }
  64:u8glib/u8g_com_api.c **** 
  65:u8glib/u8g_com_api.c **** 
  66:u8glib/u8g_com_api.c **** void u8g_SetAddress(u8g_t *u8g, u8g_dev_t *dev, uint8_t address)
  67:u8glib/u8g_com_api.c **** {
 179              		.loc 1 67 0
 180              		.cfi_startproc
 181              		@ args = 0, pretend = 0, frame = 0
 182              		@ frame_needed = 0, uses_anonymous_args = 0
 183              	.LVL15:
 184 0000 10B5     		push	{r4, lr}
 185              	.LCFI5:
 186              		.cfi_def_cfa_offset 8
 187              		.cfi_offset 4, -8
 188              		.cfi_offset 14, -4
  68:u8glib/u8g_com_api.c ****   dev->com_fn(u8g, U8G_COM_MSG_ADDRESS, address, NULL);
 189              		.loc 1 68 0
 190 0002 8C68     		ldr	r4, [r1, #8]
 191 0004 0023     		movs	r3, #0
 192 0006 0221     		movs	r1, #2
 193              	.LVL16:
 194 0008 A047     		blx	r4
 195              	.LVL17:
 196 000a 10BD     		pop	{r4, pc}
 197              		.cfi_endproc
 198              	.LFE5:
 200              		.section	.text.u8g_WriteByte,"ax",%progbits
 201              		.align	2
 202              		.global	u8g_WriteByte
 203              		.thumb
 204              		.thumb_func
 206              	u8g_WriteByte:
 207              	.LFB6:
  69:u8glib/u8g_com_api.c **** }
  70:u8glib/u8g_com_api.c **** 
  71:u8glib/u8g_com_api.c **** uint8_t u8g_WriteByte(u8g_t *u8g, u8g_dev_t *dev, uint8_t val)
  72:u8glib/u8g_com_api.c **** {
 208              		.loc 1 72 0
 209              		.cfi_startproc
 210              		@ args = 0, pretend = 0, frame = 0
 211              		@ frame_needed = 0, uses_anonymous_args = 0
 212              	.LVL18:
 213 0000 10B5     		push	{r4, lr}
 214              	.LCFI6:
 215              		.cfi_def_cfa_offset 8
 216              		.cfi_offset 4, -8
 217              		.cfi_offset 14, -4
  73:u8glib/u8g_com_api.c ****   return dev->com_fn(u8g, U8G_COM_MSG_WRITE_BYTE, val, NULL);
 218              		.loc 1 73 0
 219 0002 8C68     		ldr	r4, [r1, #8]
 220 0004 0023     		movs	r3, #0
 221 0006 0521     		movs	r1, #5
 222              	.LVL19:
 223 0008 A047     		blx	r4
 224              	.LVL20:
  74:u8glib/u8g_com_api.c **** }
ARM GAS  C:\Users\master\AppData\Local\Temp\ccoIetdv.s 			page 6


 225              		.loc 1 74 0
 226 000a 10BD     		pop	{r4, pc}
 227              		.cfi_endproc
 228              	.LFE6:
 230              		.section	.text.u8g_WriteSequence,"ax",%progbits
 231              		.align	2
 232              		.global	u8g_WriteSequence
 233              		.thumb
 234              		.thumb_func
 236              	u8g_WriteSequence:
 237              	.LFB7:
  75:u8glib/u8g_com_api.c **** 
  76:u8glib/u8g_com_api.c **** uint8_t u8g_WriteSequence(u8g_t *u8g, u8g_dev_t *dev, uint8_t cnt, uint8_t *seq)
  77:u8glib/u8g_com_api.c **** {
 238              		.loc 1 77 0
 239              		.cfi_startproc
 240              		@ args = 0, pretend = 0, frame = 0
 241              		@ frame_needed = 0, uses_anonymous_args = 0
 242              	.LVL21:
 243 0000 10B5     		push	{r4, lr}
 244              	.LCFI7:
 245              		.cfi_def_cfa_offset 8
 246              		.cfi_offset 4, -8
 247              		.cfi_offset 14, -4
  78:u8glib/u8g_com_api.c ****   return dev->com_fn(u8g, U8G_COM_MSG_WRITE_SEQ, cnt, seq);
 248              		.loc 1 78 0
 249 0002 8C68     		ldr	r4, [r1, #8]
 250 0004 0621     		movs	r1, #6
 251              	.LVL22:
 252 0006 A047     		blx	r4
 253              	.LVL23:
  79:u8glib/u8g_com_api.c **** }
 254              		.loc 1 79 0
 255 0008 10BD     		pop	{r4, pc}
 256              		.cfi_endproc
 257              	.LFE7:
 259 000a 00BF     		.section	.text.u8g_WriteSequenceP,"ax",%progbits
 260              		.align	2
 261              		.global	u8g_WriteSequenceP
 262              		.thumb
 263              		.thumb_func
 265              	u8g_WriteSequenceP:
 266              	.LFB8:
  80:u8glib/u8g_com_api.c **** 
  81:u8glib/u8g_com_api.c **** uint8_t u8g_WriteSequenceP(u8g_t *u8g, u8g_dev_t *dev, uint8_t cnt, const uint8_t *seq)
  82:u8glib/u8g_com_api.c **** {
 267              		.loc 1 82 0
 268              		.cfi_startproc
 269              		@ args = 0, pretend = 0, frame = 0
 270              		@ frame_needed = 0, uses_anonymous_args = 0
 271              	.LVL24:
 272 0000 10B5     		push	{r4, lr}
 273              	.LCFI8:
 274              		.cfi_def_cfa_offset 8
 275              		.cfi_offset 4, -8
 276              		.cfi_offset 14, -4
  83:u8glib/u8g_com_api.c ****   return dev->com_fn(u8g, U8G_COM_MSG_WRITE_SEQ_P, cnt, (void *)seq);
ARM GAS  C:\Users\master\AppData\Local\Temp\ccoIetdv.s 			page 7


 277              		.loc 1 83 0
 278 0002 8C68     		ldr	r4, [r1, #8]
 279 0004 0721     		movs	r1, #7
 280              	.LVL25:
 281 0006 A047     		blx	r4
 282              	.LVL26:
  84:u8glib/u8g_com_api.c **** }
 283              		.loc 1 84 0
 284 0008 10BD     		pop	{r4, pc}
 285              		.cfi_endproc
 286              	.LFE8:
 288 000a 00BF     		.section	.text.u8g_WriteEscSeqP,"ax",%progbits
 289              		.align	2
 290              		.global	u8g_WriteEscSeqP
 291              		.thumb
 292              		.thumb_func
 294              	u8g_WriteEscSeqP:
 295              	.LFB9:
  85:u8glib/u8g_com_api.c **** 
  86:u8glib/u8g_com_api.c **** /*
  87:u8glib/u8g_com_api.c ****   sequence := { direct_value | escape_sequence }
  88:u8glib/u8g_com_api.c ****   direct_value := 0..254
  89:u8glib/u8g_com_api.c ****   escape_sequence := value_255 | sequence_end | delay | adr | cs | not_used 
  90:u8glib/u8g_com_api.c ****   value_255 := 255 255
  91:u8glib/u8g_com_api.c ****   sequence_end = 255 254
  92:u8glib/u8g_com_api.c ****   delay := 255 0..127
  93:u8glib/u8g_com_api.c ****   adr := 255 0x0e0 .. 0x0ef 
  94:u8glib/u8g_com_api.c ****   cs := 255 0x0d0 .. 0x0df 
  95:u8glib/u8g_com_api.c ****   not_used := 255 101..254
  96:u8glib/u8g_com_api.c **** 
  97:u8glib/u8g_com_api.c **** #define U8G_ESC_DLY(x) 255, ((x) & 0x7f)
  98:u8glib/u8g_com_api.c **** #define U8G_ESC_CS(x) 255, (0xd0 | ((x)&0x0f))
  99:u8glib/u8g_com_api.c **** #define U8G_ESC_ADR(x) 255, (0xe0 | ((x)&0x0f))
 100:u8glib/u8g_com_api.c **** #define U8G_ESC_VCC(x) 255, (0xbe | ((x)&0x01))
 101:u8glib/u8g_com_api.c **** #define U8G_ESC_END 255, 254
 102:u8glib/u8g_com_api.c **** #define U8G_ESC_255 255, 255
 103:u8glib/u8g_com_api.c **** #define U8G_ESC_RST(x) 255, (0xc0 | ((x)&0x0f))
 104:u8glib/u8g_com_api.c **** 
 105:u8glib/u8g_com_api.c **** */
 106:u8glib/u8g_com_api.c **** uint8_t u8g_WriteEscSeqP(u8g_t *u8g, u8g_dev_t *dev, const uint8_t *esc_seq)
 107:u8glib/u8g_com_api.c **** {
 296              		.loc 1 107 0
 297              		.cfi_startproc
 298              		@ args = 0, pretend = 0, frame = 0
 299              		@ frame_needed = 0, uses_anonymous_args = 0
 300              	.LVL27:
 301 0000 2DE9F041 		push	{r4, r5, r6, r7, r8, lr}
 302              	.LCFI9:
 303              		.cfi_def_cfa_offset 24
 304              		.cfi_offset 4, -24
 305              		.cfi_offset 5, -20
 306              		.cfi_offset 6, -16
 307              		.cfi_offset 7, -12
 308              		.cfi_offset 8, -8
 309              		.cfi_offset 14, -4
 310 0004 0746     		mov	r7, r0
 311 0006 8846     		mov	r8, r1
ARM GAS  C:\Users\master\AppData\Local\Temp\ccoIetdv.s 			page 8


 312 0008 1546     		mov	r5, r2
 313              	.LVL28:
 108:u8glib/u8g_com_api.c ****   uint8_t is_escape = 0;
 314              		.loc 1 108 0
 315 000a 0026     		movs	r6, #0
 316              	.LVL29:
 317              	.L27:
 109:u8glib/u8g_com_api.c ****   uint8_t value;
 110:u8glib/u8g_com_api.c ****   for(;;)
 111:u8glib/u8g_com_api.c ****   {
 112:u8glib/u8g_com_api.c ****     value = u8g_pgm_read(esc_seq);
 318              		.loc 1 112 0
 319 000c 2C78     		ldrb	r4, [r5]	@ zero_extendqisi2
 320              	.LVL30:
 113:u8glib/u8g_com_api.c ****     if ( is_escape == 0 )
 321              		.loc 1 113 0
 322 000e 56B9     		cbnz	r6, .L20
 114:u8glib/u8g_com_api.c ****     {
 115:u8glib/u8g_com_api.c ****       if ( value != 255 )
 323              		.loc 1 115 0
 324 0010 FF2C     		cmp	r4, #255
 325 0012 4DD0     		beq	.L28
 116:u8glib/u8g_com_api.c ****       {
 117:u8glib/u8g_com_api.c ****         if ( u8g_WriteByte(u8g, dev, value) == 0 )
 326              		.loc 1 117 0
 327 0014 2246     		mov	r2, r4
 328 0016 4146     		mov	r1, r8
 329 0018 3846     		mov	r0, r7
 330 001a FFF7FEFF 		bl	u8g_WriteByte
 331              	.LVL31:
 332 001e 0346     		mov	r3, r0
 333 0020 0028     		cmp	r0, #0
 334 0022 4CD1     		bne	.L21
 335 0024 4EE0     		b	.L22
 336              	.L20:
 118:u8glib/u8g_com_api.c ****           return 0;
 119:u8glib/u8g_com_api.c ****       }
 120:u8glib/u8g_com_api.c ****       else
 121:u8glib/u8g_com_api.c ****       {
 122:u8glib/u8g_com_api.c ****         is_escape = 1;
 123:u8glib/u8g_com_api.c ****       }
 124:u8glib/u8g_com_api.c ****     }
 125:u8glib/u8g_com_api.c ****     else
 126:u8glib/u8g_com_api.c ****     {
 127:u8glib/u8g_com_api.c ****       if ( value == 255 )
 337              		.loc 1 127 0
 338 0026 FF2C     		cmp	r4, #255
 339 0028 09D1     		bne	.L23
 128:u8glib/u8g_com_api.c ****       {
 129:u8glib/u8g_com_api.c ****         if ( u8g_WriteByte(u8g, dev, value) == 0 )
 340              		.loc 1 129 0
 341 002a 2246     		mov	r2, r4
 342 002c 4146     		mov	r1, r8
 343 002e 3846     		mov	r0, r7
 344 0030 FFF7FEFF 		bl	u8g_WriteByte
 345              	.LVL32:
 346 0034 0346     		mov	r3, r0
ARM GAS  C:\Users\master\AppData\Local\Temp\ccoIetdv.s 			page 9


 347 0036 0028     		cmp	r0, #0
 348 0038 44D0     		beq	.L22
 130:u8glib/u8g_com_api.c ****           return 0;
 131:u8glib/u8g_com_api.c ****       }
 132:u8glib/u8g_com_api.c ****       else if ( value == 254 )
 133:u8glib/u8g_com_api.c ****       {
 134:u8glib/u8g_com_api.c ****         break;
 135:u8glib/u8g_com_api.c ****       }
 136:u8glib/u8g_com_api.c ****       else if ( value >= 0x0f0 )
 137:u8glib/u8g_com_api.c ****       {
 138:u8glib/u8g_com_api.c ****         /* not yet used, do nothing */
 139:u8glib/u8g_com_api.c ****       }
 140:u8glib/u8g_com_api.c ****       else if ( value >= 0xe0  )
 141:u8glib/u8g_com_api.c ****       {
 142:u8glib/u8g_com_api.c ****         u8g_SetAddress(u8g, dev, value & 0x0f);
 143:u8glib/u8g_com_api.c ****       }
 144:u8glib/u8g_com_api.c ****       else if ( value >= 0xd0 )
 145:u8glib/u8g_com_api.c ****       {
 146:u8glib/u8g_com_api.c ****         u8g_SetChipSelect(u8g, dev, value & 0x0f);
 147:u8glib/u8g_com_api.c ****       }
 148:u8glib/u8g_com_api.c ****       else if ( value >= 0xc0 )
 149:u8glib/u8g_com_api.c ****       {
 150:u8glib/u8g_com_api.c ****         u8g_SetResetLow(u8g, dev);
 151:u8glib/u8g_com_api.c ****         value &= 0x0f;
 152:u8glib/u8g_com_api.c ****         value <<= 4;
 153:u8glib/u8g_com_api.c ****         value+=2;
 154:u8glib/u8g_com_api.c ****         u8g_Delay(value);
 155:u8glib/u8g_com_api.c ****         u8g_SetResetHigh(u8g, dev);
 156:u8glib/u8g_com_api.c ****         u8g_Delay(value);
 157:u8glib/u8g_com_api.c ****       }
 158:u8glib/u8g_com_api.c ****       else if ( value >= 0xbe )
 159:u8glib/u8g_com_api.c ****       {
 160:u8glib/u8g_com_api.c **** 	/* not yet implemented */
 161:u8glib/u8g_com_api.c ****         /* u8g_SetVCC(u8g, dev, value & 0x01); */
 162:u8glib/u8g_com_api.c ****       }
 163:u8glib/u8g_com_api.c ****       else if ( value <= 127 )
 164:u8glib/u8g_com_api.c ****       {
 165:u8glib/u8g_com_api.c ****         u8g_Delay(value);
 166:u8glib/u8g_com_api.c ****       }
 167:u8glib/u8g_com_api.c ****       is_escape = 0;
 349              		.loc 1 167 0
 350 003a 0026     		movs	r6, #0
 351              	.LVL33:
 352 003c 3FE0     		b	.L21
 353              	.LVL34:
 354              	.L23:
 132:u8glib/u8g_com_api.c ****       {
 355              		.loc 1 132 0
 356 003e FE2C     		cmp	r4, #254
 357 0040 3FD0     		beq	.L29
 136:u8glib/u8g_com_api.c ****       {
 358              		.loc 1 136 0
 359 0042 EF2C     		cmp	r4, #239
 360 0044 36D8     		bhi	.L30
 140:u8glib/u8g_com_api.c ****       {
 361              		.loc 1 140 0
 362 0046 DF2C     		cmp	r4, #223
ARM GAS  C:\Users\master\AppData\Local\Temp\ccoIetdv.s 			page 10


 363 0048 07D9     		bls	.L24
 142:u8glib/u8g_com_api.c ****       }
 364              		.loc 1 142 0
 365 004a 04F00F02 		and	r2, r4, #15
 366 004e 4146     		mov	r1, r8
 367 0050 3846     		mov	r0, r7
 368 0052 FFF7FEFF 		bl	u8g_SetAddress
 369              	.LVL35:
 370              		.loc 1 167 0
 371 0056 0026     		movs	r6, #0
 372              	.LVL36:
 373 0058 31E0     		b	.L21
 374              	.LVL37:
 375              	.L24:
 144:u8glib/u8g_com_api.c ****       {
 376              		.loc 1 144 0
 377 005a CF2C     		cmp	r4, #207
 378 005c 07D9     		bls	.L25
 146:u8glib/u8g_com_api.c ****       }
 379              		.loc 1 146 0
 380 005e 04F00F02 		and	r2, r4, #15
 381 0062 4146     		mov	r1, r8
 382 0064 3846     		mov	r0, r7
 383 0066 FFF7FEFF 		bl	u8g_SetChipSelect
 384              	.LVL38:
 385              		.loc 1 167 0
 386 006a 0026     		movs	r6, #0
 387              	.LVL39:
 388 006c 27E0     		b	.L21
 389              	.LVL40:
 390              	.L25:
 148:u8glib/u8g_com_api.c ****       {
 391              		.loc 1 148 0
 392 006e BF2C     		cmp	r4, #191
 393 0070 14D9     		bls	.L26
 150:u8glib/u8g_com_api.c ****         value &= 0x0f;
 394              		.loc 1 150 0
 395 0072 4146     		mov	r1, r8
 396 0074 3846     		mov	r0, r7
 397 0076 FFF7FEFF 		bl	u8g_SetResetLow
 398              	.LVL41:
 399 007a 2401     		lsls	r4, r4, #4
 400              	.LVL42:
 401 007c E4B2     		uxtb	r4, r4
 402              	.LVL43:
 153:u8glib/u8g_com_api.c ****         u8g_Delay(value);
 403              		.loc 1 153 0
 404 007e 0234     		adds	r4, r4, #2
 405              	.LVL44:
 154:u8glib/u8g_com_api.c ****         u8g_SetResetHigh(u8g, dev);
 406              		.loc 1 154 0
 407 0080 04F0FE04 		and	r4, r4, #254
 408              	.LVL45:
 409 0084 2046     		mov	r0, r4
 410 0086 FFF7FEFF 		bl	u8g_Delay
 411              	.LVL46:
 155:u8glib/u8g_com_api.c ****         u8g_Delay(value);
ARM GAS  C:\Users\master\AppData\Local\Temp\ccoIetdv.s 			page 11


 412              		.loc 1 155 0
 413 008a 4146     		mov	r1, r8
 414 008c 3846     		mov	r0, r7
 415 008e FFF7FEFF 		bl	u8g_SetResetHigh
 416              	.LVL47:
 156:u8glib/u8g_com_api.c ****       }
 417              		.loc 1 156 0
 418 0092 2046     		mov	r0, r4
 419 0094 FFF7FEFF 		bl	u8g_Delay
 420              	.LVL48:
 421              		.loc 1 167 0
 422 0098 0026     		movs	r6, #0
 423              	.LVL49:
 424 009a 10E0     		b	.L21
 425              	.LVL50:
 426              	.L26:
 158:u8glib/u8g_com_api.c ****       {
 427              		.loc 1 158 0
 428 009c BD2C     		cmp	r4, #189
 429 009e 0BD8     		bhi	.L31
 163:u8glib/u8g_com_api.c ****       {
 430              		.loc 1 163 0
 431 00a0 14F0800F 		tst	r4, #128
 432 00a4 0AD1     		bne	.L32
 165:u8glib/u8g_com_api.c ****       }
 433              		.loc 1 165 0
 434 00a6 2046     		mov	r0, r4
 435 00a8 FFF7FEFF 		bl	u8g_Delay
 436              	.LVL51:
 437              		.loc 1 167 0
 438 00ac 0026     		movs	r6, #0
 439              	.LVL52:
 440 00ae 06E0     		b	.L21
 441              	.LVL53:
 442              	.L28:
 122:u8glib/u8g_com_api.c ****       }
 443              		.loc 1 122 0
 444 00b0 0126     		movs	r6, #1
 445              	.LVL54:
 446 00b2 04E0     		b	.L21
 447              	.LVL55:
 448              	.L30:
 449              		.loc 1 167 0
 450 00b4 0026     		movs	r6, #0
 451              	.LVL56:
 452 00b6 02E0     		b	.L21
 453              	.LVL57:
 454              	.L31:
 455 00b8 0026     		movs	r6, #0
 456              	.LVL58:
 457 00ba 00E0     		b	.L21
 458              	.LVL59:
 459              	.L32:
 460 00bc 0026     		movs	r6, #0
 461              	.LVL60:
 462              	.L21:
 168:u8glib/u8g_com_api.c ****     }
ARM GAS  C:\Users\master\AppData\Local\Temp\ccoIetdv.s 			page 12


 169:u8glib/u8g_com_api.c ****     esc_seq++;
 463              		.loc 1 169 0
 464 00be 0135     		adds	r5, r5, #1
 465              	.LVL61:
 170:u8glib/u8g_com_api.c ****   }
 466              		.loc 1 170 0
 467 00c0 A4E7     		b	.L27
 468              	.LVL62:
 469              	.L29:
 171:u8glib/u8g_com_api.c ****   return 1;
 470              		.loc 1 171 0
 471 00c2 0123     		movs	r3, #1
 472              	.L22:
 172:u8glib/u8g_com_api.c **** }
 473              		.loc 1 172 0
 474 00c4 1846     		mov	r0, r3
 475 00c6 BDE8F081 		pop	{r4, r5, r6, r7, r8, pc}
 476              		.cfi_endproc
 477              	.LFE9:
 479 00ca 00BF     		.text
 480              	.Letext0:
 481              		.file 2 "c:\\program files (x86)\\gnu tools arm embedded\\5.4 2016q3\\arm-none-eabi\\include\\mach
 482              		.file 3 "c:\\program files (x86)\\gnu tools arm embedded\\5.4 2016q3\\arm-none-eabi\\include\\sys\
 483              		.file 4 "u8glib/u8g.h"
ARM GAS  C:\Users\master\AppData\Local\Temp\ccoIetdv.s 			page 13

