ARM GAS  C:\Users\master\AppData\Local\Temp\ccSWJoZx.s 			page 1


   1              		.syntax unified
   2              		.cpu cortex-m4
   3              		.eabi_attribute 27, 1
   4              		.eabi_attribute 28, 1
   5              		.fpu fpv4-sp-d16
   6              		.eabi_attribute 20, 1
   7              		.eabi_attribute 21, 1
   8              		.eabi_attribute 23, 3
   9              		.eabi_attribute 24, 1
  10              		.eabi_attribute 25, 1
  11              		.eabi_attribute 26, 1
  12              		.eabi_attribute 30, 1
  13              		.eabi_attribute 34, 1
  14              		.eabi_attribute 18, 4
  15              		.thumb
  16              		.syntax unified
  17              		.file	"u8g_u8toa.c"
  18              		.text
  19              	.Ltext0:
  20              		.cfi_sections	.debug_frame
  21              		.section	.text.u8g_u8toap,"ax",%progbits
  22              		.align	2
  23              		.global	u8g_u8toap
  24              		.thumb
  25              		.thumb_func
  27              	u8g_u8toap:
  28              	.LFB0:
  29              		.file 1 "u8glib/u8g_u8toa.c"
   1:u8glib/u8g_u8toa.c **** /*
   2:u8glib/u8g_u8toa.c **** 
   3:u8glib/u8g_u8toa.c ****   u8g_u8toa.c
   4:u8glib/u8g_u8toa.c **** 
   5:u8glib/u8g_u8toa.c **** 
   6:u8glib/u8g_u8toa.c ****   Universal 8bit Graphics Library
   7:u8glib/u8g_u8toa.c ****   
   8:u8glib/u8g_u8toa.c ****   Copyright (c) 2011, olikraus@gmail.com
   9:u8glib/u8g_u8toa.c ****   All rights reserved.
  10:u8glib/u8g_u8toa.c **** 
  11:u8glib/u8g_u8toa.c ****   Redistribution and use in source and binary forms, with or without modification, 
  12:u8glib/u8g_u8toa.c ****   are permitted provided that the following conditions are met:
  13:u8glib/u8g_u8toa.c **** 
  14:u8glib/u8g_u8toa.c ****   * Redistributions of source code must retain the above copyright notice, this list 
  15:u8glib/u8g_u8toa.c ****     of conditions and the following disclaimer.
  16:u8glib/u8g_u8toa.c ****     
  17:u8glib/u8g_u8toa.c ****   * Redistributions in binary form must reproduce the above copyright notice, this 
  18:u8glib/u8g_u8toa.c ****     list of conditions and the following disclaimer in the documentation and/or other 
  19:u8glib/u8g_u8toa.c ****     materials provided with the distribution.
  20:u8glib/u8g_u8toa.c **** 
  21:u8glib/u8g_u8toa.c ****   THIS SOFTWARE IS PROVIDED BY THE COPYRIGHT HOLDERS AND 
  22:u8glib/u8g_u8toa.c ****   CONTRIBUTORS "AS IS" AND ANY EXPRESS OR IMPLIED WARRANTIES, 
  23:u8glib/u8g_u8toa.c ****   INCLUDING, BUT NOT LIMITED TO, THE IMPLIED WARRANTIES OF 
  24:u8glib/u8g_u8toa.c ****   MERCHANTABILITY AND FITNESS FOR A PARTICULAR PURPOSE ARE 
  25:u8glib/u8g_u8toa.c ****   DISCLAIMED. IN NO EVENT SHALL THE COPYRIGHT HOLDER OR 
  26:u8glib/u8g_u8toa.c ****   CONTRIBUTORS BE LIABLE FOR ANY DIRECT, INDIRECT, INCIDENTAL, 
  27:u8glib/u8g_u8toa.c ****   SPECIAL, EXEMPLARY, OR CONSEQUENTIAL DAMAGES (INCLUDING, BUT 
  28:u8glib/u8g_u8toa.c ****   NOT LIMITED TO, PROCUREMENT OF SUBSTITUTE GOODS OR SERVICES; 
  29:u8glib/u8g_u8toa.c ****   LOSS OF USE, DATA, OR PROFITS; OR BUSINESS INTERRUPTION) HOWEVER 
ARM GAS  C:\Users\master\AppData\Local\Temp\ccSWJoZx.s 			page 2


  30:u8glib/u8g_u8toa.c ****   CAUSED AND ON ANY THEORY OF LIABILITY, WHETHER IN CONTRACT, 
  31:u8glib/u8g_u8toa.c ****   STRICT LIABILITY, OR TORT (INCLUDING NEGLIGENCE OR OTHERWISE) 
  32:u8glib/u8g_u8toa.c ****   ARISING IN ANY WAY OUT OF THE USE OF THIS SOFTWARE, EVEN IF 
  33:u8glib/u8g_u8toa.c ****   ADVISED OF THE POSSIBILITY OF SUCH DAMAGE.  
  34:u8glib/u8g_u8toa.c ****   
  35:u8glib/u8g_u8toa.c **** */
  36:u8glib/u8g_u8toa.c **** 
  37:u8glib/u8g_u8toa.c **** 
  38:u8glib/u8g_u8toa.c **** #include "u8g.h"
  39:u8glib/u8g_u8toa.c **** 
  40:u8glib/u8g_u8toa.c **** static const unsigned char u8g_u8toa_tab[3]  = { 100, 10, 1 } ;
  41:u8glib/u8g_u8toa.c **** const char *u8g_u8toap(char * dest, uint8_t v)
  42:u8glib/u8g_u8toa.c **** {
  30              		.loc 1 42 0
  31              		.cfi_startproc
  32              		@ args = 0, pretend = 0, frame = 0
  33              		@ frame_needed = 0, uses_anonymous_args = 0
  34              		@ link register save eliminated.
  35              	.LVL0:
  36 0000 30B4     		push	{r4, r5}
  37              	.LCFI0:
  38              		.cfi_def_cfa_offset 8
  39              		.cfi_offset 4, -8
  40              		.cfi_offset 5, -4
  41              	.LVL1:
  43:u8glib/u8g_u8toa.c ****   uint8_t pos;
  44:u8glib/u8g_u8toa.c ****   uint8_t d;
  45:u8glib/u8g_u8toa.c ****   uint8_t c;
  46:u8glib/u8g_u8toa.c ****   for( pos = 0; pos < 3; pos++ )
  42              		.loc 1 46 0
  43 0002 0024     		movs	r4, #0
  44 0004 0DE0     		b	.L2
  45              	.LVL2:
  46              	.L5:
  47:u8glib/u8g_u8toa.c ****   {
  48:u8glib/u8g_u8toa.c ****       d = '0';
  49:u8glib/u8g_u8toa.c ****       c = *(u8g_u8toa_tab+pos);
  47              		.loc 1 49 0
  48 0006 2546     		mov	r5, r4
  49 0008 094B     		ldr	r3, .L7
  50 000a 1A5D     		ldrb	r2, [r3, r4]	@ zero_extendqisi2
  51              	.LVL3:
  48:u8glib/u8g_u8toa.c ****       c = *(u8g_u8toa_tab+pos);
  52              		.loc 1 48 0
  53 000c 3023     		movs	r3, #48
  50:u8glib/u8g_u8toa.c ****       while( v >= c )
  54              		.loc 1 50 0
  55 000e 03E0     		b	.L3
  56              	.LVL4:
  57              	.L4:
  51:u8glib/u8g_u8toa.c ****       {
  52:u8glib/u8g_u8toa.c **** 	v -= c;
  58              		.loc 1 52 0
  59 0010 891A     		subs	r1, r1, r2
  60              	.LVL5:
  61 0012 C9B2     		uxtb	r1, r1
  62              	.LVL6:
ARM GAS  C:\Users\master\AppData\Local\Temp\ccSWJoZx.s 			page 3


  53:u8glib/u8g_u8toa.c **** 	d++;
  63              		.loc 1 53 0
  64 0014 0133     		adds	r3, r3, #1
  65              	.LVL7:
  66 0016 DBB2     		uxtb	r3, r3
  67              	.LVL8:
  68              	.L3:
  50:u8glib/u8g_u8toa.c ****       while( v >= c )
  69              		.loc 1 50 0
  70 0018 9142     		cmp	r1, r2
  71 001a F9D2     		bcs	.L4
  54:u8glib/u8g_u8toa.c ****       }
  55:u8glib/u8g_u8toa.c ****       dest[pos] = d;
  72              		.loc 1 55 0 discriminator 2
  73 001c 4355     		strb	r3, [r0, r5]
  46:u8glib/u8g_u8toa.c ****   {
  74              		.loc 1 46 0 discriminator 2
  75 001e 0134     		adds	r4, r4, #1
  76              	.LVL9:
  77 0020 E4B2     		uxtb	r4, r4
  78              	.LVL10:
  79              	.L2:
  46:u8glib/u8g_u8toa.c ****   {
  80              		.loc 1 46 0 is_stmt 0 discriminator 1
  81 0022 022C     		cmp	r4, #2
  82 0024 EFD9     		bls	.L5
  56:u8glib/u8g_u8toa.c ****   }  
  57:u8glib/u8g_u8toa.c ****   dest[3] = '\0';
  83              		.loc 1 57 0 is_stmt 1
  84 0026 0023     		movs	r3, #0
  85 0028 C370     		strb	r3, [r0, #3]
  58:u8glib/u8g_u8toa.c ****   return dest;
  59:u8glib/u8g_u8toa.c **** }
  86              		.loc 1 59 0
  87 002a 30BC     		pop	{r4, r5}
  88              	.LCFI1:
  89              		.cfi_restore 5
  90              		.cfi_restore 4
  91              		.cfi_def_cfa_offset 0
  92              	.LVL11:
  93 002c 7047     		bx	lr
  94              	.L8:
  95 002e 00BF     		.align	2
  96              	.L7:
  97 0030 00000000 		.word	.LANCHOR0
  98              		.cfi_endproc
  99              	.LFE0:
 101              		.section	.text.u8g_u8toa,"ax",%progbits
 102              		.align	2
 103              		.global	u8g_u8toa
 104              		.thumb
 105              		.thumb_func
 107              	u8g_u8toa:
 108              	.LFB1:
  60:u8glib/u8g_u8toa.c **** 
  61:u8glib/u8g_u8toa.c **** /* v = value, d = number of digits */
  62:u8glib/u8g_u8toa.c **** const char *u8g_u8toa(uint8_t v, uint8_t d)
ARM GAS  C:\Users\master\AppData\Local\Temp\ccSWJoZx.s 			page 4


  63:u8glib/u8g_u8toa.c **** {
 109              		.loc 1 63 0
 110              		.cfi_startproc
 111              		@ args = 0, pretend = 0, frame = 0
 112              		@ frame_needed = 0, uses_anonymous_args = 0
 113              	.LVL12:
 114 0000 10B5     		push	{r4, lr}
 115              	.LCFI2:
 116              		.cfi_def_cfa_offset 8
 117              		.cfi_offset 4, -8
 118              		.cfi_offset 14, -4
  64:u8glib/u8g_u8toa.c ****   static char buf[4];
  65:u8glib/u8g_u8toa.c ****   d = 3-d;
 119              		.loc 1 65 0
 120 0002 C1F10301 		rsb	r1, r1, #3
 121              	.LVL13:
 122 0006 CCB2     		uxtb	r4, r1
 123              	.LVL14:
  66:u8glib/u8g_u8toa.c ****   return u8g_u8toap(buf, v) + d;
 124              		.loc 1 66 0
 125 0008 0146     		mov	r1, r0
 126 000a 0248     		ldr	r0, .L11
 127              	.LVL15:
 128 000c FFF7FEFF 		bl	u8g_u8toap
 129              	.LVL16:
  67:u8glib/u8g_u8toa.c **** }
 130              		.loc 1 67 0
 131 0010 2044     		add	r0, r0, r4
 132 0012 10BD     		pop	{r4, pc}
 133              	.LVL17:
 134              	.L12:
 135              		.align	2
 136              	.L11:
 137 0014 00000000 		.word	.LANCHOR1
 138              		.cfi_endproc
 139              	.LFE1:
 141              		.section	.bss.buf.5881,"aw",%nobits
 142              		.align	2
 143              		.set	.LANCHOR1,. + 0
 146              	buf.5881:
 147 0000 00000000 		.space	4
 148              		.section	.rodata.u8g_u8toa_tab,"a",%progbits
 149              		.align	2
 150              		.set	.LANCHOR0,. + 0
 153              	u8g_u8toa_tab:
 154 0000 64       		.byte	100
 155 0001 0A       		.byte	10
 156 0002 01       		.byte	1
 157              		.text
 158              	.Letext0:
 159              		.file 2 "c:\\program files (x86)\\gnu tools arm embedded\\5.4 2016q3\\arm-none-eabi\\include\\mach
 160              		.file 3 "c:\\program files (x86)\\gnu tools arm embedded\\5.4 2016q3\\arm-none-eabi\\include\\sys\
ARM GAS  C:\Users\master\AppData\Local\Temp\ccSWJoZx.s 			page 5

